BL51 BANKED LINKER/LOCATER V6.22.2.0                                                    08/04/2022  09:41:28  PAGE 1


BL51 BANKED LINKER/LOCATER V6.22.2.0, INVOKED BY:
D:\KEIL-C51\C51\BIN\BL51.EXE .\Objects\STARTUP.obj, .\Objects\main.obj, .\Objects\Driver.obj, .\Objects\LCD12864.obj, .\
>> Objects\NameList.obj, .\Objects\Eeprom.obj, .\Objects\SysStatus.obj, .\Objects\UnlockPassword.obj, .\Objects\SysStrin
>> g.obj, .\Objects\Card.obj, .\Objects\CardRead.obj, .\Objects\Audio.obj, .\Objects\UART.obj, .\Objects\timer.obj, .\Ob
>> jects\GPIO.obj, .\Objects\Exti.obj, .\Objects\spi.obj, .\Objects\WDT.obj TO .\Objects\FSK PRINT (.\Listings\FSK.m51) 
>> RAMSIZE (256)


MEMORY MODEL: LARGE


INPUT MODULES INCLUDED:
  .\Objects\STARTUP.obj (?C_STARTUP)
  .\Objects\main.obj (MAIN)
  .\Objects\Driver.obj (DRIVER)
  .\Objects\LCD12864.obj (LCD12864)
  .\Objects\NameList.obj (NAMELIST)
  .\Objects\Eeprom.obj (EEPROM)
  .\Objects\SysStatus.obj (SYSSTATUS)
  .\Objects\UnlockPassword.obj (UNLOCKPASSWORD)
  .\Objects\SysString.obj (SYSSTRING)
  .\Objects\Card.obj (CARD)
  .\Objects\CardRead.obj (CARDREAD)
  .\Objects\Audio.obj (AUDIO)
  .\Objects\UART.obj (UART)
  .\Objects\timer.obj (TIMER)
  .\Objects\GPIO.obj (GPIO)
  .\Objects\Exti.obj (EXTI)
  .\Objects\spi.obj (SPI)
  .\Objects\WDT.obj (WDT)
  D:\KEIL-C51\C51\LIB\C51L.LIB (?C_INIT)
  D:\KEIL-C51\C51\LIB\C51L.LIB (?C?CLDPTR)
  D:\KEIL-C51\C51\LIB\C51L.LIB (?C?CLDOPTR)
  D:\KEIL-C51\C51\LIB\C51L.LIB (?C?CSTPTR)
  D:\KEIL-C51\C51\LIB\C51L.LIB (?C?CSTOPTR)
  D:\KEIL-C51\C51\LIB\C51L.LIB (?C?IMUL)
  D:\KEIL-C51\C51\LIB\C51L.LIB (?C?UIDIV)
  D:\KEIL-C51\C51\LIB\C51L.LIB (?C?IILDX)
  D:\KEIL-C51\C51\LIB\C51L.LIB (?C?ILDIX)
  D:\KEIL-C51\C51\LIB\C51L.LIB (?C?ILDPTR)
  D:\KEIL-C51\C51\LIB\C51L.LIB (?C?ILDOPTR)
  D:\KEIL-C51\C51\LIB\C51L.LIB (?C?LMUL)
  D:\KEIL-C51\C51\LIB\C51L.LIB (?C?ULDIV)
  D:\KEIL-C51\C51\LIB\C51L.LIB (?C?ULCMP)
  D:\KEIL-C51\C51\LIB\C51L.LIB (?C?ULSHR)
  D:\KEIL-C51\C51\LIB\C51L.LIB (?C?LSHL)
  D:\KEIL-C51\C51\LIB\C51L.LIB (?C?LLDOPTR)
  D:\KEIL-C51\C51\LIB\C51L.LIB (?C?LLDOPTR0)
  D:\KEIL-C51\C51\LIB\C51L.LIB (?C?LSTXDATA)
  D:\KEIL-C51\C51\LIB\C51L.LIB (?C?LSTKXDATA)
  D:\KEIL-C51\C51\LIB\C51L.LIB (?C?CCASE)
  D:\KEIL-C51\C51\LIB\C51L.LIB (PRINTF)
  D:\KEIL-C51\C51\LIB\C51L.LIB (SCANF)
  D:\KEIL-C51\C51\LIB\C51L.LIB (?C?ISTPTR)
  D:\KEIL-C51\C51\LIB\C51L.LIB (?C?LNEG)
  D:\KEIL-C51\C51\LIB\C51L.LIB (?C?LSTPTR)
  D:\KEIL-C51\C51\LIB\C51L.LIB (?C?LLDIDATA)
  D:\KEIL-C51\C51\LIB\C51L.LIB (?C?LLDXDATA)
BL51 BANKED LINKER/LOCATER V6.22.2.0                                                  08/04/2022  09:41:28  PAGE 2


  D:\KEIL-C51\C51\LIB\C51L.LIB (?C?LLDPDATA)
  D:\KEIL-C51\C51\LIB\C51L.LIB (?C?LLDCODE)
  D:\KEIL-C51\C51\LIB\C51L.LIB (?C?LLDIDATA0)
  D:\KEIL-C51\C51\LIB\C51L.LIB (?C?LLDXDATA0)
  D:\KEIL-C51\C51\LIB\C51L.LIB (?C?LLDPDATA0)
  D:\KEIL-C51\C51\LIB\C51L.LIB (?C?LLDCODE0)
  D:\KEIL-C51\C51\LIB\C51L.LIB (?C?PLDXDATA)
  D:\KEIL-C51\C51\LIB\C51L.LIB (?C?PLDIXDATA)
  D:\KEIL-C51\C51\LIB\C51L.LIB (?C?PILDXDATA)
  D:\KEIL-C51\C51\LIB\C51L.LIB (?C?PSTXDATA)
  D:\KEIL-C51\C51\LIB\C51L.LIB (GETCHAR)
  D:\KEIL-C51\C51\LIB\C51L.LIB (UNGETC)
  D:\KEIL-C51\C51\LIB\C51L.LIB (ISSPACE)
  D:\KEIL-C51\C51\LIB\C51L.LIB (?C?LSTIDATA)
  D:\KEIL-C51\C51\LIB\C51L.LIB (?C?LSTPDATA)
  D:\KEIL-C51\C51\LIB\C51L.LIB (_GETKEY)


LINK MAP OF MODULE:  .\Objects\FSK (?C_STARTUP)


            TYPE    BASE      LENGTH    RELOCATION   SEGMENT NAME
            -----------------------------------------------------

            * * * * * * *   D A T A   M E M O R Y   * * * * * * *
            REG     0000H     0008H     ABSOLUTE     "REG BANK 0"
            DATA    0008H     0005H     UNIT         _DATA_GROUP_
                    000DH     0013H                  *** GAP ***
            BIT     0020H.0   0001H.2   UNIT         _BIT_GROUP_
            BIT     0021H.2   0000H.4   UNIT         ?BI?CARDREAD
            BIT     0021H.6   0000H.3   UNIT         ?BI?UNLOCKPASSWORD
            BIT     0022H.1   0000H.3   UNIT         ?BI?AUDIO
            BIT     0022H.4   0000H.2   UNIT         ?BI?LCD12864
            BIT     0022H.6   0000H.2   UNIT         ?BI?CARD
            BIT     0023H.0   0000H.1   UNIT         ?BI?NAMELIST
            BIT     0023H.1   0000H.1   UNIT         ?BI?TIMER
            BIT     0023H.2   0000H.1   UNIT         ?BI?SPI
            BIT     0023H.3   0000H.1   UNIT         ?BI?GETCHAR
                    0023H.4   0000H.4                *** GAP ***
            IDATA   0024H     0001H     UNIT         ?STACK

            * * * * * * *  X D A T A   M E M O R Y  * * * * * * *
            XDATA   0000H     08A3H     UNIT         ?XD?AUDIO
            XDATA   08A3H     0406H     UNIT         ?XD?LCD12864
            XDATA   0CA9H     03D8H     UNIT         ?XD?UART
            XDATA   1081H     00AEH     UNIT         _XDATA_GROUP_
            XDATA   112FH     0082H     UNIT         ?XD?SPI
            XDATA   11B1H     005AH     UNIT         ?XD?CARDREAD
            XDATA   120BH     0054H     UNIT         ?XD?SYSSTATUS
            XDATA   125FH     0034H     UNIT         ?XD?NAMELIST
            XDATA   1293H     0014H     UNIT         ?XD?SYSSTRING
            XDATA   12A7H     000CH     UNIT         ?XD?DRIVER
            XDATA   12B3H     000CH     UNIT         ?XD?UNLOCKPASSWORD
            XDATA   12BFH     0008H     UNIT         ?XD?CARD
            XDATA   12C7H     0005H     UNIT         ?XD?MAIN
            XDATA   12CCH     0005H     UNIT         ?XD?_GETPSWBYROOM?UNLOCKPASSWORD
            XDATA   12D1H     0002H     UNIT         ?XD?TIMER
BL51 BANKED LINKER/LOCATER V6.22.2.0                                                  08/04/2022  09:41:28  PAGE 3


            XDATA   12D3H     0001H     UNIT         ?XD?GETCHAR

            * * * * * * *   C O D E   M E M O R Y   * * * * * * *
            CODE    0000H     0003H     ABSOLUTE     
            CODE    0003H     0003H     ABSOLUTE     
            CODE    0006H     0004H     UNIT         ?PR?WDT_CLEAR?WDT
            CODE    000AH     0001H     UNIT         ?PR?SHOWGSMCSQ?SYSSTRING
            CODE    000BH     0003H     ABSOLUTE     
            CODE    000EH     000CH     UNIT         ?PR?_SYSTALKKEY?SYSSTATUS
                    001AH     0001H                  *** GAP ***
            CODE    001BH     0003H     ABSOLUTE     
            CODE    001EH     0003H     UNIT         ?CO?MAIN
                    0021H     0002H                  *** GAP ***
            CODE    0023H     0003H     ABSOLUTE     
            CODE    0026H     0025H     UNIT         ?PR?EDITNAMEITEMCON?NAMELIST
            CODE    004BH     0003H     ABSOLUTE     
            CODE    004EH     003BH     UNIT         ?PR?_WRITENAMEITEMBYIDX?NAMELIST
                    0089H     0002H                  *** GAP ***
            CODE    008BH     0003H     ABSOLUTE     
            CODE    008EH     0015H     UNIT         ?PR?IIC_NACK?EEPROM
            CODE    00A3H     0003H     ABSOLUTE     
            CODE    00A6H     0840H     UNIT         ?CO?LCD12864
            CODE    08E6H     0490H     UNIT         ?C?LIB_CODE
            CODE    0D76H     044CH     UNIT         ?PR?_UART_CONFIGURATION?UART
            CODE    11C2H     0425H     UNIT         ?PR?_PSWEDITKEY?UNLOCKPASSWORD
            CODE    15E7H     03EBH     UNIT         ?PR?_NAMEEDITKEY?NAMELIST
            CODE    19D2H     0371H     UNIT         ?PR?_REVNAMELIST?NAMELIST
            CODE    1D43H     0365H     UNIT         ?PR?PRINTF?PRINTF
            CODE    20A8H     033AH     UNIT         ?PR?_SHOWPSW?UNLOCKPASSWORD
            CODE    23E2H     0322H     UNIT         ?PR?SCANF?SCANF
            CODE    2704H     02EBH     UNIT         ?CO?SYSSTRING
            CODE    29EFH     02C1H     UNIT         ?PR?_SYSPSWEDITKEY?UNLOCKPASSWORD
            CODE    2CB0H     0254H     UNIT         ?PR?_GPIO_INILIZE?GPIO
            CODE    2F04H     0227H     UNIT         ?PR?WG_SEND26?CARDREAD
            CODE    312BH     0226H     UNIT         ?PR?_NAMEDELETEKEY?NAMELIST
            CODE    3351H     0226H     UNIT         ?PR?_SHOWCARD?CARD
            CODE    3577H     01F0H     UNIT         ?PR?_TIMER_INILIZE?TIMER
            CODE    3767H     01E3H     UNIT         ?PR?MAIN?MAIN
            CODE    394AH     01D2H     UNIT         ?C_INITSEG
            CODE    3B1CH     01CFH     UNIT         ?PR?_SHOWNAME?NAMELIST
            CODE    3CEBH     01B8H     UNIT         ?PR?_CARDDELETEKEY?CARD
            CODE    3EA3H     01B2H     UNIT         ?PR?_CARDEDITKEY?CARD
            CODE    4055H     01AAH     UNIT         ?PR?_PSWDELETEKEY?UNLOCKPASSWORD
            CODE    41FFH     0180H     UNIT         ?PR?SHOWSUBPARA?SYSSTATUS
            CODE    437FH     017DH     UNIT         ?PR?_SYSKEY?SYSSTATUS
            CODE    44FCH     0155H     UNIT         ?PR?_SYSSUBSETKEY?SYSSTATUS
            CODE    4651H     014DH     UNIT         ?PR?_WRITELCD?LCD12864
            CODE    479EH     0146H     UNIT         ?PR?_SYSIDLEKEY?SYSSTATUS
            CODE    48E4H     0144H     UNIT         ?PR?_PSWINPUTKEY?UNLOCKPASSWORD
            CODE    4A28H     0126H     UNIT         ?PR?WAVREADTASK?AUDIO
            CODE    4B4EH     011EH     UNIT         ?PR?KEYSCAN?DRIVER
            CODE    4C6CH     011EH     UNIT         ?PR?INITSYSPARA?SYSSTATUS
            CODE    4D8AH     010CH     UNIT         ?PR?SKEYSCAN?DRIVER
            CODE    4E96H     0107H     UNIT         ?PR?_SYSINPUTROOM?SYSSTATUS
            CODE    4F9DH     00FEH     UNIT         ?PR?_INPUTSYSPSW?SYSSTATUS
            CODE    509BH     00F8H     UNIT         ?PR?_LOOKFORSTR?DRIVER
            CODE    5193H     00F1H     UNIT         ?PR?_CALLBYNAMEITEM?NAMELIST
BL51 BANKED LINKER/LOCATER V6.22.2.0                                                  08/04/2022  09:41:28  PAGE 4


            CODE    5284H     00EDH     UNIT         ?PR?_SAVESUBPARA?SYSSTATUS
            CODE    5371H     00E8H     UNIT         ?PR?GPIO_CONFIG?DRIVER
            CODE    5459H     00E5H     UNIT         ?PR?NAMEEDITCHAGETYPE?NAMELIST
            CODE    553EH     00DEH     UNIT         ?PR?_SHOWMAIN?SYSSTRING
            CODE    561CH     00DEH     UNIT         ?PR?_ADDCARDITEM?CARD
            CODE    56FAH     00DDH     UNIT         ?CO?NAMELIST
            CODE    57D7H     00CFH     UNIT         ?PR?_SYSSETTINGKEY?SYSSTATUS
            CODE    58A6H     00C6H     UNIT         ?PR?_SUBSETCON?SYSSTATUS
            CODE    596CH     00B4H     UNIT         ?PR?PWMTASK?AUDIO
            CODE    5A20H     00ADH     UNIT         ?PR?_DISPLAYFL?LCD12864
            CODE    5ACDH     00A9H     UNIT         ?PR?SHOWINPUTPSW?SYSSTATUS
            CODE    5B76H     00A6H     UNIT         ?PR?WG_READ26?CARDREAD
            CODE    5C1CH     00A0H     UNIT         ?PR?_CHECKCARD?CARD
            CODE    5CBCH     009BH     UNIT         ?PR?_MP3_STARTPLAY?AUDIO
            CODE    5D57H     009AH     UNIT         ?PR?UART3_INT?UART
            CODE    5DF1H     0099H     UNIT         ?PR?_SPI_FLASH_READ?SPI
            CODE    5E8AH     0098H     UNIT         ?PR?_SPI_INIT?SPI
            CODE    5F22H     0091H     UNIT         ?PR?_BITBLT?LCD12864
            CODE    5FB3H     008FH     UNIT         ?CO?SYSSTATUS
            CODE    6042H     008EH     UNIT         ?PR?UART1_INT?UART
            CODE    60D0H     008CH     UNIT         ?C_C51STARTUP
            CODE    615CH     008BH     UNIT         ?PR?_WRITEBUF_AT24C02?EEPROM
            CODE    61E7H     0085H     UNIT         ?PR?_GETIDXBYROOM?SYSSTATUS
            CODE    626CH     0078H     UNIT         ?PR?_CHECKPSW?UNLOCKPASSWORD
            CODE    62E4H     0077H     UNIT         ?PR?_ADDNAMEITEM?NAMELIST
            CODE    635BH     0077H     UNIT         ?PR?_ADDPSWITEM?UNLOCKPASSWORD
            CODE    63D2H     0070H     UNIT         ?PR?_WRITELCDICO?LCD12864
            CODE    6442H     006FH     UNIT         ?PR?_DELNAMEITEMBYIDX?NAMELIST
            CODE    64B1H     006FH     UNIT         ?PR?NAMESETCON?NAMELIST
            CODE    6520H     006FH     UNIT         ?PR?_DELPSWBYIDX?UNLOCKPASSWORD
            CODE    658FH     006FH     UNIT         ?PR?PSWSETCON?UNLOCKPASSWORD
            CODE    65FEH     006FH     UNIT         ?PR?_DELCARDBYIDX?CARD
            CODE    666DH     006FH     UNIT         ?PR?CARDSETCON?CARD
            CODE    66DCH     006CH     UNIT         ?PR?SHOWINPUTROOM?SYSSTATUS
            CODE    6748H     006BH     UNIT         ?PR?_SENDRELAY?DRIVER
            CODE    67B3H     0064H     UNIT         ?PR?_SYSCARD?SYSSTATUS
            CODE    6817H     0063H     UNIT         ?PR?_RELAYOPEN?DRIVER
            CODE    687AH     0063H     UNIT         ?PR?_READBUF_AT24C02?EEPROM
            CODE    68DDH     0063H     UNIT         ?PR?_EXT_INILIZE?EXTI
            CODE    6940H     0059H     UNIT         ?PR?INITUSERPARA?SYSSTATUS
            CODE    6999H     0059H     UNIT         ?PR?_READROOMBYIDX?SYSSTATUS
            CODE    69F2H     0059H     UNIT         ?PR?_BEEP_STARTPLAY?AUDIO
            CODE    6A4BH     0056H     UNIT         ?PR?UART_CONFIG?DRIVER
            CODE    6AA1H     0055H     UNIT         ?PR?RINGTASK?AUDIO
            CODE    6AF6H     0055H     UNIT         ?PR?TIMER4_INT?TIMER
            CODE    6B4BH     0053H     UNIT         ?PR?TIMER_CONFIG?DRIVER
            CODE    6B9EH     004DH     UNIT         ?PR?_LCD_WDAT?LCD12864
            CODE    6BEBH     0049H     UNIT         ?PR?_GETNAMEITEMBYROOM?NAMELIST
            CODE    6C34H     0049H     UNIT         ?PR?_GETPSWBYROOM?UNLOCKPASSWORD
            CODE    6C7DH     0049H     UNIT         ?PR?SPI_TRANSIVION?SPI
            CODE    6CC6H     0048H     UNIT         ?PR?UARTTASK?UART
            CODE    6D0EH     0044H     UNIT         ?PR?_HS_MEMCPY?DRIVER
            CODE    6D52H     0043H     UNIT         ?PR?_LCD_WCMD?LCD12864
            CODE    6D95H     0042H     UNIT         ?PR?SHOWTALKTIME?SYSSTRING
            CODE    6DD7H     0040H     UNIT         ?PR?KEYBEEPTASK?AUDIO
            CODE    6E17H     0040H     UNIT         ?PR?TIMER0_INT?TIMER
            CODE    6E57H     003BH     UNIT         ?PR?_CARDEDITCARDIN?CARD
BL51 BANKED LINKER/LOCATER V6.22.2.0                                                  08/04/2022  09:41:28  PAGE 5


            CODE    6E92H     0039H     UNIT         ?PR?_IIC_SEND_BYTE?EEPROM
            CODE    6ECBH     0038H     UNIT         ?PR?SYSSETTINGCON?SYSSTATUS
            CODE    6F03H     0037H     UNIT         ?CO?AUDIO
            CODE    6F3AH     0035H     UNIT         ?CO?DRIVER
            CODE    6F6FH     0035H     UNIT         ?PR?MP3_STOP?AUDIO
            CODE    6FA4H     0033H     UNIT         ?PR?DELETECARDCON?CARD
            CODE    6FD7H     0032H     UNIT         ?PR?FLASHTASK?LCD12864
            CODE    7009H     0032H     UNIT         ?PR?CARDMSTASK?CARDREAD
            CODE    703BH     0031H     UNIT         ?PR?_WRITECARDBYIDX?CARD
            CODE    706CH     0031H     UNIT         ?PR?_READCARDBYIDX?CARD
            CODE    709DH     0030H     UNIT         ?PR?INIT_12864?LCD12864
            CODE    70CDH     0030H     UNIT         ?PR?_READNAMEITEMBYIDX?NAMELIST
            CODE    70FDH     002FH     UNIT         ?PR?_INPUTROOMCON?SYSSTATUS
            CODE    712CH     002EH     UNIT         ?PR?_MEMISEMPTY?DRIVER
            CODE    715AH     002EH     UNIT         ?PR?IIC_READ_BYTE?EEPROM
            CODE    7188H     002CH     UNIT         ?PR?_CLEARBUF?DRIVER
            CODE    71B4H     002CH     UNIT         ?PR?TIMER1_INT?TIMER
            CODE    71E0H     002BH     UNIT         ?PR?_UART3SENDBUF?UART
            CODE    720BH     0029H     UNIT         ?PR?_DELCARDBYCARD?CARD
            CODE    7234H     0029H     UNIT         ?PR?SPI_CONFIG?AUDIO
            CODE    725DH     0029H     UNIT         ?PR?_WDT_INILIZE?WDT
            CODE    7286H     0028H     UNIT         ?PR?_WRITEPSWBYIDX?UNLOCKPASSWORD
            CODE    72AEH     0028H     UNIT         ?PR?_TX3_WRITE2BUFF?UART
            CODE    72D6H     0027H     UNIT         ?PR?_TX1_WRITE2BUFF?UART
            CODE    72FDH     0026H     UNIT         ?PR?_DELAY?DRIVER
            CODE    7323H     0026H     UNIT         ?PR?_STRLEN?DRIVER
            CODE    7349H     0025H     UNIT         ?PR?DELETENAMECON?NAMELIST
            CODE    736EH     0025H     UNIT         ?PR?IIC_ACK?EEPROM
            CODE    7393H     0025H     UNIT         ?PR?_DELPSWBYROOM?UNLOCKPASSWORD
            CODE    73B8H     0025H     UNIT         ?PR?EDITPSWCON?UNLOCKPASSWORD
            CODE    73DDH     0025H     UNIT         ?PR?DELETEPSWCON?UNLOCKPASSWORD
            CODE    7402H     0025H     UNIT         ?PR?EDITSYSPSWCON?UNLOCKPASSWORD
            CODE    7427H     0025H     UNIT         ?PR?_DELCARDBYROOM?CARD
            CODE    744CH     0025H     UNIT         ?PR?EDITCARDCON?CARD
            CODE    7471H     0025H     UNIT         ?PR?PWM_CONFIG?AUDIO
            CODE    7496H     0024H     UNIT         ?PR?INPUTPSWCON?UNLOCKPASSWORD
            CODE    74BAH     0023H     UNIT         ?PR?SAVENAMECOUNT?NAMELIST
            CODE    74DDH     0023H     UNIT         ?PR?SAVEPSWCOUNT?UNLOCKPASSWORD
            CODE    7500H     0023H     UNIT         ?PR?SAVECARDCOUNT?CARD
            CODE    7523H     0023H     UNIT         ?CO?CARD
            CODE    7546H     0022H     UNIT         ?PR?_SHOWNAMEBYIDX?NAMELIST
            CODE    7568H     0021H     UNIT         ?PR?LCD_BUSY?LCD12864
            CODE    7589H     0021H     UNIT         ?PR?_NAMESETKEY?NAMELIST
            CODE    75AAH     0021H     UNIT         ?PR?_PSWSETKEY?UNLOCKPASSWORD
            CODE    75CBH     0021H     UNIT         ?PR?_CARDSETKEY?CARD
            CODE    75ECH     001DH     UNIT         ?PR?LCDCLEAR?LCD12864
            CODE    7609H     001DH     UNIT         ?PR?_CHECKUNICODE?LCD12864
            CODE    7626H     001DH     UNIT         ?PR?INPUTSYSPSWCON?SYSSTATUS
            CODE    7643H     001DH     UNIT         ?PR?_READPSWBYIDX?UNLOCKPASSWORD
            CODE    7660H     001DH     UNIT         ?PR?SAVESYSPSW?UNLOCKPASSWORD
            CODE    767DH     001CH     UNIT         ?PR?WGRESET?CARDREAD
            CODE    7699H     001BH     UNIT         ?PR?_SPI_READWRITEBYTE?SPI
            CODE    76B4H     001AH     UNIT         ?PR?RELAYTASK?DRIVER
            CODE    76CEH     001AH     UNIT         ?PR?SYSIDLECON?SYSSTATUS
            CODE    76E8H     001AH     UNIT         ?CO?UNLOCKPASSWORD
            CODE    7702H     001AH     UNIT         ?PR?CARDREADINIT?CARDREAD
            CODE    771CH     0019H     UNIT         ?PR?EXTI_CONFIG?DRIVER
BL51 BANKED LINKER/LOCATER V6.22.2.0                                                  08/04/2022  09:41:28  PAGE 6


            CODE    7735H     0019H     UNIT         ?PR?SHOWUNLOCK?SYSSTRING
            CODE    774EH     0019H     UNIT         ?PR?UART1CLEAR?UART
            CODE    7767H     0019H     UNIT         ?PR?UART3CLEAR?UART
            CODE    7780H     0017H     UNIT         ?PR?_NAMEDELALLKEY?NAMELIST
            CODE    7797H     0017H     UNIT         ?PR?_PSWDELALLKEY?UNLOCKPASSWORD
            CODE    77AEH     0017H     UNIT         ?PR?_CARDDELALLKEY?CARD
            CODE    77C5H     0016H     UNIT         ?PR?WDT_CONFIG?DRIVER
            CODE    77DBH     0016H     UNIT         ?PR?_DISPLAYSTRING?LCD12864
            CODE    77F1H     0016H     UNIT         ?PR?DELETEALLNAMECON?NAMELIST
            CODE    7807H     0016H     UNIT         ?PR?IIC_START?EEPROM
            CODE    781DH     0016H     UNIT         ?PR?IIC_STOP?EEPROM
            CODE    7833H     0016H     UNIT         ?PR?DELETEALLPSWCON?UNLOCKPASSWORD
            CODE    7849H     0016H     UNIT         ?PR?DELETEALLCARDCON?CARD
            CODE    785FH     0015H     UNIT         ?PR?SHOWSAVEOK?SYSSTRING
            CODE    7874H     0015H     UNIT         ?PR?SHOWERR?SYSSTRING
            CODE    7889H     0015H     UNIT         ?PR?SHOWDELETEOK?SYSSTRING
            CODE    789EH     0015H     UNIT         ?PR?SHOWCARDERR?SYSSTRING
            CODE    78B3H     0014H     UNIT         ?PR?GETCHAR?GETCHAR
            CODE    78C7H     0014H     UNIT         ?PR?_ISSPACE?ISSPACE
            CODE    78DBH     0013H     UNIT         ?PR?INITNAMELIST?NAMELIST
            CODE    78EEH     0013H     UNIT         ?PR?IIC_AACK?EEPROM
            CODE    7901H     0013H     UNIT         ?PR?INITPSW?UNLOCKPASSWORD
            CODE    7914H     0013H     UNIT         ?PR?INITCARD?CARD
            CODE    7927H     0012H     UNIT         ?PR?_DISPLAYICO?LCD12864
            CODE    7939H     0012H     UNIT         ?PR?_IIC_DELAYMS?EEPROM
            CODE    794BH     0012H     UNIT         ?PR?EXT_INT0?EXTI
            CODE    795DH     0011H     UNIT         ?PR?UNLOCK?DRIVER
            CODE    796EH     0011H     UNIT         ?PR?_DELNAMEITEMBYROOM?NAMELIST
            CODE    797FH     0010H     UNIT         ?PR?LCDADDROW?LCD12864
            CODE    798FH     0010H     UNIT         ?PR?SHOWCONFIRMSAVE?SYSSTRING
            CODE    799FH     0010H     UNIT         ?PR?SHOWCONFIRMDEL?SYSSTRING
            CODE    79AFH     0010H     UNIT         ?PR?SHOWROOMERR?SYSSTRING
            CODE    79BFH     0010H     UNIT         ?PR?SHOWRESET?SYSSTRING
            CODE    79CFH     0010H     UNIT         ?CO?CARDREAD
            CODE    79DFH     000EH     UNIT         ?PR?_PUTCHAR?DRIVER
            CODE    79EDH     000EH     UNIT         ?PR?WGWDG?CARDREAD
            CODE    79FBH     000EH     UNIT         ?PR?_STARTRING?AUDIO
            CODE    7A09H     000AH     UNIT         ?PR?CLEARNAMELIST?NAMELIST
            CODE    7A13H     000AH     UNIT         ?PR?CLEARPSW?UNLOCKPASSWORD
            CODE    7A1DH     000AH     UNIT         ?PR?CLEARCARD?CARD
            CODE    7A27H     000AH     UNIT         ?PR?_GETKEY?_GETKEY
            CODE    7A31H     0009H     UNIT         ?PR?_SETFLASH?LCD12864
            CODE    7A3AH     0008H     UNIT         ?PR?GETCHAR?UNGETCHAR
            CODE    7A42H     0007H     UNIT         ?PR?RELAYCLOASEALL?DRIVER



OVERLAY MAP OF MODULE:   .\Objects\FSK (?C_STARTUP)


SEGMENT                                       BIT_GROUP          DATA_GROUP          XDATA_GROUP
  +--> CALLED SEGMENT                      START    LENGTH     START    LENGTH     START    LENGTH
--------------------------------------------------------------------------------------------------
?C_C51STARTUP                              -----    -----      -----    -----      -----    -----
  +--> ?PR?MAIN?MAIN
  +--> ?C_INITSEG

BL51 BANKED LINKER/LOCATER V6.22.2.0                                                  08/04/2022  09:41:28  PAGE 7


?PR?MAIN?MAIN                              -----    -----      -----    -----      -----    -----
  +--> ?PR?_DELAY?DRIVER
  +--> ?PR?GPIO_CONFIG?DRIVER
  +--> ?PR?TIMER_CONFIG?DRIVER
  +--> ?PR?UART_CONFIG?DRIVER
  +--> ?PR?EXTI_CONFIG?DRIVER
  +--> ?PR?SPI_CONFIG?AUDIO
  +--> ?PR?PWM_CONFIG?AUDIO
  +--> ?PR?INIT_12864?LCD12864
  +--> ?PR?INITSYSPARA?SYSSTATUS
  +--> ?PR?INITUSERPARA?SYSSTATUS
  +--> ?PR?WDT_CONFIG?DRIVER
  +--> ?PR?SYSIDLECON?SYSSTATUS
  +--> ?PR?CARDREADINIT?CARDREAD
  +--> ?PR?_BEEP_STARTPLAY?AUDIO
  +--> ?PR?_REVNAMELIST?NAMELIST
  +--> ?PR?UART1CLEAR?UART
  +--> ?CO?MAIN
  +--> ?PR?PRINTF?PRINTF
  +--> ?PR?UART3CLEAR?UART
  +--> ?PR?WAVREADTASK?AUDIO
  +--> ?PR?UARTTASK?UART
  +--> ?PR?FLASHTASK?LCD12864
  +--> ?PR?WGWDG?CARDREAD
  +--> ?PR?WDT_CLEAR?WDT
  +--> ?PR?RELAYTASK?DRIVER
  +--> ?PR?SHOWTALKTIME?SYSSTRING
  +--> ?PR?_SHOWMAIN?SYSSTRING
  +--> ?PR?_NAMEEDITKEY?NAMELIST
  +--> ?PR?KEYSCAN?DRIVER
  +--> ?PR?_SYSKEY?SYSSTATUS
  +--> ?PR?SKEYSCAN?DRIVER
  +--> ?PR?CARDMSTASK?CARDREAD
  +--> ?PR?WG_READ26?CARDREAD
  +--> ?PR?WG_SEND26?CARDREAD
  +--> ?PR?_SYSCARD?SYSSTATUS

?PR?GPIO_CONFIG?DRIVER                     -----    -----      -----    -----      1081H    0002H
  +--> ?PR?_GPIO_INILIZE?GPIO
  +--> ?PR?RELAYCLOASEALL?DRIVER

?PR?TIMER_CONFIG?DRIVER                    -----    -----      -----    -----      1081H    0008H
  +--> ?PR?_TIMER_INILIZE?TIMER

?PR?UART_CONFIG?DRIVER                     -----    -----      -----    -----      1081H    000CH
  +--> ?PR?_UART_CONFIGURATION?UART
  +--> ?CO?DRIVER
  +--> ?PR?PRINTF?PRINTF
  +--> ?PR?_TX3_WRITE2BUFF?UART

?PR?_UART_CONFIGURATION?UART               -----    -----      -----    -----      108DH    000AH

?PR?PRINTF?PRINTF                          0020H.1  0001H.1    0008H    0005H      1106H    0028H
  +--> ?PR?_PUTCHAR?DRIVER

?PR?_PUTCHAR?DRIVER                        -----    -----      -----    -----      112EH    0001H
  +--> ?PR?_TX1_WRITE2BUFF?UART
BL51 BANKED LINKER/LOCATER V6.22.2.0                                                  08/04/2022  09:41:28  PAGE 8



?PR?EXTI_CONFIG?DRIVER                     -----    -----      -----    -----      1081H    0003H
  +--> ?PR?_EXT_INILIZE?EXTI

?PR?SPI_CONFIG?AUDIO                       -----    -----      -----    -----      1081H    0009H
  +--> ?PR?_SPI_INIT?SPI

?PR?INIT_12864?LCD12864                    -----    -----      -----    -----      -----    -----
  +--> ?PR?_LCD_WCMD?LCD12864

?PR?_LCD_WCMD?LCD12864                     -----    -----      -----    -----      110EH    0001H
  +--> ?PR?LCD_BUSY?LCD12864
  +--> ?PR?_BEEP_STARTPLAY?AUDIO

?PR?LCD_BUSY?LCD12864                      0020H.2  0000H.1    -----    -----      -----    -----

?PR?_BEEP_STARTPLAY?AUDIO                  -----    -----      -----    -----      -----    -----
  +--> ?PR?KEYBEEPTASK?AUDIO

?PR?KEYBEEPTASK?AUDIO                      -----    -----      -----    -----      -----    -----
  +--> ?CO?AUDIO

?PR?INITSYSPARA?SYSSTATUS                  0020H.0  0000H.1    -----    -----      -----    -----
  +--> ?PR?_READBUF_AT24C02?EEPROM
  +--> ?PR?_WRITEBUF_AT24C02?EEPROM
  +--> ?CO?SYSSTATUS
  +--> ?PR?PRINTF?PRINTF

?PR?_READBUF_AT24C02?EEPROM                -----    -----      -----    -----      10E6H    0008H
  +--> ?PR?IIC_ACK?EEPROM
  +--> ?PR?_IIC_SEND_BYTE?EEPROM
  +--> ?PR?IIC_START?EEPROM
  +--> ?PR?IIC_READ_BYTE?EEPROM
  +--> ?PR?IIC_AACK?EEPROM
  +--> ?PR?IIC_NACK?EEPROM
  +--> ?PR?IIC_STOP?EEPROM

?PR?IIC_ACK?EEPROM                         -----    -----      -----    -----      -----    -----
  +--> ?PR?IIC_START?EEPROM
  +--> ?PR?_IIC_SEND_BYTE?EEPROM

?PR?_WRITEBUF_AT24C02?EEPROM               -----    -----      -----    -----      10E6H    0007H
  +--> ?PR?_IIC_SEND_BYTE?EEPROM
  +--> ?PR?IIC_ACK?EEPROM
  +--> ?PR?IIC_STOP?EEPROM
  +--> ?PR?_IIC_DELAYMS?EEPROM

?PR?INITUSERPARA?SYSSTATUS                 -----    -----      -----    -----      -----    -----
  +--> ?PR?_READBUF_AT24C02?EEPROM
  +--> ?PR?_WRITEBUF_AT24C02?EEPROM
  +--> ?PR?INITNAMELIST?NAMELIST
  +--> ?PR?INITPSW?UNLOCKPASSWORD
  +--> ?PR?INITCARD?CARD

?PR?INITNAMELIST?NAMELIST                  -----    -----      -----    -----      -----    -----
  +--> ?PR?CLEARNAMELIST?NAMELIST

BL51 BANKED LINKER/LOCATER V6.22.2.0                                                  08/04/2022  09:41:28  PAGE 9


?PR?CLEARNAMELIST?NAMELIST                 -----    -----      -----    -----      -----    -----
  +--> ?PR?SAVENAMECOUNT?NAMELIST

?PR?SAVENAMECOUNT?NAMELIST                 -----    -----      -----    -----      -----    -----
  +--> ?PR?_WRITEBUF_AT24C02?EEPROM

?PR?INITPSW?UNLOCKPASSWORD                 -----    -----      -----    -----      -----    -----
  +--> ?PR?CLEARPSW?UNLOCKPASSWORD

?PR?CLEARPSW?UNLOCKPASSWORD                -----    -----      -----    -----      -----    -----
  +--> ?PR?SAVEPSWCOUNT?UNLOCKPASSWORD

?PR?SAVEPSWCOUNT?UNLOCKPASSWORD            -----    -----      -----    -----      -----    -----
  +--> ?PR?_WRITEBUF_AT24C02?EEPROM

?PR?INITCARD?CARD                          -----    -----      -----    -----      -----    -----
  +--> ?PR?CLEARCARD?CARD

?PR?CLEARCARD?CARD                         -----    -----      -----    -----      -----    -----
  +--> ?PR?SAVECARDCOUNT?CARD

?PR?SAVECARDCOUNT?CARD                     -----    -----      -----    -----      -----    -----
  +--> ?PR?_WRITEBUF_AT24C02?EEPROM

?PR?WDT_CONFIG?DRIVER                      -----    -----      -----    -----      1081H    0003H
  +--> ?PR?_WDT_INILIZE?WDT

?PR?SYSIDLECON?SYSSTATUS                   -----    -----      -----    -----      -----    -----
  +--> ?PR?_SHOWMAIN?SYSSTRING

?PR?_SHOWMAIN?SYSSTRING                    -----    -----      -----    -----      1083H    0001H
  +--> ?PR?LCDCLEAR?LCD12864
  +--> ?PR?SHOWGSMCSQ?SYSSTRING
  +--> ?CO?SYSSTRING
  +--> ?PR?_DISPLAYSTRING?LCD12864
  +--> ?PR?_DISPLAYICO?LCD12864

?PR?LCDCLEAR?LCD12864                      -----    -----      -----    -----      -----    -----
  +--> ?PR?_LCD_WCMD?LCD12864
  +--> ?PR?_CLEARBUF?DRIVER
  +--> ?PR?_SETFLASH?LCD12864

?PR?_CLEARBUF?DRIVER                       -----    -----      -----    -----      1106H    0003H

?PR?_DISPLAYSTRING?LCD12864                -----    -----      -----    -----      -----    -----
  +--> ?PR?_WRITELCD?LCD12864
  +--> ?PR?_BITBLT?LCD12864

?PR?_WRITELCD?LCD12864                     -----    -----      -----    -----      1106H    0008H
  +--> ?PR?_CHECKUNICODE?LCD12864
  +--> ?PR?LCDADDROW?LCD12864
  +--> ?CO?LCD12864

?PR?_BITBLT?LCD12864                       -----    -----      -----    -----      1106H    0008H
  +--> ?PR?_LCD_WCMD?LCD12864
  +--> ?PR?_LCD_WDAT?LCD12864
  +--> ?PR?WAVREADTASK?AUDIO
BL51 BANKED LINKER/LOCATER V6.22.2.0                                                  08/04/2022  09:41:28  PAGE 10



?PR?_LCD_WDAT?LCD12864                     -----    -----      -----    -----      110EH    0001H
  +--> ?PR?LCD_BUSY?LCD12864
  +--> ?PR?_BEEP_STARTPLAY?AUDIO

?PR?WAVREADTASK?AUDIO                      -----    -----      -----    -----      110EH    0001H
  +--> ?PR?WDT_CLEAR?WDT
  +--> ?PR?MP3_STOP?AUDIO
  +--> ?PR?_SPI_FLASH_READ?SPI

?PR?_SPI_FLASH_READ?SPI                    -----    -----      -----    -----      110FH    000DH
  +--> ?PR?_DELAY?DRIVER
  +--> ?PR?_SPI_READWRITEBYTE?SPI

?PR?_DISPLAYICO?LCD12864                   -----    -----      -----    -----      -----    -----
  +--> ?PR?_WRITELCDICO?LCD12864
  +--> ?PR?_BITBLT?LCD12864

?PR?_WRITELCDICO?LCD12864                  -----    -----      -----    -----      1084H    0007H
  +--> ?CO?LCD12864

?PR?_REVNAMELIST?NAMELIST                  -----    -----      -----    -----      1081H    0037H
  +--> ?CO?NAMELIST
  +--> ?PR?PRINTF?PRINTF
  +--> ?PR?_LOOKFORSTR?DRIVER
  +--> ?PR?SCANF?SCANF
  +--> ?PR?_CLEARBUF?DRIVER
  +--> ?PR?_ADDNAMEITEM?NAMELIST

?PR?_LOOKFORSTR?DRIVER                     -----    -----      -----    -----      10B8H    000AH

?PR?SCANF?SCANF                            0020H.0  0000H.6    0008H    0005H      10B8H    002EH
  +--> ?PR?GETCHAR?UNGETCHAR
  +--> ?PR?_ISSPACE?ISSPACE
  +--> ?PR?GETCHAR?GETCHAR

?PR?GETCHAR?GETCHAR                        -----    -----      -----    -----      -----    -----
  +--> ?PR?_GETKEY?_GETKEY
  +--> ?PR?_PUTCHAR?DRIVER

?PR?_ADDNAMEITEM?NAMELIST                  -----    -----      -----    -----      10B8H    0005H
  +--> ?PR?_GETIDXBYROOM?SYSSTATUS
  +--> ?PR?_WRITENAMEITEMBYIDX?NAMELIST
  +--> ?PR?SAVENAMECOUNT?NAMELIST

?PR?_GETIDXBYROOM?SYSSTATUS                -----    -----      -----    -----      10BDH    0007H
  +--> ?PR?_READROOMBYIDX?SYSSTATUS

?PR?_READROOMBYIDX?SYSSTATUS               -----    -----      -----    -----      10C4H    0002H
  +--> ?PR?_READBUF_AT24C02?EEPROM

?PR?_WRITENAMEITEMBYIDX?NAMELIST           -----    -----      -----    -----      10E3H    0003H
  +--> ?PR?_WRITEBUF_AT24C02?EEPROM

?PR?UART1CLEAR?UART                        -----    -----      -----    -----      -----    -----
  +--> ?PR?_CLEARBUF?DRIVER

BL51 BANKED LINKER/LOCATER V6.22.2.0                                                  08/04/2022  09:41:28  PAGE 11


?PR?UART3CLEAR?UART                        -----    -----      -----    -----      -----    -----
  +--> ?PR?_CLEARBUF?DRIVER

?PR?UARTTASK?UART                          -----    -----      -----    -----      -----    -----
  +--> ?PR?UART1CLEAR?UART
  +--> ?PR?UART3CLEAR?UART

?PR?FLASHTASK?LCD12864                     -----    -----      -----    -----      -----    -----
  +--> ?PR?_DISPLAYFL?LCD12864

?PR?_DISPLAYFL?LCD12864                    0020H.0  0000H.1    -----    -----      1081H    0002H
  +--> ?PR?_LCD_WCMD?LCD12864
  +--> ?PR?_LCD_WDAT?LCD12864

?PR?WGWDG?CARDREAD                         -----    -----      -----    -----      -----    -----
  +--> ?PR?WGRESET?CARDREAD

?PR?RELAYTASK?DRIVER                       -----    -----      -----    -----      -----    -----
  +--> ?PR?RELAYCLOASEALL?DRIVER

?PR?SHOWTALKTIME?SYSSTRING                 -----    -----      -----    -----      -----    -----
  +--> ?PR?LCDCLEAR?LCD12864
  +--> ?CO?SYSSTRING
  +--> ?PR?PRINTF?PRINTF
  +--> ?PR?_DISPLAYSTRING?LCD12864

?PR?_NAMEEDITKEY?NAMELIST                  -----    -----      -----    -----      1082H    0001H
  +--> ?PR?_CLEARBUF?DRIVER
  +--> ?PR?_ADDNAMEITEM?NAMELIST
  +--> ?PR?SHOWSAVEOK?SYSSTRING
  +--> ?PR?SHOWERR?SYSSTRING
  +--> ?PR?NAMEEDITCHAGETYPE?NAMELIST
  +--> ?PR?NAMESETCON?NAMELIST
  +--> ?CO?SYSSTRING
  +--> ?PR?_SHOWNAME?NAMELIST

?PR?SHOWSAVEOK?SYSSTRING                   -----    -----      -----    -----      -----    -----
  +--> ?PR?LCDCLEAR?LCD12864
  +--> ?CO?SYSSTRING
  +--> ?PR?_DISPLAYSTRING?LCD12864
  +--> ?PR?_MP3_STARTPLAY?AUDIO

?PR?_MP3_STARTPLAY?AUDIO                   -----    -----      -----    -----      10B3H    0001H
  +--> ?PR?WDT_CLEAR?WDT
  +--> ?PR?_DELAY?DRIVER
  +--> ?PR?WAVREADTASK?AUDIO

?PR?SHOWERR?SYSSTRING                      -----    -----      -----    -----      -----    -----
  +--> ?PR?LCDCLEAR?LCD12864
  +--> ?CO?SYSSTRING
  +--> ?PR?_DISPLAYSTRING?LCD12864
  +--> ?PR?_MP3_STARTPLAY?AUDIO

?PR?NAMEEDITCHAGETYPE?NAMELIST             -----    -----      -----    -----      1083H    0030H
  +--> ?PR?_GETNAMEITEMBYROOM?NAMELIST
  +--> ?PR?_HS_MEMCPY?DRIVER
  +--> ?PR?_STRLEN?DRIVER
BL51 BANKED LINKER/LOCATER V6.22.2.0                                                  08/04/2022  09:41:28  PAGE 12


  +--> ?PR?SHOWCONFIRMSAVE?SYSSTRING

?PR?_GETNAMEITEMBYROOM?NAMELIST            -----    -----      -----    -----      10B3H    0005H
  +--> ?PR?_GETIDXBYROOM?SYSSTATUS
  +--> ?PR?_READNAMEITEMBYIDX?NAMELIST

?PR?_READNAMEITEMBYIDX?NAMELIST            -----    -----      -----    -----      10E3H    0003H
  +--> ?PR?_READBUF_AT24C02?EEPROM

?PR?_HS_MEMCPY?DRIVER                      -----    -----      -----    -----      10B3H    0008H

?PR?_STRLEN?DRIVER                         -----    -----      -----    -----      1106H    0003H

?PR?SHOWCONFIRMSAVE?SYSSTRING              -----    -----      -----    -----      -----    -----
  +--> ?PR?LCDCLEAR?LCD12864
  +--> ?CO?SYSSTRING
  +--> ?PR?_DISPLAYSTRING?LCD12864

?PR?NAMESETCON?NAMELIST                    -----    -----      -----    -----      10B3H    000AH
  +--> ?PR?LCDCLEAR?LCD12864
  +--> ?CO?SYSSTRING
  +--> ?PR?_DISPLAYSTRING?LCD12864
  +--> ?CO?NAMELIST
  +--> ?PR?PRINTF?PRINTF

?PR?_SHOWNAME?NAMELIST                     0020H.0  0000H.1    -----    -----      10B3H    0053H
  +--> ?PR?LCDCLEAR?LCD12864
  +--> ?CO?SYSSTRING
  +--> ?PR?_DISPLAYSTRING?LCD12864
  +--> ?CO?NAMELIST
  +--> ?PR?PRINTF?PRINTF
  +--> ?PR?_STRLEN?DRIVER
  +--> ?PR?_SETFLASH?LCD12864

?PR?KEYSCAN?DRIVER                         -----    -----      -----    -----      1081H    0001H

?PR?_SYSKEY?SYSSTATUS                      -----    -----      -----    -----      1081H    0001H
  +--> ?PR?_SYSIDLEKEY?SYSSTATUS
  +--> ?PR?_SYSSETTINGKEY?SYSSTATUS
  +--> ?PR?_NAMESETKEY?NAMELIST
  +--> ?PR?_NAMEEDITKEY?NAMELIST
  +--> ?PR?_NAMEDELETEKEY?NAMELIST
  +--> ?PR?_NAMEDELALLKEY?NAMELIST
  +--> ?PR?_PSWSETKEY?UNLOCKPASSWORD
  +--> ?PR?_PSWEDITKEY?UNLOCKPASSWORD
  +--> ?PR?_PSWDELETEKEY?UNLOCKPASSWORD
  +--> ?PR?_PSWDELALLKEY?UNLOCKPASSWORD
  +--> ?PR?_PSWINPUTKEY?UNLOCKPASSWORD
  +--> ?PR?_SYSINPUTROOM?SYSSTATUS
  +--> ?PR?_INPUTSYSPSW?SYSSTATUS
  +--> ?PR?_SYSPSWEDITKEY?UNLOCKPASSWORD
  +--> ?PR?_SYSTALKKEY?SYSSTATUS
  +--> ?PR?_SYSSUBSETKEY?SYSSTATUS
  +--> ?PR?_CARDSETKEY?CARD
  +--> ?PR?_CARDEDITKEY?CARD
  +--> ?PR?_CARDDELETEKEY?CARD
  +--> ?PR?_CARDDELALLKEY?CARD
BL51 BANKED LINKER/LOCATER V6.22.2.0                                                  08/04/2022  09:41:28  PAGE 13



?PR?_SYSIDLEKEY?SYSSTATUS                  -----    -----      -----    -----      1082H    0001H
  +--> ?PR?SYSIDLECON?SYSSTATUS
  +--> ?PR?INPUTPSWCON?UNLOCKPASSWORD
  +--> ?PR?INPUTSYSPSWCON?SYSSTATUS
  +--> ?PR?_SHOWNAMEBYIDX?NAMELIST
  +--> ?PR?_READNAMEITEMBYIDX?NAMELIST
  +--> ?PR?_CALLBYNAMEITEM?NAMELIST
  +--> ?PR?_MP3_STARTPLAY?AUDIO
  +--> ?PR?SHOWERR?SYSSTRING
  +--> ?PR?_INPUTROOMCON?SYSSTATUS

?PR?INPUTPSWCON?UNLOCKPASSWORD             -----    -----      -----    -----      -----    -----
  +--> ?PR?_CLEARBUF?DRIVER
  +--> ?PR?_SHOWPSW?UNLOCKPASSWORD
  +--> ?PR?_MP3_STARTPLAY?AUDIO

?PR?_SHOWPSW?UNLOCKPASSWORD                0020H.0  0000H.1    -----    -----      1089H    001CH
  +--> ?PR?LCDCLEAR?LCD12864
  +--> ?CO?SYSSTRING
  +--> ?PR?_DISPLAYSTRING?LCD12864
  +--> ?CO?UNLOCKPASSWORD
  +--> ?PR?PRINTF?PRINTF
  +--> ?PR?_STRLEN?DRIVER
  +--> ?PR?_SETFLASH?LCD12864

?PR?INPUTSYSPSWCON?SYSSTATUS               -----    -----      -----    -----      -----    -----
  +--> ?PR?SHOWINPUTPSW?SYSSTATUS
  +--> ?PR?_MP3_STARTPLAY?AUDIO

?PR?SHOWINPUTPSW?SYSSTATUS                 -----    -----      -----    -----      1083H    001FH
  +--> ?PR?LCDCLEAR?LCD12864
  +--> ?CO?SYSSTRING
  +--> ?PR?_DISPLAYSTRING?LCD12864
  +--> ?CO?SYSSTATUS
  +--> ?PR?PRINTF?PRINTF
  +--> ?PR?_STRLEN?DRIVER
  +--> ?PR?_SETFLASH?LCD12864

?PR?_SHOWNAMEBYIDX?NAMELIST                -----    -----      -----    -----      1083H    002EH
  +--> ?PR?_READNAMEITEMBYIDX?NAMELIST
  +--> ?PR?_SHOWNAME?NAMELIST

?PR?_CALLBYNAMEITEM?NAMELIST               -----    -----      -----    -----      1083H    0017H
  +--> ?PR?LCDCLEAR?LCD12864
  +--> ?PR?_RELAYOPEN?DRIVER
  +--> ?PR?_STARTRING?AUDIO
  +--> ?PR?_STRLEN?DRIVER
  +--> ?CO?SYSSTRING
  +--> ?PR?_DISPLAYSTRING?LCD12864
  +--> ?CO?NAMELIST
  +--> ?PR?PRINTF?PRINTF

?PR?_RELAYOPEN?DRIVER                      -----    -----      -----    -----      109AH    0003H
  +--> ?PR?_SENDRELAY?DRIVER

?PR?_SENDRELAY?DRIVER                      -----    -----      -----    -----      109DH    000CH
BL51 BANKED LINKER/LOCATER V6.22.2.0                                                  08/04/2022  09:41:28  PAGE 14


  +--> ?PR?_UART3SENDBUF?UART

?PR?_UART3SENDBUF?UART                     -----    -----      -----    -----      10A9H    0003H
  +--> ?PR?_TX3_WRITE2BUFF?UART

?PR?_INPUTROOMCON?SYSSTATUS                -----    -----      -----    -----      -----    -----
  +--> ?PR?SHOWINPUTROOM?SYSSTATUS
  +--> ?PR?_CLEARBUF?DRIVER
  +--> ?PR?_MP3_STARTPLAY?AUDIO

?PR?SHOWINPUTROOM?SYSSTATUS                -----    -----      -----    -----      1083H    0018H
  +--> ?PR?LCDCLEAR?LCD12864
  +--> ?CO?SYSSTRING
  +--> ?PR?_DISPLAYSTRING?LCD12864
  +--> ?CO?SYSSTATUS
  +--> ?PR?PRINTF?PRINTF

?PR?_SYSSETTINGKEY?SYSSTATUS               -----    -----      -----    -----      1082H    0001H
  +--> ?PR?SYSIDLECON?SYSSTATUS
  +--> ?PR?EDITSYSPSWCON?UNLOCKPASSWORD
  +--> ?PR?NAMESETCON?NAMELIST
  +--> ?PR?PSWSETCON?UNLOCKPASSWORD
  +--> ?PR?CARDSETCON?CARD
  +--> ?PR?_SUBSETCON?SYSSTATUS

?PR?EDITSYSPSWCON?UNLOCKPASSWORD           -----    -----      -----    -----      -----    -----
  +--> ?PR?_CLEARBUF?DRIVER
  +--> ?PR?_SHOWPSW?UNLOCKPASSWORD

?PR?PSWSETCON?UNLOCKPASSWORD               -----    -----      -----    -----      1089H    000AH
  +--> ?PR?LCDCLEAR?LCD12864
  +--> ?CO?SYSSTRING
  +--> ?PR?_DISPLAYSTRING?LCD12864
  +--> ?CO?UNLOCKPASSWORD
  +--> ?PR?PRINTF?PRINTF

?PR?CARDSETCON?CARD                        -----    -----      -----    -----      1085H    000AH
  +--> ?PR?LCDCLEAR?LCD12864
  +--> ?CO?SYSSTRING
  +--> ?PR?_DISPLAYSTRING?LCD12864
  +--> ?CO?CARD
  +--> ?PR?PRINTF?PRINTF

?PR?_SUBSETCON?SYSSTATUS                   -----    -----      -----    -----      -----    -----
  +--> ?PR?SHOWSUBPARA?SYSSTATUS

?PR?SHOWSUBPARA?SYSSTATUS                  -----    -----      -----    -----      1083H    0018H
  +--> ?PR?LCDCLEAR?LCD12864
  +--> ?CO?SYSSTATUS
  +--> ?CO?SYSSTRING
  +--> ?PR?PRINTF?PRINTF
  +--> ?PR?_DISPLAYSTRING?LCD12864

?PR?_NAMESETKEY?NAMELIST                   -----    -----      -----    -----      -----    -----
  +--> ?PR?EDITNAMEITEMCON?NAMELIST
  +--> ?PR?DELETENAMECON?NAMELIST
  +--> ?PR?DELETEALLNAMECON?NAMELIST
BL51 BANKED LINKER/LOCATER V6.22.2.0                                                  08/04/2022  09:41:28  PAGE 15


  +--> ?PR?SYSSETTINGCON?SYSSTATUS

?PR?EDITNAMEITEMCON?NAMELIST               -----    -----      -----    -----      -----    -----
  +--> ?PR?_CLEARBUF?DRIVER
  +--> ?PR?_SHOWNAME?NAMELIST

?PR?DELETENAMECON?NAMELIST                 -----    -----      -----    -----      -----    -----
  +--> ?PR?_CLEARBUF?DRIVER
  +--> ?PR?_SHOWNAME?NAMELIST

?PR?DELETEALLNAMECON?NAMELIST              -----    -----      -----    -----      -----    -----
  +--> ?PR?LCDCLEAR?LCD12864
  +--> ?CO?SYSSTRING
  +--> ?PR?_DISPLAYSTRING?LCD12864

?PR?SYSSETTINGCON?SYSSTATUS                -----    -----      -----    -----      -----    -----
  +--> ?PR?LCDCLEAR?LCD12864
  +--> ?CO?SYSSTRING
  +--> ?PR?_DISPLAYSTRING?LCD12864
  +--> ?PR?_DISPLAYICO?LCD12864

?PR?_NAMEDELETEKEY?NAMELIST                -----    -----      -----    -----      1082H    0031H
  +--> ?PR?_CLEARBUF?DRIVER
  +--> ?PR?_DELNAMEITEMBYROOM?NAMELIST
  +--> ?PR?SHOWDELETEOK?SYSSTRING
  +--> ?PR?_GETNAMEITEMBYROOM?NAMELIST
  +--> ?PR?_HS_MEMCPY?DRIVER
  +--> ?PR?_STRLEN?DRIVER
  +--> ?PR?SHOWCONFIRMDEL?SYSSTRING
  +--> ?PR?NAMESETCON?NAMELIST
  +--> ?PR?_SHOWNAME?NAMELIST

?PR?_DELNAMEITEMBYROOM?NAMELIST            -----    -----      -----    -----      -----    -----
  +--> ?PR?_GETIDXBYROOM?SYSSTATUS
  +--> ?PR?_DELNAMEITEMBYIDX?NAMELIST

?PR?_DELNAMEITEMBYIDX?NAMELIST             -----    -----      -----    -----      10B3H    0030H
  +--> ?PR?SAVENAMECOUNT?NAMELIST
  +--> ?PR?_READNAMEITEMBYIDX?NAMELIST
  +--> ?PR?_WRITENAMEITEMBYIDX?NAMELIST

?PR?SHOWDELETEOK?SYSSTRING                 -----    -----      -----    -----      -----    -----
  +--> ?PR?LCDCLEAR?LCD12864
  +--> ?CO?SYSSTRING
  +--> ?PR?_DISPLAYSTRING?LCD12864
  +--> ?PR?_MP3_STARTPLAY?AUDIO

?PR?SHOWCONFIRMDEL?SYSSTRING               -----    -----      -----    -----      -----    -----
  +--> ?PR?LCDCLEAR?LCD12864
  +--> ?CO?SYSSTRING
  +--> ?PR?_DISPLAYSTRING?LCD12864

?PR?_NAMEDELALLKEY?NAMELIST                -----    -----      -----    -----      -----    -----
  +--> ?PR?CLEARNAMELIST?NAMELIST
  +--> ?PR?SHOWDELETEOK?SYSSTRING
  +--> ?PR?NAMESETCON?NAMELIST

BL51 BANKED LINKER/LOCATER V6.22.2.0                                                  08/04/2022  09:41:28  PAGE 16


?PR?_PSWSETKEY?UNLOCKPASSWORD              -----    -----      -----    -----      -----    -----
  +--> ?PR?EDITPSWCON?UNLOCKPASSWORD
  +--> ?PR?DELETEPSWCON?UNLOCKPASSWORD
  +--> ?PR?DELETEALLPSWCON?UNLOCKPASSWORD
  +--> ?PR?SYSSETTINGCON?SYSSTATUS

?PR?EDITPSWCON?UNLOCKPASSWORD              -----    -----      -----    -----      -----    -----
  +--> ?PR?_CLEARBUF?DRIVER
  +--> ?PR?_SHOWPSW?UNLOCKPASSWORD

?PR?DELETEPSWCON?UNLOCKPASSWORD            -----    -----      -----    -----      -----    -----
  +--> ?PR?_CLEARBUF?DRIVER
  +--> ?PR?_SHOWPSW?UNLOCKPASSWORD

?PR?DELETEALLPSWCON?UNLOCKPASSWORD         -----    -----      -----    -----      -----    -----
  +--> ?PR?LCDCLEAR?LCD12864
  +--> ?CO?SYSSTRING
  +--> ?PR?_DISPLAYSTRING?LCD12864

?PR?_PSWEDITKEY?UNLOCKPASSWORD             -----    -----      -----    -----      1082H    0007H
  +--> ?PR?_CLEARBUF?DRIVER
  +--> ?PR?_ADDPSWITEM?UNLOCKPASSWORD
  +--> ?PR?SHOWSAVEOK?SYSSTRING
  +--> ?PR?SHOWERR?SYSSTRING
  +--> ?PR?SHOWCONFIRMSAVE?SYSSTRING
  +--> ?PR?PSWSETCON?UNLOCKPASSWORD
  +--> ?PR?_SHOWPSW?UNLOCKPASSWORD

?PR?_ADDPSWITEM?UNLOCKPASSWORD             -----    -----      -----    -----      1089H    0005H
  +--> ?PR?_GETIDXBYROOM?SYSSTATUS
  +--> ?PR?_WRITEPSWBYIDX?UNLOCKPASSWORD
  +--> ?PR?SAVEPSWCOUNT?UNLOCKPASSWORD

?PR?_WRITEPSWBYIDX?UNLOCKPASSWORD          -----    -----      -----    -----      -----    -----
  +--> ?PR?_WRITEBUF_AT24C02?EEPROM

?PR?_PSWDELETEKEY?UNLOCKPASSWORD           -----    -----      -----    -----      1082H    0003H
  +--> ?PR?_CLEARBUF?DRIVER
  +--> ?PR?_DELPSWBYROOM?UNLOCKPASSWORD
  +--> ?PR?SHOWDELETEOK?SYSSTRING
  +--> ?PR?SHOWCONFIRMDEL?SYSSTRING
  +--> ?PR?PSWSETCON?UNLOCKPASSWORD
  +--> ?PR?_SHOWPSW?UNLOCKPASSWORD

?PR?_DELPSWBYROOM?UNLOCKPASSWORD           -----    -----      -----    -----      1085H    0002H
  +--> ?PR?_DELPSWBYIDX?UNLOCKPASSWORD
  +--> ?PR?_GETIDXBYROOM?SYSSTATUS

?PR?_DELPSWBYIDX?UNLOCKPASSWORD            -----    -----      -----    -----      1087H    0006H
  +--> ?PR?SAVEPSWCOUNT?UNLOCKPASSWORD
  +--> ?PR?_READPSWBYIDX?UNLOCKPASSWORD
  +--> ?PR?_WRITEPSWBYIDX?UNLOCKPASSWORD

?PR?_READPSWBYIDX?UNLOCKPASSWORD           -----    -----      -----    -----      -----    -----
  +--> ?PR?_READBUF_AT24C02?EEPROM

?PR?_PSWDELALLKEY?UNLOCKPASSWORD           -----    -----      -----    -----      -----    -----
BL51 BANKED LINKER/LOCATER V6.22.2.0                                                  08/04/2022  09:41:28  PAGE 17


  +--> ?PR?CLEARPSW?UNLOCKPASSWORD
  +--> ?PR?SHOWDELETEOK?SYSSTRING
  +--> ?PR?PSWSETCON?UNLOCKPASSWORD

?PR?_PSWINPUTKEY?UNLOCKPASSWORD            -----    -----      -----    -----      1082H    0001H
  +--> ?PR?SYSIDLECON?SYSSTATUS
  +--> ?PR?MP3_STOP?AUDIO
  +--> ?PR?_CHECKPSW?UNLOCKPASSWORD
  +--> ?PR?UNLOCK?DRIVER
  +--> ?PR?SHOWERR?SYSSTRING
  +--> ?PR?_MP3_STARTPLAY?AUDIO
  +--> ?PR?_SHOWPSW?UNLOCKPASSWORD

?PR?_CHECKPSW?UNLOCKPASSWORD               -----    -----      -----    -----      1083H    0008H
  +--> ?CO?UNLOCKPASSWORD
  +--> ?PR?PRINTF?PRINTF
  +--> ?PR?_READPSWBYIDX?UNLOCKPASSWORD

?PR?UNLOCK?DRIVER                          0020H.0  0000H.1    -----    -----      -----    -----
  +--> ?PR?SHOWUNLOCK?SYSSTRING

?PR?SHOWUNLOCK?SYSSTRING                   0020H.1  0000H.1    -----    -----      -----    -----
  +--> ?PR?LCDCLEAR?LCD12864
  +--> ?CO?SYSSTRING
  +--> ?PR?_DISPLAYSTRING?LCD12864
  +--> ?PR?_MP3_STARTPLAY?AUDIO

?PR?_SYSINPUTROOM?SYSSTATUS                -----    -----      -----    -----      1082H    0001H
  +--> ?PR?_GETNAMEITEMBYROOM?NAMELIST
  +--> ?PR?_CALLBYNAMEITEM?NAMELIST
  +--> ?PR?_MP3_STARTPLAY?AUDIO
  +--> ?PR?SHOWERR?SYSSTRING
  +--> ?PR?SHOWROOMERR?SYSSTRING
  +--> ?PR?SHOWINPUTROOM?SYSSTATUS
  +--> ?PR?MP3_STOP?AUDIO
  +--> ?PR?SYSIDLECON?SYSSTATUS

?PR?SHOWROOMERR?SYSSTRING                  -----    -----      -----    -----      -----    -----
  +--> ?PR?LCDCLEAR?LCD12864
  +--> ?CO?SYSSTRING
  +--> ?PR?_DISPLAYSTRING?LCD12864

?PR?_INPUTSYSPSW?SYSSTATUS                 -----    -----      -----    -----      1082H    0001H
  +--> ?PR?SYSSETTINGCON?SYSSTATUS
  +--> ?PR?SHOWERR?SYSSTRING
  +--> ?PR?_MP3_STARTPLAY?AUDIO
  +--> ?PR?SHOWINPUTPSW?SYSSTATUS
  +--> ?PR?MP3_STOP?AUDIO
  +--> ?PR?SYSIDLECON?SYSSTATUS

?PR?_SYSPSWEDITKEY?UNLOCKPASSWORD          -----    -----      -----    -----      1082H    0001H
  +--> ?PR?_CLEARBUF?DRIVER
  +--> ?PR?SAVESYSPSW?UNLOCKPASSWORD
  +--> ?PR?SHOWSAVEOK?SYSSTRING
  +--> ?PR?SHOWERR?SYSSTRING
  +--> ?PR?SHOWCONFIRMSAVE?SYSSTRING
  +--> ?PR?SYSSETTINGCON?SYSSTATUS
BL51 BANKED LINKER/LOCATER V6.22.2.0                                                  08/04/2022  09:41:28  PAGE 18


  +--> ?PR?_SHOWPSW?UNLOCKPASSWORD

?PR?SAVESYSPSW?UNLOCKPASSWORD              -----    -----      -----    -----      -----    -----
  +--> ?PR?_WRITEBUF_AT24C02?EEPROM

?PR?_SYSTALKKEY?SYSSTATUS                  -----    -----      -----    -----      -----    -----
  +--> ?PR?RELAYCLOASEALL?DRIVER
  +--> ?PR?SYSIDLECON?SYSSTATUS

?PR?_SYSSUBSETKEY?SYSSTATUS                -----    -----      -----    -----      1082H    0001H
  +--> ?PR?SHOWSUBPARA?SYSSTATUS
  +--> ?PR?_SAVESUBPARA?SYSSTATUS
  +--> ?PR?SYSSETTINGCON?SYSSTATUS

?PR?_SAVESUBPARA?SYSSTATUS                 -----    -----      -----    -----      1083H    0002H
  +--> ?PR?_WRITEBUF_AT24C02?EEPROM
  +--> ?PR?SHOWSAVEOK?SYSSTRING

?PR?_CARDSETKEY?CARD                       -----    -----      -----    -----      -----    -----
  +--> ?PR?EDITCARDCON?CARD
  +--> ?PR?DELETECARDCON?CARD
  +--> ?PR?DELETEALLCARDCON?CARD
  +--> ?PR?SYSSETTINGCON?SYSSTATUS

?PR?EDITCARDCON?CARD                       -----    -----      -----    -----      -----    -----
  +--> ?PR?_CLEARBUF?DRIVER
  +--> ?PR?_SHOWCARD?CARD

?PR?_SHOWCARD?CARD                         0020H.0  0000H.1    -----    -----      1087H    0043H
  +--> ?PR?LCDCLEAR?LCD12864
  +--> ?CO?CARD
  +--> ?CO?SYSSTRING
  +--> ?PR?PRINTF?PRINTF
  +--> ?PR?_DISPLAYSTRING?LCD12864
  +--> ?PR?_STRLEN?DRIVER
  +--> ?PR?_SETFLASH?LCD12864
  +--> ?PR?_MEMISEMPTY?DRIVER

?PR?_MEMISEMPTY?DRIVER                     -----    -----      -----    -----      10CAH    0003H

?PR?DELETECARDCON?CARD                     -----    -----      -----    -----      -----    -----
  +--> ?PR?_CLEARBUF?DRIVER
  +--> ?PR?_MEMISEMPTY?DRIVER
  +--> ?PR?_SHOWCARD?CARD

?PR?DELETEALLCARDCON?CARD                  -----    -----      -----    -----      -----    -----
  +--> ?PR?LCDCLEAR?LCD12864
  +--> ?CO?SYSSTRING
  +--> ?PR?_DISPLAYSTRING?LCD12864

?PR?_CARDEDITKEY?CARD                      -----    -----      -----    -----      1082H    0003H
  +--> ?PR?_CLEARBUF?DRIVER
  +--> ?PR?_MEMISEMPTY?DRIVER
  +--> ?PR?_ADDCARDITEM?CARD
  +--> ?PR?SHOWSAVEOK?SYSSTRING
  +--> ?PR?SHOWERR?SYSSTRING
  +--> ?PR?SHOWCONFIRMSAVE?SYSSTRING
BL51 BANKED LINKER/LOCATER V6.22.2.0                                                  08/04/2022  09:41:28  PAGE 19


  +--> ?PR?CARDSETCON?CARD
  +--> ?PR?_SHOWCARD?CARD

?PR?_ADDCARDITEM?CARD                      -----    -----      -----    -----      1085H    000BH
  +--> ?PR?_READCARDBYIDX?CARD
  +--> ?PR?_WRITECARDBYIDX?CARD
  +--> ?PR?SAVECARDCOUNT?CARD

?PR?_READCARDBYIDX?CARD                    -----    -----      -----    -----      1093H    0003H
  +--> ?PR?_READBUF_AT24C02?EEPROM

?PR?_WRITECARDBYIDX?CARD                   -----    -----      -----    -----      1090H    0003H
  +--> ?PR?_WRITEBUF_AT24C02?EEPROM

?PR?_CARDDELETEKEY?CARD                    -----    -----      -----    -----      1082H    0003H
  +--> ?PR?_CLEARBUF?DRIVER
  +--> ?PR?_MEMISEMPTY?DRIVER
  +--> ?PR?_DELCARDBYCARD?CARD
  +--> ?PR?_DELCARDBYROOM?CARD
  +--> ?PR?SHOWDELETEOK?SYSSTRING
  +--> ?PR?SHOWCONFIRMDEL?SYSSTRING
  +--> ?PR?CARDSETCON?CARD
  +--> ?PR?_SHOWCARD?CARD

?PR?_DELCARDBYCARD?CARD                    -----    -----      -----    -----      1085H    0003H
  +--> ?PR?_DELCARDBYIDX?CARD
  +--> ?PR?_CHECKCARD?CARD

?PR?_DELCARDBYIDX?CARD                     -----    -----      -----    -----      1088H    0008H
  +--> ?PR?SAVECARDCOUNT?CARD
  +--> ?PR?_READCARDBYIDX?CARD
  +--> ?PR?_WRITECARDBYIDX?CARD

?PR?_CHECKCARD?CARD                        -----    -----      -----    -----      1088H    000BH
  +--> ?PR?_READCARDBYIDX?CARD
  +--> ?CO?CARD
  +--> ?PR?PRINTF?PRINTF

?PR?_DELCARDBYROOM?CARD                    -----    -----      -----    -----      1085H    0002H
  +--> ?PR?_DELCARDBYIDX?CARD
  +--> ?PR?_GETIDXBYROOM?SYSSTATUS

?PR?_CARDDELALLKEY?CARD                    -----    -----      -----    -----      -----    -----
  +--> ?PR?CLEARCARD?CARD
  +--> ?PR?SHOWDELETEOK?SYSSTRING
  +--> ?PR?CARDSETCON?CARD

?PR?SKEYSCAN?DRIVER                        -----    -----      -----    -----      -----    -----
  +--> ?PR?UNLOCK?DRIVER
  +--> ?CO?DRIVER
  +--> ?PR?PRINTF?PRINTF
  +--> ?PR?INITSYSPARA?SYSSTATUS
  +--> ?PR?SHOWRESET?SYSSTRING

?PR?SHOWRESET?SYSSTRING                    -----    -----      -----    -----      -----    -----
  +--> ?PR?LCDCLEAR?LCD12864
  +--> ?CO?SYSSTRING
BL51 BANKED LINKER/LOCATER V6.22.2.0                                                  08/04/2022  09:41:28  PAGE 20


  +--> ?PR?_DISPLAYSTRING?LCD12864

?PR?WG_SEND26?CARDREAD                     -----    -----      -----    -----      1081H    000FH
  +--> ?CO?CARDREAD
  +--> ?PR?PRINTF?PRINTF

?PR?_SYSCARD?SYSSTATUS                     -----    -----      -----    -----      1081H    0003H
  +--> ?PR?_CARDEDITCARDIN?CARD
  +--> ?PR?_CHECKCARD?CARD
  +--> ?PR?UNLOCK?DRIVER
  +--> ?PR?SHOWCARDERR?SYSSTRING

?PR?_CARDEDITCARDIN?CARD                   -----    -----      -----    -----      1084H    0003H
  +--> ?PR?_HS_MEMCPY?DRIVER
  +--> ?PR?_SHOWCARD?CARD

?PR?SHOWCARDERR?SYSSTRING                  -----    -----      -----    -----      -----    -----
  +--> ?PR?LCDCLEAR?LCD12864
  +--> ?CO?SYSSTRING
  +--> ?PR?_DISPLAYSTRING?LCD12864
  +--> ?PR?_MP3_STARTPLAY?AUDIO

*** NEW ROOT ***************************************************

?PR?TIMER0_INT?TIMER                       -----    -----      -----    -----      -----    -----
  +--> ?PR?KEYBEEPTASK?AUDIO
  +--> ?PR?RINGTASK?AUDIO

*** NEW ROOT ***************************************************

?PR?TIMER4_INT?TIMER                       -----    -----      -----    -----      -----    -----
  +--> ?PR?PWMTASK?AUDIO

?PR?PWMTASK?AUDIO                          -----    -----      -----    -----      -----    -----
  +--> ?PR?MP3_STOP?AUDIO



SYMBOL TABLE OF MODULE:  .\Objects\FSK (?C_STARTUP)

  VALUE           TYPE          NAME
  ----------------------------------

  -------         MODULE        ?C_STARTUP
  C:60D0H         SEGMENT       ?C_C51STARTUP
  I:0024H         SEGMENT       ?STACK
  C:0000H         PUBLIC        ?C_STARTUP
  D:00E0H         SYMBOL        ACC
  D:00F0H         SYMBOL        B
  D:0083H         SYMBOL        DPH
  D:0082H         SYMBOL        DPL
  N:0000H         SYMBOL        IBPSTACK
  N:0100H         SYMBOL        IBPSTACKTOP
  N:0080H         SYMBOL        IDATALEN
  C:60D3H         SYMBOL        IDATALOOP
  N:0000H         SYMBOL        PBPSTACK
  N:0100H         SYMBOL        PBPSTACKTOP
BL51 BANKED LINKER/LOCATER V6.22.2.0                                                  08/04/2022  09:41:28  PAGE 21


  N:0000H         SYMBOL        PDATALEN
  N:0000H         SYMBOL        PDATASTART
  N:0000H         SYMBOL        PPAGE
  N:0000H         SYMBOL        PPAGEENABLE
  D:00A0H         SYMBOL        PPAGE_SFR
  D:0081H         SYMBOL        SP
  C:60D0H         SYMBOL        STARTUP1
  N:0000H         SYMBOL        XBPSTACK
  N:0000H         SYMBOL        XBPSTACKTOP
  N:0000H         SYMBOL        XDATALEN
  N:0000H         SYMBOL        XDATASTART
  C:0000H         LINE#         126
  C:60D0H         LINE#         133
  C:60D2H         LINE#         134
  C:60D3H         LINE#         135
  C:60D4H         LINE#         136
  C:60D6H         LINE#         185
  C:60D9H         LINE#         196
  -------         ENDMOD        ?C_STARTUP

  -------         MODULE        MAIN
  C:0000H         SYMBOL        _ICE_DUMMY_
  D:0080H         PUBLIC        P0
  D:0090H         PUBLIC        P1
  D:00A0H         PUBLIC        P2
  D:00B0H         PUBLIC        P3
  D:00C0H         PUBLIC        P4
  D:00C8H         PUBLIC        P5
  B:00A8H.7       PUBLIC        EA
  D:00E8H         PUBLIC        P6
  D:00F8H         PUBLIC        P7
  D:00A8H         PUBLIC        IE
  X:12C7H         PUBLIC        MainTime
  D:00B8H         PUBLIC        IP
  D:00D8H         PUBLIC        CCON
  C:3767H         PUBLIC        main
  X:12C9H         PUBLIC        Key
  X:12CBH         PUBLIC        MainShow
  B:00C0H.0       PUBLIC        P40
  D:0098H         PUBLIC        SCON
  B:00C0H.1       PUBLIC        P41
  D:0088H         PUBLIC        TCON
  D:00F0H         PUBLIC        B
  D:00E0H         PUBLIC        ACC
  D:00D0H         PUBLIC        PSW
  -------         PROC          MAIN
  C:3767H         LINE#         19
  C:3767H         LINE#         20
  C:3767H         LINE#         21
  C:376EH         LINE#         22
  C:3770H         LINE#         23
  C:3773H         LINE#         24
  C:3776H         LINE#         25
  C:3779H         LINE#         26
  C:377CH         LINE#         27
  C:377FH         LINE#         29
  C:3782H         LINE#         30
BL51 BANKED LINKER/LOCATER V6.22.2.0                                                  08/04/2022  09:41:28  PAGE 22


  C:3785H         LINE#         35
  C:378CH         LINE#         36
  C:378FH         LINE#         37
  C:3791H         LINE#         38
  C:3798H         LINE#         39
  C:379DH         LINE#         40
  C:37A0H         LINE#         41
  C:37A7H         LINE#         42
  C:37AAH         LINE#         43
  C:37ADH         LINE#         45
  C:37B0H         LINE#         51
  C:37B5H         LINE#         55
  C:37B5H         LINE#         56
  C:37B5H         LINE#         58
  C:37BBH         LINE#         59
  C:37BBH         LINE#         61
  C:37C4H         LINE#         62
  C:37C7H         LINE#         63
  C:37C7H         LINE#         65
  C:37CDH         LINE#         66
  C:37CDH         LINE#         67
  C:37E4H         LINE#         69
  C:37E7H         LINE#         70
  C:37E7H         LINE#         80
  C:37EAH         LINE#         91
  C:37F0H         LINE#         92
  C:37F0H         LINE#         93
  C:37F2H         LINE#         95
  C:37F5H         LINE#         96
  C:37F8H         LINE#         97
  C:37FBH         LINE#         98
  C:3815H         LINE#         99
  C:3815H         LINE#         100
  C:381CH         LINE#         101
  C:381FH         LINE#         102
  C:3821H         LINE#         103
  C:3824H         LINE#         104
  C:382EH         LINE#         105
  C:382EH         LINE#         106
  C:383CH         LINE#         107
  C:383CH         LINE#         108
  C:383FH         LINE#         109
  C:383FH         LINE#         110
  C:383FH         LINE#         111
  C:3846H         LINE#         112
  C:3846H         LINE#         113
  C:3854H         LINE#         114
  C:3854H         LINE#         115
  C:3857H         LINE#         116
  C:3859H         LINE#         117
  C:385FH         LINE#         118
  C:385FH         LINE#         119
  C:3862H         LINE#         120
  C:3862H         LINE#         121
  C:3862H         LINE#         122
  C:3869H         LINE#         123
  C:3869H         LINE#         124
BL51 BANKED LINKER/LOCATER V6.22.2.0                                                  08/04/2022  09:41:28  PAGE 23


  C:3877H         LINE#         125
  C:3877H         LINE#         129
  C:387AH         LINE#         130
  C:387AH         LINE#         131
  C:387AH         LINE#         133
  C:3880H         LINE#         134
  C:3888H         LINE#         135
  C:38B6H         LINE#         136
  C:38B6H         LINE#         137
  C:38CDH         LINE#         138
  C:38CDH         LINE#         140
  C:38CDH         LINE#         142
  C:38E2H         LINE#         143
  C:38E2H         LINE#         144
  C:38F0H         LINE#         145
  C:38F7H         LINE#         146
  C:38F7H         LINE#         147
  C:38FCH         LINE#         148
  C:38FCH         LINE#         149
  C:38FCH         LINE#         150
  C:3907H         LINE#         151
  C:3912H         LINE#         152
  C:3912H         LINE#         155
  C:3917H         LINE#         159
  C:3921H         LINE#         160
  C:3921H         LINE#         161
  C:3924H         LINE#         162
  C:3927H         LINE#         163
  C:3927H         LINE#         182
  C:392AH         LINE#         183
  C:392DH         LINE#         184
  C:3933H         LINE#         185
  C:3933H         LINE#         186
  C:3936H         LINE#         187
  C:3936H         LINE#         189
  C:393BH         LINE#         193
  C:3944H         LINE#         194
  C:3944H         LINE#         195
  C:3947H         LINE#         196
  C:3947H         LINE#         203
  -------         ENDPROC       MAIN
  -------         ENDMOD        MAIN

  -------         MODULE        DRIVER
  C:0000H         SYMBOL        _ICE_DUMMY_
  D:0080H         PUBLIC        P0
  D:0090H         PUBLIC        P1
  X:12ABH         PUBLIC        UnlockTime
  D:00A0H         PUBLIC        P2
  D:00B0H         PUBLIC        P3
  D:00C0H         PUBLIC        P4
  D:00C8H         PUBLIC        P5
  D:00E8H         PUBLIC        P6
  D:00F8H         PUBLIC        P7
  C:7188H         PUBLIC        _ClearBuf
  C:5371H         PUBLIC        GPIO_config
  C:6D0EH         PUBLIC        _HS_memcpy
BL51 BANKED LINKER/LOCATER V6.22.2.0                                                  08/04/2022  09:41:28  PAGE 24


  C:6748H         PUBLIC        _SendRelay
  D:00A8H         PUBLIC        IE
  X:12ACH         PUBLIC        RelayTime
  C:72FDH         PUBLIC        _delay
  C:6817H         PUBLIC        _RelayOpen
  C:76B4H         PUBLIC        RelayTask
  C:6A4BH         PUBLIC        UART_config
  D:00B8H         PUBLIC        IP
  C:7323H         PUBLIC        _strlen
  D:00D8H         PUBLIC        CCON
  C:4D8AH         PUBLIC        SkeyScan
  X:12ADH         PUBLIC        SkeyStatus
  C:4B4EH         PUBLIC        KeyScan
  B:00C0H.0       PUBLIC        P40
  D:0098H         PUBLIC        SCON
  D:0088H         PUBLIC        TCON
  B:00C0H.3       PUBLIC        P43
  B:00B0H.4       PUBLIC        P34
  B:00B0H.5       PUBLIC        P35
  B:00E8H.3       PUBLIC        P63
  B:00C8H.4       PUBLIC        P54
  B:00E8H.5       PUBLIC        P65
  B:00E8H.6       PUBLIC        P66
  B:00E8H.7       PUBLIC        P67
  D:00F0H         PUBLIC        B
  X:12AEH         PUBLIC        ResetKeyTime
  D:00E0H         PUBLIC        ACC
  X:12B0H         PUBLIC        SkeyStatusOld
  C:77C5H         PUBLIC        WDT_config
  X:12B1H         PUBLIC        CallOutTime
  C:509BH         PUBLIC        _lookforstr
  D:00D1H         PUBLIC        T4T3M
  C:6B4BH         PUBLIC        Timer_config
  C:795DH         PUBLIC        Unlock
  C:712CH         PUBLIC        _MemIsEmpty
  C:7A42H         PUBLIC        RelayCloaseAll
  C:771CH         PUBLIC        Exti_config
  D:00D0H         PUBLIC        PSW
  C:79DFH         PUBLIC        _putchar
  -------         PROC          WDT_CONFIG
  -------         DO            
  X:1081H         SYMBOL        WDT_InitStructure
  -------         ENDDO         
  C:77C5H         LINE#         17
  C:77C5H         LINE#         18
  C:77C5H         LINE#         21
  C:77CBH         LINE#         22
  C:77CEH         LINE#         23
  C:77D2H         LINE#         24
  -------         ENDPROC       WDT_CONFIG
  -------         PROC          _DELAY
  D:0006H         SYMBOL        t
  -------         DO            
  D:0004H         SYMBOL        i
  D:0002H         SYMBOL        j
  -------         ENDDO         
  C:72FDH         LINE#         27
BL51 BANKED LINKER/LOCATER V6.22.2.0                                                  08/04/2022  09:41:28  PAGE 25


  C:72FDH         LINE#         28
  C:72FDH         LINE#         30
  C:7304H         LINE#         31
  C:730DH         LINE#         32
  C:7322H         LINE#         33
  -------         ENDPROC       _DELAY
  -------         PROC          _PUTCHAR
  X:112EH         SYMBOL        ch
  C:79DFH         LINE#         35
  C:79E4H         LINE#         36
  C:79E4H         LINE#         37
  C:79E7H         LINE#         38
  C:79ECH         LINE#         39
  -------         ENDPROC       _PUTCHAR
  -------         PROC          _STRLEN
  X:1106H         SYMBOL        pch
  -------         DO            
  D:0007H         SYMBOL        len
  -------         ENDDO         
  C:7323H         LINE#         40
  C:732EH         LINE#         41
  C:732EH         LINE#         42
  C:7330H         LINE#         43
  C:7348H         LINE#         44
  C:7348H         LINE#         45
  -------         ENDPROC       _STRLEN
  -------         PROC          _LOOKFORSTR
  X:10B8H         SYMBOL        srcBuf
  X:10BBH         SYMBOL        detBuf
  -------         DO            
  X:10BEH         SYMBOL        i
  X:10C0H         SYMBOL        j
  -------         ENDDO         
  C:509BH         LINE#         94
  C:50A6H         LINE#         95
  C:50A6H         LINE#         97
  C:50ADH         LINE#         98
  C:50B1H         LINE#         99
  C:50D0H         LINE#         100
  C:50D0H         LINE#         101
  C:50E4H         LINE#         102
  C:50E4H         LINE#         103
  C:5105H         LINE#         104
  C:5105H         LINE#         105
  C:5146H         LINE#         106
  C:5146H         LINE#         107
  C:5146H         LINE#         108
  C:5146H         LINE#         109
  C:5156H         LINE#         110
  C:5171H         LINE#         111
  C:5171H         LINE#         112
  C:517AH         LINE#         113
  C:517AH         LINE#         114
  C:517AH         LINE#         115
  C:518BH         LINE#         116
  C:518EH         LINE#         117
  C:5192H         LINE#         118
BL51 BANKED LINKER/LOCATER V6.22.2.0                                                  08/04/2022  09:41:28  PAGE 26


  -------         ENDPROC       _LOOKFORSTR
  -------         PROC          _CLEARBUF
  X:1106H         SYMBOL        buf
  D:0004H         SYMBOL        len
  C:7188H         LINE#         120
  C:7193H         LINE#         121
  C:7193H         LINE#         122
  C:719DH         LINE#         123
  C:719DH         LINE#         124
  C:71B1H         LINE#         125
  C:71B3H         LINE#         126
  -------         ENDPROC       _CLEARBUF
  -------         PROC          _HS_MEMCPY
  X:10B3H         SYMBOL        dst
  X:10B6H         SYMBOL        src
  X:10B9H         SYMBOL        len
  C:6D0EH         LINE#         127
  C:6D19H         LINE#         128
  C:6D19H         LINE#         129
  C:6D27H         LINE#         130
  C:6D27H         LINE#         131
  C:6D4FH         LINE#         132
  C:6D51H         LINE#         133
  -------         ENDPROC       _HS_MEMCPY
  -------         PROC          _MEMISEMPTY
  X:10CAH         SYMBOL        buf
  D:0004H         SYMBOL        len
  C:712CH         LINE#         135
  C:7137H         LINE#         136
  C:7137H         LINE#         137
  C:7141H         LINE#         138
  C:7141H         LINE#         139
  C:7156H         LINE#         140
  C:7156H         LINE#         141
  C:7158H         LINE#         142
  C:7158H         LINE#         143
  C:7158H         LINE#         144
  C:7159H         LINE#         145
  -------         ENDPROC       _MEMISEMPTY
  -------         PROC          GPIO_CONFIG
  -------         DO            
  X:1081H         SYMBOL        GPIO_InitStructure
  -------         ENDDO         
  C:5371H         LINE#         147
  C:5371H         LINE#         148
  C:5371H         LINE#         150
  C:5377H         LINE#         151
  C:537CH         LINE#         152
  C:5387H         LINE#         153
  C:5392H         LINE#         157
  C:539DH         LINE#         159
  C:53A3H         LINE#         160
  C:53ADH         LINE#         162
  C:53B3H         LINE#         163
  C:53BEH         LINE#         165
  C:53C4H         LINE#         166
  C:53CFH         LINE#         168
BL51 BANKED LINKER/LOCATER V6.22.2.0                                                  08/04/2022  09:41:28  PAGE 27


  C:53D5H         LINE#         169
  C:53E0H         LINE#         171
  C:53E6H         LINE#         172
  C:53ECH         LINE#         175
  C:53F7H         LINE#         177
  C:53FDH         LINE#         178
  C:5408H         LINE#         180
  C:540EH         LINE#         181
  C:5419H         LINE#         183
  C:541FH         LINE#         184
  C:542AH         LINE#         186
  C:5430H         LINE#         187
  C:543BH         LINE#         191
  C:5441H         LINE#         192
  C:544CH         LINE#         196
  C:544EH         LINE#         197
  C:5450H         LINE#         198
  C:5452H         LINE#         200
  C:5454H         LINE#         202
  C:5456H         LINE#         204
  -------         ENDPROC       GPIO_CONFIG
  -------         PROC          UART_CONFIG
  -------         DO            
  X:1081H         SYMBOL        COMx_InitStructure
  -------         ENDDO         
  C:6A4BH         LINE#         207
  C:6A4BH         LINE#         208
  C:6A4BH         LINE#         210
  C:6A51H         LINE#         211
  C:6A55H         LINE#         212
  C:6A5DH         LINE#         213
  C:6A63H         LINE#         214
  C:6A66H         LINE#         215
  C:6A69H         LINE#         216
  C:6A6BH         LINE#         217
  C:6A6EH         LINE#         218
  C:6A79H         LINE#         219
  C:6A82H         LINE#         224
  C:6A88H         LINE#         225
  C:6A93H         LINE#         226
  C:6A98H         LINE#         227
  -------         ENDPROC       UART_CONFIG
  -------         PROC          TIMER_CONFIG
  -------         DO            
  X:1081H         SYMBOL        TIM_InitStructure
  -------         ENDDO         
  C:6B4BH         LINE#         240
  C:6B4BH         LINE#         241
  C:6B4BH         LINE#         243
  C:6B50H         LINE#         244
  C:6B52H         LINE#         245
  C:6B55H         LINE#         246
  C:6B58H         LINE#         247
  C:6B5AH         LINE#         248
  C:6B62H         LINE#         249
  C:6B66H         LINE#         251
  C:6B70H         LINE#         253
BL51 BANKED LINKER/LOCATER V6.22.2.0                                                  08/04/2022  09:41:28  PAGE 28


  C:6B7AH         LINE#         254
  C:6B85H         LINE#         256
  C:6B8FH         LINE#         257
  C:6B9AH         LINE#         258
  C:6B9DH         LINE#         260
  -------         ENDPROC       TIMER_CONFIG
  -------         PROC          EXTI_CONFIG
  -------         DO            
  X:1081H         SYMBOL        Exti_InitStructure
  -------         ENDDO         
  C:771CH         LINE#         262
  C:771CH         LINE#         263
  C:771CH         LINE#         266
  C:7722H         LINE#         267
  C:7727H         LINE#         268
  C:772BH         LINE#         269
  -------         ENDPROC       EXTI_CONFIG
  -------         PROC          KEYSCAN
  -------         DO            
  X:12A7H         SYMBOL        KeyStep
  X:12A8H         SYMBOL        KeyTime
  X:1081H         SYMBOL        key
  -------         ENDDO         
  C:4B4EH         LINE#         276
  C:4B4EH         LINE#         277
  C:4B4EH         LINE#         281
  C:4B6EH         LINE#         282
  C:4B6EH         LINE#         283
  C:4B6EH         LINE#         284
  C:4B71H         LINE#         285
  C:4B7CH         LINE#         286
  C:4B7CH         LINE#         287
  C:4B82H         LINE#         288
  C:4B88H         LINE#         289
  C:4B88H         LINE#         290
  C:4B8BH         LINE#         291
  C:4B8BH         LINE#         292
  C:4B93H         LINE#         293
  C:4B93H         LINE#         294
  C:4B94H         LINE#         295
  C:4B97H         LINE#         296
  C:4BA2H         LINE#         297
  C:4BA2H         LINE#         298
  C:4BA8H         LINE#         299
  C:4BA8H         LINE#         300
  C:4BABH         LINE#         301
  C:4BABH         LINE#         302
  C:4BB3H         LINE#         303
  C:4BB6H         LINE#         304
  C:4BBCH         LINE#         305
  C:4BBFH         LINE#         306
  C:4BBFH         LINE#         307
  C:4BC5H         LINE#         308
  C:4BC8H         LINE#         309
  C:4BCEH         LINE#         310
  C:4C09H         LINE#         311
  C:4C09H         LINE#         312
BL51 BANKED LINKER/LOCATER V6.22.2.0                                                  08/04/2022  09:41:28  PAGE 29


  C:4C09H         LINE#         313
  C:4C0CH         LINE#         314
  C:4C0CH         LINE#         315
  C:4C0FH         LINE#         316
  C:4C0FH         LINE#         317
  C:4C12H         LINE#         318
  C:4C12H         LINE#         319
  C:4C15H         LINE#         320
  C:4C15H         LINE#         321
  C:4C18H         LINE#         322
  C:4C18H         LINE#         323
  C:4C1BH         LINE#         324
  C:4C1BH         LINE#         325
  C:4C1EH         LINE#         326
  C:4C1EH         LINE#         327
  C:4C21H         LINE#         328
  C:4C21H         LINE#         329
  C:4C24H         LINE#         330
  C:4C24H         LINE#         331
  C:4C27H         LINE#         332
  C:4C27H         LINE#         333
  C:4C2AH         LINE#         334
  C:4C2AH         LINE#         335
  C:4C2DH         LINE#         336
  C:4C2DH         LINE#         337
  C:4C30H         LINE#         338
  C:4C30H         LINE#         339
  C:4C33H         LINE#         340
  C:4C33H         LINE#         341
  C:4C36H         LINE#         342
  C:4C36H         LINE#         343
  C:4C39H         LINE#         344
  C:4C39H         LINE#         345
  C:4C39H         LINE#         346
  C:4C39H         LINE#         347
  C:4C41H         LINE#         348
  C:4C41H         LINE#         349
  C:4C47H         LINE#         350
  C:4C4BH         LINE#         351
  C:4C4BH         LINE#         352
  C:4C4DH         LINE#         353
  C:4C4DH         LINE#         354
  C:4C55H         LINE#         355
  C:4C55H         LINE#         356
  C:4C5BH         LINE#         357
  C:4C5DH         LINE#         358
  C:4C65H         LINE#         359
  C:4C65H         LINE#         360
  C:4C69H         LINE#         361
  C:4C69H         LINE#         362
  C:4C69H         LINE#         364
  C:4C69H         LINE#         365
  C:4C6BH         LINE#         366
  -------         ENDPROC       KEYSCAN
  -------         PROC          SKEYSCAN
  -------         DO            
  X:12A9H         SYMBOL        SkeyStep
BL51 BANKED LINKER/LOCATER V6.22.2.0                                                  08/04/2022  09:41:28  PAGE 30


  X:12AAH         SYMBOL        SkeyTime
  D:0007H         SYMBOL        key
  -------         ENDDO         
  C:4D8AH         LINE#         371
  C:4D8AH         LINE#         372
  C:4D8AH         LINE#         376
  C:4D8AH         LINE#         377
  C:4D94H         LINE#         378
  C:4D94H         LINE#         379
  C:4D94H         LINE#         380
  C:4D9AH         LINE#         381
  C:4D9FH         LINE#         382
  C:4DA7H         LINE#         383
  C:4DAFH         LINE#         384
  C:4DB5H         LINE#         386
  C:4DBCH         LINE#         387
  C:4DBCH         LINE#         388
  C:4DC2H         LINE#         389
  C:4DC8H         LINE#         390
  C:4DC8H         LINE#         391
  C:4DCAH         LINE#         392
  C:4DCAH         LINE#         393
  C:4DD0H         LINE#         394
  C:4DD5H         LINE#         395
  C:4DDDH         LINE#         396
  C:4DE5H         LINE#         397
  C:4DEBH         LINE#         399
  C:4DF2H         LINE#         400
  C:4DF2H         LINE#         401
  C:4DF7H         LINE#         402
  C:4DF9H         LINE#         403
  C:4E01H         LINE#         404
  C:4E01H         LINE#         405
  C:4E05H         LINE#         406
  C:4E0AH         LINE#         407
  C:4E0AH         LINE#         408
  C:4E0AH         LINE#         410
  C:4E0AH         LINE#         411
  C:4E17H         LINE#         412
  C:4E17H         LINE#         414
  C:4E27H         LINE#         415
  C:4E27H         LINE#         416
  C:4E33H         LINE#         417
  C:4E3CH         LINE#         418
  C:4E3CH         LINE#         424
  C:4E4CH         LINE#         425
  C:4E4CH         LINE#         426
  C:4E54H         LINE#         427
  C:4E5DH         LINE#         428
  C:4E5DH         LINE#         429
  C:4E5DH         LINE#         430
  C:4E5DH         LINE#         432
  C:4E5DH         LINE#         433
  C:4E5DH         LINE#         434
  C:4E5DH         LINE#         436
  C:4E5DH         LINE#         437
  C:4E65H         LINE#         438
BL51 BANKED LINKER/LOCATER V6.22.2.0                                                  08/04/2022  09:41:28  PAGE 31


  C:4E65H         LINE#         439
  C:4E6CH         LINE#         440
  C:4E6CH         LINE#         441
  C:4E76H         LINE#         442
  C:4E76H         LINE#         443
  C:4E84H         LINE#         444
  C:4E84H         LINE#         445
  C:4E89H         LINE#         446
  C:4E8CH         LINE#         447
  C:4E95H         LINE#         448
  C:4E95H         LINE#         449
  C:4E95H         LINE#         450
  C:4E95H         LINE#         451
  -------         ENDPROC       SKEYSCAN
  -------         PROC          UNLOCK
  B:0020H.0       SYMBOL        sound
  C:795DH         LINE#         454
  C:795DH         LINE#         455
  C:795DH         LINE#         456
  C:7965H         LINE#         457
  C:7967H         LINE#         458
  -------         ENDPROC       UNLOCK
  -------         PROC          _SENDRELAY
  D:0006H         SYMBOL        idx
  D:0005H         SYMBOL        time
  -------         DO            
  X:109DH         SYMBOL        RelayCmd
  X:10A6H         SYMBOL        p
  D:0007H         SYMBOL        i
  -------         ENDDO         
  C:6748H         LINE#         473
  C:6748H         LINE#         474
  C:6748H         LINE#         476
  C:6756H         LINE#         478
  C:6760H         LINE#         479
  C:6764H         LINE#         480
  C:6768H         LINE#         481
  C:676EH         LINE#         482
  C:6771H         LINE#         483
  C:6778H         LINE#         484
  C:677AH         LINE#         485
  C:677AH         LINE#         486
  C:679BH         LINE#         487
  C:67A0H         LINE#         489
  -------         ENDPROC       _SENDRELAY
  -------         PROC          _RELAYOPEN
  X:109AH         SYMBOL        idx
  X:109CH         SYMBOL        time
  C:6817H         LINE#         493
  C:6824H         LINE#         494
  C:6824H         LINE#         495
  C:6827H         LINE#         496
  C:6827H         LINE#         498
  C:6827H         LINE#         499
  C:682CH         LINE#         500
  C:683CH         LINE#         501
  C:683CH         LINE#         502
BL51 BANKED LINKER/LOCATER V6.22.2.0                                                  08/04/2022  09:41:28  PAGE 32


  C:6842H         LINE#         504
  C:6842H         LINE#         505
  C:6850H         LINE#         506
  C:6858H         LINE#         507
  C:6869H         LINE#         508
  C:6872H         LINE#         509
  C:6872H         LINE#         510
  C:6875H         LINE#         511
  C:6876H         LINE#         513
  C:6876H         LINE#         514
  C:6879H         LINE#         515
  C:6879H         LINE#         529
  -------         ENDPROC       _RELAYOPEN
  -------         PROC          RELAYCLOASEALL
  C:7A42H         LINE#         530
  C:7A42H         LINE#         531
  C:7A42H         LINE#         532
  C:7A45H         LINE#         533
  C:7A48H         LINE#         537
  -------         ENDPROC       RELAYCLOASEALL
  -------         PROC          RELAYTASK
  C:76B4H         LINE#         539
  C:76B4H         LINE#         540
  C:76B4H         LINE#         542
  C:76BAH         LINE#         543
  C:76BAH         LINE#         544
  C:76BEH         LINE#         545
  C:76BEH         LINE#         546
  C:76C0H         LINE#         547
  C:76C0H         LINE#         548
  C:76C0H         LINE#         552
  C:76C6H         LINE#         553
  C:76C6H         LINE#         554
  C:76CAH         LINE#         555
  C:76CAH         LINE#         556
  C:76CDH         LINE#         557
  C:76CDH         LINE#         558
  C:76CDH         LINE#         560
  -------         ENDPROC       RELAYTASK
  -------         ENDMOD        DRIVER

  -------         MODULE        LCD12864
  C:0000H         SYMBOL        _ICE_DUMMY_
  C:75ECH         PUBLIC        LcdClear
  D:0080H         PUBLIC        P0
  D:0090H         PUBLIC        P1
  D:00A0H         PUBLIC        P2
  X:08A3H         PUBLIC        FlashTime
  D:00B0H         PUBLIC        P3
  D:00C0H         PUBLIC        P4
  D:00C8H         PUBLIC        P5
  C:0136H         PUBLIC        AsciiFont
  D:00E8H         PUBLIC        P6
  C:6FD7H         PUBLIC        FlashTask
  D:00F8H         PUBLIC        P7
  C:5A20H         PUBLIC        _DisplayFl
  D:00A8H         PUBLIC        IE
BL51 BANKED LINKER/LOCATER V6.22.2.0                                                  08/04/2022  09:41:28  PAGE 33


  C:797FH         PUBLIC        LCDAddRow
  D:00B8H         PUBLIC        IP
  C:7A31H         PUBLIC        _SetFlash
  C:63D2H         PUBLIC        _WriteLCDico
  B:0022H.4       PUBLIC        bRight2Left
  D:00D8H         PUBLIC        CCON
  C:7609H         PUBLIC        _CheckUnicode
  X:08A5H         PUBLIC        mapGDRAM
  D:0098H         PUBLIC        SCON
  D:0088H         PUBLIC        TCON
  C:00A6H         PUBLIC        IcoFont
  B:00C8H.2       PUBLIC        P52
  B:00C8H.3       PUBLIC        P53
  B:00C0H.4       PUBLIC        P44
  B:0022H.5       PUBLIC        flg
  D:00F0H         PUBLIC        B
  C:6D52H         PUBLIC        _lcd_wcmd
  C:5F22H         PUBLIC        _BitBlt
  C:6BAAH         PUBLIC        _lcd_wdat
  D:00E0H         PUBLIC        ACC
  X:0CA5H         SYMBOL        lcdCol
  C:77DBH         PUBLIC        _DisplayString
  C:7568H         PUBLIC        lcd_busy
  C:4651H         PUBLIC        _WriteLCD
  X:0CA6H         PUBLIC        Fl_X
  X:0CA7H         PUBLIC        Fl_Y
  X:0CA8H         SYMBOL        lcdRow
  C:7927H         PUBLIC        _DisplayIco
  C:0736H         PUBLIC        HebrewFont
  D:00D0H         PUBLIC        PSW
  C:709DH         PUBLIC        Init_12864
  -------         PROC          LCD_BUSY
  -------         DO            
  B:0020H.2       SYMBOL        result
  -------         ENDDO         
  C:7568H         LINE#         8
  C:7568H         LINE#         9
  C:7568H         LINE#         12
  C:756BH         LINE#         13
  C:756DH         LINE#         14
  C:756FH         LINE#         15
  C:7571H         LINE#         16
  C:7575H         LINE#         17
  C:7580H         LINE#         18
  C:7586H         LINE#         20
  C:7588H         LINE#         21
  -------         ENDPROC       LCD_BUSY
  -------         PROC          _LCD_WCMD
  X:110EH         SYMBOL        cmd
  -------         DO            
  D:0006H         SYMBOL        timeout
  -------         ENDDO         
  C:6D52H         LINE#         27
  C:6D57H         LINE#         28
  C:6D57H         LINE#         29
  C:6D5BH         LINE#         30
  C:6D6DH         LINE#         31
BL51 BANKED LINKER/LOCATER V6.22.2.0                                                  08/04/2022  09:41:28  PAGE 34


  C:6D71H         LINE#         32
  C:6D71H         LINE#         33
  C:6D76H         LINE#         34
  C:6D76H         LINE#         36
  C:6D78H         LINE#         37
  C:6D7AH         LINE#         38
  C:6D7CH         LINE#         39
  C:6D7DH         LINE#         40
  C:6D7EH         LINE#         41
  C:6D84H         LINE#         42
  C:6D88H         LINE#         43
  C:6D8CH         LINE#         44
  C:6D8EH         LINE#         45
  C:6D92H         LINE#         46
  C:6D94H         LINE#         47
  -------         ENDPROC       _LCD_WCMD
  -------         PROC          L?0066
  -------         ENDPROC       L?0066
  -------         PROC          _LCD_WDAT
  X:110EH         SYMBOL        dat
  -------         DO            
  D:0006H         SYMBOL        timeout
  -------         ENDDO         
  C:6BAAH         LINE#         54
  C:6BAFH         LINE#         55
  C:6BAFH         LINE#         56
  C:6BB3H         LINE#         57
  C:6BC5H         LINE#         58
  C:6BC9H         LINE#         59
  C:6BC9H         LINE#         60
  C:6BCEH         LINE#         61
  C:6BCEH         LINE#         63
  C:6BD0H         LINE#         64
  C:6BD2H         LINE#         65
  C:6BD4H         LINE#         66
  C:6BDAH         LINE#         67
  C:6BDEH         LINE#         68
  C:6BE2H         LINE#         69
  C:6BE4H         LINE#         70
  C:6BE8H         LINE#         71
  C:6BEAH         LINE#         72
  -------         ENDPROC       _LCD_WDAT
  -------         PROC          INIT_12864
  C:709DH         LINE#         73
  C:709DH         LINE#         74
  C:709DH         LINE#         75
  C:709FH         LINE#         77
  C:70A4H         LINE#         79
  C:70A8H         LINE#         80
  C:70ADH         LINE#         81
  C:70B1H         LINE#         82
  C:70B6H         LINE#         83
  C:70BAH         LINE#         84
  C:70BFH         LINE#         85
  C:70C3H         LINE#         86
  C:70C8H         LINE#         87
  C:70CCH         LINE#         88
BL51 BANKED LINKER/LOCATER V6.22.2.0                                                  08/04/2022  09:41:28  PAGE 35


  -------         ENDPROC       INIT_12864
  -------         PROC          LCDCLEAR
  C:75ECH         LINE#         90
  C:75ECH         LINE#         91
  C:75ECH         LINE#         92
  C:75F1H         LINE#         93
  C:75F5H         LINE#         95
  C:7602H         LINE#         97
  -------         ENDPROC       LCDCLEAR
  -------         PROC          _BITBLT
  X:1106H         SYMBOL        pBmp
  -------         DO            
  X:1109H         SYMBOL        i
  X:110AH         SYMBOL        j
  X:110BH         SYMBOL        pNextFrame
  -------         ENDDO         
  C:5F22H         LINE#         168
  C:5F2DH         LINE#         169
  C:5F2DH         LINE#         171
  C:5F3FH         LINE#         173
  C:5F44H         LINE#         174
  C:5F44H         LINE#         175
  C:5F49H         LINE#         176
  C:5F53H         LINE#         177
  C:5F58H         LINE#         178
  C:5F5DH         LINE#         179
  C:5F62H         LINE#         180
  C:5F62H         LINE#         181
  C:5F68H         LINE#         182
  C:5F72H         LINE#         184
  C:5F75H         LINE#         186
  C:5F81H         LINE#         187
  C:5F87H         LINE#         188
  C:5F87H         LINE#         189
  C:5F8DH         LINE#         190
  C:5F97H         LINE#         192
  C:5F9AH         LINE#         194
  C:5FA6H         LINE#         195
  C:5FB2H         LINE#         196
  -------         ENDPROC       _BITBLT
  -------         PROC          _DISPLAYFL
  X:1081H         SYMBOL        X
  X:1082H         SYMBOL        Y
  B:0020H.0       SYMBOL        e
  C:5A20H         LINE#         228
  C:5A28H         LINE#         229
  C:5A28H         LINE#         231
  C:5A2DH         LINE#         232
  C:5A4EH         LINE#         233
  C:5A6AH         LINE#         234
  C:5A6FH         LINE#         235
  C:5A77H         LINE#         236
  C:5A77H         LINE#         237
  C:5A9CH         LINE#         238
  C:5A9CH         LINE#         239
  -------         ENDPROC       _DISPLAYFL
  -------         PROC          _CHECKUNICODE
BL51 BANKED LINKER/LOCATER V6.22.2.0                                                  08/04/2022  09:41:28  PAGE 36


  D:0001H         SYMBOL        pInfo
  C:7609H         LINE#         246
  C:7609H         LINE#         247
  C:7609H         LINE#         248
  C:7613H         LINE#         249
  C:7613H         LINE#         250
  C:7619H         LINE#         251
  C:7619H         LINE#         252
  C:761BH         LINE#         253
  C:761BH         LINE#         254
  C:7622H         LINE#         255
  C:7624H         LINE#         256
  C:7625H         LINE#         257
  -------         ENDPROC       _CHECKUNICODE
  -------         PROC          LCDADDROW
  C:797FH         LINE#         258
  C:797FH         LINE#         259
  C:797FH         LINE#         260
  C:7985H         LINE#         261
  C:7989H         LINE#         262
  C:798EH         LINE#         263
  -------         ENDPROC       LCDADDROW
  -------         PROC          _WRITELCD
  X:1106H         SYMBOL        pInfo
  -------         DO            
  X:1109H         SYMBOL        x
  D:0007H         SYMBOL        y
  X:110AH         SYMBOL        c
  X:110BH         SYMBOL        Font
  D:0006H         SYMBOL        iUnicode
  -------         ENDDO         
  C:4651H         LINE#         264
  C:465CH         LINE#         265
  C:465CH         LINE#         272
  C:4661H         LINE#         274
  C:466FH         LINE#         276
  C:468AH         LINE#         277
  C:468AH         LINE#         279
  C:468FH         LINE#         281
  C:4695H         LINE#         282
  C:469BH         LINE#         288
  C:469EH         LINE#         289
  C:469EH         LINE#         291
  C:46ACH         LINE#         292
  C:46B6H         LINE#         293
  C:46B6H         LINE#         294
  C:46BCH         LINE#         295
  C:46CAH         LINE#         296
  C:46CCH         LINE#         298
  C:46CCH         LINE#         299
  C:46D6H         LINE#         303
  C:46D6H         LINE#         308
  C:46DAH         LINE#         309
  C:46DDH         LINE#         310
  C:46DDH         LINE#         311
  C:46F0H         LINE#         312
  C:4702H         LINE#         313
BL51 BANKED LINKER/LOCATER V6.22.2.0                                                  08/04/2022  09:41:28  PAGE 37


  C:4724H         LINE#         314
  C:4724H         LINE#         318
  C:4724H         LINE#         319
  C:4724H         LINE#         320
  C:4724H         LINE#         321
  C:472AH         LINE#         322
  C:4731H         LINE#         323
  C:4731H         LINE#         324
  C:4736H         LINE#         325
  C:473BH         LINE#         326
  C:473BH         LINE#         328
  C:473EH         LINE#         329
  C:4748H         LINE#         330
  C:4748H         LINE#         331
  C:474AH         LINE#         332
  C:474AH         LINE#         333
  C:478BH         LINE#         334
  C:4790H         LINE#         335
  C:479AH         LINE#         336
  C:479DH         LINE#         338
  -------         ENDPROC       _WRITELCD
  -------         PROC          _WRITELCDICO
  X:1084H         SYMBOL        Row
  X:1085H         SYMBOL        Col
  D:0003H         SYMBOL        ico
  X:1087H         SYMBOL        mask
  -------         DO            
  D:0007H         SYMBOL        y
  X:1088H         SYMBOL        Font
  -------         ENDDO         
  C:63D2H         LINE#         340
  C:63DAH         LINE#         341
  C:63DAH         LINE#         345
  C:63F3H         LINE#         346
  C:63F5H         LINE#         347
  C:63F5H         LINE#         348
  C:643CH         LINE#         349
  C:6441H         LINE#         350
  -------         ENDPROC       _WRITELCDICO
  -------         PROC          _DISPLAYSTRING
  D:0007H         SYMBOL        X
  D:0005H         SYMBOL        Y
  D:0001H         SYMBOL        ptr
  C:77DBH         LINE#         352
  C:77DBH         LINE#         353
  C:77DBH         LINE#         354
  C:77E0H         LINE#         355
  C:77E5H         LINE#         356
  C:77E8H         LINE#         357
  -------         ENDPROC       _DISPLAYSTRING
  -------         PROC          _DISPLAYICO
  D:0007H         SYMBOL        X
  D:0005H         SYMBOL        Y
  D:0003H         SYMBOL        ico
  C:7927H         LINE#         360
  C:7927H         LINE#         361
  C:7927H         LINE#         362
BL51 BANKED LINKER/LOCATER V6.22.2.0                                                  08/04/2022  09:41:28  PAGE 38


  C:7930H         LINE#         363
  -------         ENDPROC       _DISPLAYICO
  -------         PROC          _SETFLASH
  D:0007H         SYMBOL        X
  D:0005H         SYMBOL        Y
  C:7A31H         LINE#         388
  C:7A31H         LINE#         389
  C:7A31H         LINE#         390
  C:7A36H         LINE#         391
  C:7A39H         LINE#         392
  -------         ENDPROC       _SETFLASH
  -------         PROC          FLASHTASK
  C:6FD7H         LINE#         393
  C:6FD7H         LINE#         394
  C:6FD7H         LINE#         395
  C:6FE5H         LINE#         396
  C:6FE5H         LINE#         398
  C:6FE5H         LINE#         399
  C:6FF8H         LINE#         400
  C:6FF8H         LINE#         401
  C:6FFFH         LINE#         402
  C:7006H         LINE#         403
  C:7008H         LINE#         404
  C:7008H         LINE#         405
  -------         ENDPROC       FLASHTASK
  -------         ENDMOD        LCD12864

  -------         MODULE        NAMELIST
  C:0000H         SYMBOL        _ICE_DUMMY_
  D:0080H         PUBLIC        P0
  D:0090H         PUBLIC        P1
  D:00A0H         PUBLIC        P2
  B:0023H.0       SYMBOL        NameEditSaved
  D:00B0H         PUBLIC        P3
  D:00C0H         PUBLIC        P4
  D:00C8H         PUBLIC        P5
  C:312BH         PUBLIC        _NameDeleteKey
  D:00E8H         PUBLIC        P6
  D:00F8H         PUBLIC        P7
  C:0059H         PUBLIC        _WriteNameItemByIdx
  X:1260H         PUBLIC        EditChar
  C:796EH         PUBLIC        _DelNameItemByRoom
  C:7546H         PUBLIC        _ShowNameByIdx
  C:5459H         PUBLIC        NameEditChageType
  C:7A09H         PUBLIC        ClearNameList
  D:00A8H         PUBLIC        IE
  C:6442H         PUBLIC        _DelNameItemByIdx
  C:6BEBH         PUBLIC        _GetNameItemByRoom
  C:77F1H         PUBLIC        DeleteAllNameCon
  D:00B8H         PUBLIC        IP
  X:1261H         PUBLIC        EditTime
  X:1263H         PUBLIC        NameEditItem
  C:62E4H         PUBLIC        _AddNameItem
  C:74BAH         PUBLIC        SaveNameCount
  D:00D8H         PUBLIC        CCON
  C:3B1CH         PUBLIC        _ShowName
  X:1291H         SYMBOL        NameEditType
BL51 BANKED LINKER/LOCATER V6.22.2.0                                                  08/04/2022  09:41:28  PAGE 39


  X:1292H         SYMBOL        NameEditIdx
  D:0098H         PUBLIC        SCON
  D:0088H         PUBLIC        TCON
  C:15E7H         PUBLIC        _NameEditKey
  C:78DBH         PUBLIC        InitNameList
  C:0026H         PUBLIC        EditNameItemCon
  D:00F0H         PUBLIC        B
  C:57BCH         PUBLIC        HBtab
  D:00E0H         PUBLIC        ACC
  C:5193H         PUBLIC        _CallByNameItem
  C:64B1H         PUBLIC        NameSetCon
  C:7589H         PUBLIC        _NameSetKey
  C:7780H         PUBLIC        _NameDelAllKey
  C:19D2H         PUBLIC        _RevNamelist
  C:70CDH         PUBLIC        _ReadNameItemByIdx
  D:00D0H         PUBLIC        PSW
  C:7349H         PUBLIC        DeleteNameCon
  -------         PROC          SAVENAMECOUNT
  C:74BAH         LINE#         10
  C:74BAH         LINE#         11
  C:74BAH         LINE#         12
  -------         ENDPROC       SAVENAMECOUNT
  -------         PROC          CLEARNAMELIST
  C:7A09H         LINE#         15
  C:7A09H         LINE#         16
  C:7A09H         LINE#         17
  C:7A10H         LINE#         18
  -------         ENDPROC       CLEARNAMELIST
  -------         PROC          INITNAMELIST
  C:78DBH         LINE#         21
  C:78DBH         LINE#         22
  C:78DBH         LINE#         23
  C:78EAH         LINE#         24
  C:78EAH         LINE#         25
  C:78EDH         LINE#         26
  C:78EDH         LINE#         27
  -------         ENDPROC       INITNAMELIST
  -------         PROC          L?0222
  -------         ENDPROC       L?0222
  -------         PROC          _WRITENAMEITEMBYIDX
  D:0006H         SYMBOL        idx
  X:10E3H         SYMBOL        pItem
  -------         DO            
  D:0006H         SYMBOL        addr
  -------         ENDDO         
  C:0059H         LINE#         30
  C:0064H         LINE#         31
  C:0064H         LINE#         32
  C:0064H         LINE#         33
  C:006BH         LINE#         34
  -------         ENDPROC       _WRITENAMEITEMBYIDX
  -------         PROC          _READNAMEITEMBYIDX
  D:0006H         SYMBOL        idx
  X:10E3H         SYMBOL        pItem
  -------         DO            
  D:0006H         SYMBOL        addr
  -------         ENDDO         
BL51 BANKED LINKER/LOCATER V6.22.2.0                                                  08/04/2022  09:41:28  PAGE 40


  C:70CDH         LINE#         37
  C:70D8H         LINE#         38
  C:70D8H         LINE#         39
  C:70D8H         LINE#         40
  C:70DFH         LINE#         41
  -------         ENDPROC       _READNAMEITEMBYIDX
  -------         PROC          _GETNAMEITEMBYROOM
  D:0006H         SYMBOL        room
  X:10B3H         SYMBOL        pItem
  -------         DO            
  X:10B6H         SYMBOL        idx
  -------         ENDDO         
  C:6BEBH         LINE#         44
  C:6BF6H         LINE#         45
  C:6BF6H         LINE#         46
  C:6BFCH         LINE#         47
  C:6C09H         LINE#         48
  C:6C10H         LINE#         49
  C:6C10H         LINE#         50
  C:6C26H         LINE#         51
  C:6C2FH         LINE#         52
  C:6C2FH         LINE#         53
  C:6C33H         LINE#         54
  -------         ENDPROC       _GETNAMEITEMBYROOM
  -------         PROC          _ADDNAMEITEM
  X:10B8H         SYMBOL        pItem
  -------         DO            
  X:10BBH         SYMBOL        idx
  -------         ENDDO         
  C:62E4H         LINE#         55
  C:62EFH         LINE#         56
  C:62EFH         LINE#         57
  C:62F5H         LINE#         58
  C:6308H         LINE#         59
  C:630FH         LINE#         60
  C:630FH         LINE#         61
  C:631AH         LINE#         62
  C:6323H         LINE#         63
  C:6323H         LINE#         64
  C:6333H         LINE#         65
  C:6333H         LINE#         66
  C:6336H         LINE#         67
  C:6344H         LINE#         68
  C:6347H         LINE#         69
  C:6356H         LINE#         70
  C:6356H         LINE#         71
  C:635AH         LINE#         72
  -------         ENDPROC       _ADDNAMEITEM
  -------         PROC          _DELNAMEITEMBYIDX
  X:10B3H         SYMBOL        idx
  -------         DO            
  X:10B5H         SYMBOL        tmpItem
  -------         ENDDO         
  C:6442H         LINE#         73
  C:644AH         LINE#         74
  C:644AH         LINE#         76
  C:6458H         LINE#         77
BL51 BANKED LINKER/LOCATER V6.22.2.0                                                  08/04/2022  09:41:28  PAGE 41


  C:6458H         LINE#         78
  C:646CH         LINE#         79
  C:646CH         LINE#         80
  C:647AH         LINE#         81
  C:647DH         LINE#         82
  C:647DH         LINE#         84
  C:647DH         LINE#         85
  C:648BH         LINE#         86
  C:648EH         LINE#         87
  C:649FH         LINE#         88
  C:64B0H         LINE#         89
  C:64B0H         LINE#         90
  C:64B0H         LINE#         91
  -------         ENDPROC       _DELNAMEITEMBYIDX
  -------         PROC          _DELNAMEITEMBYROOM
  D:0006H         SYMBOL        room
  -------         DO            
  D:0006H         SYMBOL        idx
  -------         ENDDO         
  C:796EH         LINE#         92
  C:796EH         LINE#         93
  C:796EH         LINE#         94
  C:7973H         LINE#         95
  C:797BH         LINE#         96
  C:797BH         LINE#         97
  C:797EH         LINE#         98
  C:797EH         LINE#         99
  -------         ENDPROC       _DELNAMEITEMBYROOM
  -------         PROC          _SHOWNAME
  X:10B3H         SYMBOL        pItem
  B:0020H.0       SYMBOL        tel
  -------         DO            
  X:10B6H         SYMBOL        Disbuf
  -------         ENDDO         
  C:3B1CH         LINE#         107
  C:3B27H         LINE#         108
  C:3B27H         LINE#         115
  C:3B2AH         LINE#         116
  C:3B41H         LINE#         117
  C:3B41H         LINE#         119
  C:3B4DH         LINE#         124
  C:3B88H         LINE#         125
  C:3B94H         LINE#         128
  C:3BA8H         LINE#         129
  C:3BA8H         LINE#         133
  C:3BAEH         LINE#         135
  C:3BAEH         LINE#         136
  C:3BB0H         LINE#         138
  C:3BB0H         LINE#         139
  C:3BBCH         LINE#         140
  C:3BCFH         LINE#         141
  C:3BCFH         LINE#         145
  C:3BDFH         LINE#         147
  C:3BDFH         LINE#         148
  C:3BDFH         LINE#         150
  C:3C1DH         LINE#         151
  C:3C2AH         LINE#         152
BL51 BANKED LINKER/LOCATER V6.22.2.0                                                  08/04/2022  09:41:28  PAGE 42


  C:3C3EH         LINE#         153
  C:3C3EH         LINE#         166
  C:3C4EH         LINE#         168
  C:3C4EH         LINE#         169
  C:3C54H         LINE#         170
  C:3C54H         LINE#         171
  C:3C6BH         LINE#         172
  C:3C6BH         LINE#         182
  C:3C94H         LINE#         183
  C:3CA1H         LINE#         184
  C:3CB7H         LINE#         185
  C:3CB7H         LINE#         186
  C:3CB7H         LINE#         187
  C:3CB7H         LINE#         189
  C:3CB9H         LINE#         191
  C:3CB9H         LINE#         192
  C:3CC6H         LINE#         193
  C:3CDAH         LINE#         194
  C:3CDAH         LINE#         198
  C:3CEAH         LINE#         200
  C:3CEAH         LINE#         201
  C:3CEAH         LINE#         202
  C:3CEAH         LINE#         203
  -------         ENDPROC       _SHOWNAME
  -------         PROC          EDITNAMEITEMCON
  C:0026H         LINE#         205
  C:0026H         LINE#         206
  C:0026H         LINE#         207
  C:0033H         LINE#         208
  C:0038H         LINE#         209
  C:003AH         LINE#         210
  C:0040H         LINE#         211
  -------         ENDPROC       EDITNAMEITEMCON
  -------         PROC          NAMEEDITCHAGETYPE
  -------         DO            
  X:1083H         SYMBOL        tmp
  X:1085H         SYMBOL        tmpItem
  -------         ENDDO         
  C:5459H         LINE#         213
  C:5459H         LINE#         214
  C:5459H         LINE#         217
  C:5473H         LINE#         218
  C:5473H         LINE#         219
  C:5473H         LINE#         220
  C:5478H         LINE#         221
  C:547AH         LINE#         222
  C:5487H         LINE#         223
  C:549AH         LINE#         224
  C:549AH         LINE#         225
  C:54A0H         LINE#         226
  C:54AFH         LINE#         227
  C:54B1H         LINE#         228
  C:54B1H         LINE#         229
  C:54B1H         LINE#         230
  C:54C1H         LINE#         231
  C:54D2H         LINE#         232
  C:54D2H         LINE#         233
BL51 BANKED LINKER/LOCATER V6.22.2.0                                                  08/04/2022  09:41:28  PAGE 43


  C:54F0H         LINE#         234
  C:54F0H         LINE#         235
  C:54FEH         LINE#         236
  C:54FFH         LINE#         237
  C:54FFH         LINE#         238
  C:5504H         LINE#         239
  C:5511H         LINE#         240
  C:5521H         LINE#         241
  C:5521H         LINE#         242
  C:5527H         LINE#         243
  C:5536H         LINE#         244
  C:5538H         LINE#         245
  C:5538H         LINE#         246
  C:5538H         LINE#         247
  C:553BH         LINE#         248
  C:553DH         LINE#         249
  C:553DH         LINE#         250
  C:553DH         LINE#         251
  -------         ENDPROC       NAMEEDITCHAGETYPE
  -------         PROC          _NAMEEDITKEY
  X:1082H         SYMBOL        key
  -------         DO            
  X:125FH         SYMBOL        OldKey
  D:0005H         SYMBOL        HBtmp
  -------         ENDDO         
  C:15E7H         LINE#         254
  C:15ECH         LINE#         255
  C:15ECH         LINE#         261
  C:15F3H         LINE#         262
  C:15F3H         LINE#         263
  C:15FBH         LINE#         264
  C:15FBH         LINE#         265
  C:15FEH         LINE#         266
  C:15FEH         LINE#         267
  C:160AH         LINE#         268
  C:160FH         LINE#         269
  C:1611H         LINE#         271
  C:1611H         LINE#         272
  C:162FH         LINE#         275
  C:162FH         LINE#         276
  C:1640H         LINE#         277
  C:1640H         LINE#         278
  C:1643H         LINE#         279
  C:1645H         LINE#         281
  C:1645H         LINE#         282
  C:1648H         LINE#         283
  C:1648H         LINE#         284
  C:1655H         LINE#         285
  C:1657H         LINE#         287
  C:1657H         LINE#         288
  C:165AH         LINE#         289
  C:165AH         LINE#         290
  C:165DH         LINE#         292
  C:165DH         LINE#         293
  C:165DH         LINE#         294
  C:1663H         LINE#         295
  C:1667H         LINE#         296
BL51 BANKED LINKER/LOCATER V6.22.2.0                                                  08/04/2022  09:41:28  PAGE 44


  C:166AH         LINE#         297
  C:166FH         LINE#         298
  C:1673H         LINE#         299
  C:167EH         LINE#         300
  C:167FH         LINE#         302
  C:167FH         LINE#         303
  C:167FH         LINE#         304
  C:1686H         LINE#         305
  C:1686H         LINE#         306
  C:168FH         LINE#         307
  C:168FH         LINE#         308
  C:1692H         LINE#         309
  C:1694H         LINE#         311
  C:1694H         LINE#         312
  C:1699H         LINE#         313
  C:1699H         LINE#         314
  C:1699H         LINE#         315
  C:1699H         LINE#         316
  C:1699H         LINE#         317
  C:169BH         LINE#         318
  C:16A2H         LINE#         319
  C:16A2H         LINE#         320
  C:16ABH         LINE#         321
  C:16ABH         LINE#         322
  C:16AEH         LINE#         323
  C:16B0H         LINE#         325
  C:16B0H         LINE#         326
  C:16B6H         LINE#         327
  C:16B6H         LINE#         328
  C:16B9H         LINE#         329
  C:16B9H         LINE#         330
  C:16B9H         LINE#         331
  C:16BCH         LINE#         332
  C:16C7H         LINE#         333
  C:16C7H         LINE#         334
  C:16E1H         LINE#         335
  C:16E1H         LINE#         336
  C:16E1H         LINE#         337
  C:16EAH         LINE#         338
  C:16EAH         LINE#         339
  C:16EDH         LINE#         340
  C:16FFH         LINE#         341
  C:1702H         LINE#         343
  C:1702H         LINE#         344
  C:1705H         LINE#         346
  C:1705H         LINE#         347
  C:1705H         LINE#         348
  C:1705H         LINE#         349
  C:1720H         LINE#         350
  C:1720H         LINE#         351
  C:1726H         LINE#         352
  C:1726H         LINE#         353
  C:1735H         LINE#         354
  C:173BH         LINE#         355
  C:174CH         LINE#         356
  C:174CH         LINE#         357
  C:1758H         LINE#         358
BL51 BANKED LINKER/LOCATER V6.22.2.0                                                  08/04/2022  09:41:28  PAGE 45


  C:175EH         LINE#         359
  C:175EH         LINE#         360
  C:1760H         LINE#         362
  C:1760H         LINE#         363
  C:1765H         LINE#         364
  C:1768H         LINE#         365
  C:1768H         LINE#         366
  C:1768H         LINE#         367
  C:1778H         LINE#         368
  C:1784H         LINE#         369
  C:1786H         LINE#         370
  C:1786H         LINE#         371
  C:178FH         LINE#         372
  C:178FH         LINE#         373
  C:1792H         LINE#         374
  C:17A9H         LINE#         375
  C:17ABH         LINE#         377
  C:17ABH         LINE#         378
  C:17B0H         LINE#         379
  C:17B0H         LINE#         380
  C:17B0H         LINE#         381
  C:17B2H         LINE#         382
  C:17B2H         LINE#         383
  C:17B7H         LINE#         384
  C:17BAH         LINE#         385
  C:17BAH         LINE#         386
  C:17BAH         LINE#         387
  C:17BAH         LINE#         388
  C:17BAH         LINE#         389
  C:17BCH         LINE#         390
  C:17C3H         LINE#         391
  C:17C3H         LINE#         392
  C:17C6H         LINE#         394
  C:17C6H         LINE#         395
  C:17E3H         LINE#         396
  C:17E3H         LINE#         397
  C:17E8H         LINE#         398
  C:17E8H         LINE#         399
  C:17EEH         LINE#         400
  C:17EEH         LINE#         401
  C:17F4H         LINE#         402
  C:17F9H         LINE#         403
  C:17FDH         LINE#         404
  C:17FDH         LINE#         405
  C:1813H         LINE#         406
  C:1813H         LINE#         407
  C:1827H         LINE#         408
  C:1827H         LINE#         409
  C:1827H         LINE#         410
  C:1830H         LINE#         411
  C:1830H         LINE#         412
  C:1847H         LINE#         413
  C:1859H         LINE#         414
  C:185FH         LINE#         415
  C:185FH         LINE#         416
  C:186CH         LINE#         417
  C:186CH         LINE#         418
BL51 BANKED LINKER/LOCATER V6.22.2.0                                                  08/04/2022  09:41:28  PAGE 46


  C:186CH         LINE#         419
  C:186CH         LINE#         420
  C:186FH         LINE#         421
  C:186FH         LINE#         524
  C:188BH         LINE#         525
  C:188BH         LINE#         526
  C:1890H         LINE#         527
  C:1890H         LINE#         528
  C:1896H         LINE#         529
  C:1896H         LINE#         530
  C:189CH         LINE#         531
  C:18A1H         LINE#         532
  C:18A1H         LINE#         533
  C:18A8H         LINE#         534
  C:18A8H         LINE#         535
  C:18C0H         LINE#         536
  C:18C3H         LINE#         543
  C:18C3H         LINE#         544
  C:18D3H         LINE#         545
  C:18D8H         LINE#         546
  C:18DDH         LINE#         547
  C:18DDH         LINE#         548
  C:18E3H         LINE#         549
  C:18ECH         LINE#         550
  C:18F5H         LINE#         551
  C:190AH         LINE#         552
  C:190EH         LINE#         553
  C:1920H         LINE#         556
  C:1925H         LINE#         557
  C:1935H         LINE#         558
  C:1937H         LINE#         560
  C:1937H         LINE#         561
  C:1960H         LINE#         562
  C:1960H         LINE#         563
  C:1960H         LINE#         564
  C:1966H         LINE#         565
  C:196EH         LINE#         566
  C:1976H         LINE#         569
  C:1978H         LINE#         570
  C:1978H         LINE#         571
  C:1981H         LINE#         572
  C:1981H         LINE#         573
  C:1998H         LINE#         574
  C:19AAH         LINE#         575
  C:19B0H         LINE#         576
  C:19B0H         LINE#         577
  C:19BAH         LINE#         578
  C:19BAH         LINE#         579
  C:19BEH         LINE#         580
  C:19BEH         LINE#         581
  C:19BEH         LINE#         582
  C:19BEH         LINE#         583
  C:19BEH         LINE#         585
  C:19C6H         LINE#         586
  C:19D1H         LINE#         587
  -------         ENDPROC       _NAMEEDITKEY
  -------         PROC          DELETENAMECON
BL51 BANKED LINKER/LOCATER V6.22.2.0                                                  08/04/2022  09:41:28  PAGE 47


  C:7349H         LINE#         589
  C:7349H         LINE#         590
  C:7349H         LINE#         591
  C:7356H         LINE#         592
  C:735BH         LINE#         593
  C:735DH         LINE#         594
  C:7363H         LINE#         595
  -------         ENDPROC       DELETENAMECON
  -------         PROC          _NAMEDELETEKEY
  X:1082H         SYMBOL        key
  -------         DO            
  X:1083H         SYMBOL        tmp
  X:1085H         SYMBOL        tmpItem
  -------         ENDDO         
  C:312BH         LINE#         598
  C:3130H         LINE#         599
  C:3130H         LINE#         602
  C:3137H         LINE#         603
  C:3137H         LINE#         604
  C:313FH         LINE#         605
  C:313FH         LINE#         606
  C:3142H         LINE#         607
  C:3142H         LINE#         608
  C:314EH         LINE#         609
  C:3153H         LINE#         610
  C:3155H         LINE#         612
  C:3155H         LINE#         613
  C:3160H         LINE#         614
  C:3162H         LINE#         615
  C:3165H         LINE#         617
  C:3165H         LINE#         618
  C:3165H         LINE#         619
  C:316BH         LINE#         620
  C:3174H         LINE#         621
  C:3184H         LINE#         622
  C:3184H         LINE#         623
  C:3184H         LINE#         624
  C:3189H         LINE#         625
  C:3196H         LINE#         626
  C:31A6H         LINE#         627
  C:31A6H         LINE#         628
  C:31ACH         LINE#         629
  C:31BBH         LINE#         630
  C:31BDH         LINE#         631
  C:31BDH         LINE#         632
  C:31BDH         LINE#         633
  C:31D6H         LINE#         634
  C:31D6H         LINE#         635
  C:31F4H         LINE#         636
  C:31F4H         LINE#         637
  C:3202H         LINE#         638
  C:3205H         LINE#         639
  C:3205H         LINE#         640
  C:3208H         LINE#         641
  C:320BH         LINE#         643
  C:320BH         LINE#         644
  C:320BH         LINE#         645
BL51 BANKED LINKER/LOCATER V6.22.2.0                                                  08/04/2022  09:41:28  PAGE 48


  C:320BH         LINE#         646
  C:320EH         LINE#         647
  C:3219H         LINE#         648
  C:3219H         LINE#         649
  C:322AH         LINE#         650
  C:322AH         LINE#         651
  C:322AH         LINE#         652
  C:3233H         LINE#         653
  C:3233H         LINE#         654
  C:3236H         LINE#         655
  C:324DH         LINE#         656
  C:3250H         LINE#         658
  C:3250H         LINE#         659
  C:3253H         LINE#         661
  C:3253H         LINE#         662
  C:3253H         LINE#         663
  C:3253H         LINE#         664
  C:3258H         LINE#         665
  C:325AH         LINE#         666
  C:325EH         LINE#         667
  C:326BH         LINE#         668
  C:327BH         LINE#         669
  C:327BH         LINE#         670
  C:3281H         LINE#         671
  C:3290H         LINE#         672
  C:3292H         LINE#         673
  C:3292H         LINE#         674
  C:3292H         LINE#         675
  C:3297H         LINE#         676
  C:329BH         LINE#         677
  C:32AAH         LINE#         678
  C:32AFH         LINE#         679
  C:32BFH         LINE#         680
  C:32BFH         LINE#         681
  C:32C5H         LINE#         682
  C:32D4H         LINE#         683
  C:32D6H         LINE#         684
  C:32D6H         LINE#         685
  C:32D6H         LINE#         686
  C:32DBH         LINE#         687
  C:32DFH         LINE#         688
  C:32E1H         LINE#         689
  C:32E8H         LINE#         690
  C:32E8H         LINE#         691
  C:32EBH         LINE#         693
  C:32EBH         LINE#         694
  C:3301H         LINE#         695
  C:3301H         LINE#         696
  C:3308H         LINE#         697
  C:3308H         LINE#         698
  C:331FH         LINE#         699
  C:3331H         LINE#         700
  C:3337H         LINE#         701
  C:3337H         LINE#         702
  C:3341H         LINE#         703
  C:3341H         LINE#         704
  C:3345H         LINE#         705
BL51 BANKED LINKER/LOCATER V6.22.2.0                                                  08/04/2022  09:41:28  PAGE 49


  C:3345H         LINE#         706
  C:3345H         LINE#         707
  C:3350H         LINE#         708
  -------         ENDPROC       _NAMEDELETEKEY
  -------         PROC          DELETEALLNAMECON
  C:77F1H         LINE#         710
  C:77F1H         LINE#         711
  C:77F1H         LINE#         712
  C:77F7H         LINE#         713
  C:77FAH         LINE#         714
  -------         ENDPROC       DELETEALLNAMECON
  -------         PROC          _NAMEDELALLKEY
  D:0007H         SYMBOL        key
  C:7780H         LINE#         716
  C:7780H         LINE#         717
  C:7780H         LINE#         718
  C:778DH         LINE#         719
  C:778DH         LINE#         720
  C:778DH         LINE#         721
  C:7790H         LINE#         722
  C:7793H         LINE#         723
  C:7793H         LINE#         724
  C:7793H         LINE#         725
  C:7793H         LINE#         726
  C:7796H         LINE#         727
  C:7796H         LINE#         728
  C:7796H         LINE#         729
  -------         ENDPROC       _NAMEDELALLKEY
  -------         PROC          NAMESETCON
  -------         DO            
  X:10B3H         SYMBOL        Disbuf
  -------         ENDDO         
  C:64B1H         LINE#         731
  C:64B1H         LINE#         732
  C:64B1H         LINE#         734
  C:64B7H         LINE#         735
  C:64BAH         LINE#         736
  C:64C6H         LINE#         737
  C:64D3H         LINE#         738
  C:64E0H         LINE#         739
  C:64EDH         LINE#         740
  C:6513H         LINE#         744
  -------         ENDPROC       NAMESETCON
  -------         PROC          _NAMESETKEY
  D:0007H         SYMBOL        key
  C:7589H         LINE#         748
  C:7589H         LINE#         749
  C:7589H         LINE#         750
  C:759DH         LINE#         751
  C:759DH         LINE#         752
  C:759DH         LINE#         753
  C:75A0H         LINE#         754
  C:75A0H         LINE#         755
  C:75A0H         LINE#         756
  C:75A3H         LINE#         757
  C:75A3H         LINE#         758
  C:75A3H         LINE#         759
BL51 BANKED LINKER/LOCATER V6.22.2.0                                                  08/04/2022  09:41:28  PAGE 50


  C:75A6H         LINE#         760
  C:75A6H         LINE#         761
  C:75A6H         LINE#         762
  C:75A6H         LINE#         763
  C:75A9H         LINE#         764
  C:75A9H         LINE#         765
  C:75A9H         LINE#         766
  -------         ENDPROC       _NAMESETKEY
  -------         PROC          _SHOWNAMEBYIDX
  D:0006H         SYMBOL        idx
  -------         DO            
  X:1083H         SYMBOL        tmpItem
  -------         ENDDO         
  C:7546H         LINE#         768
  C:7546H         LINE#         769
  C:7546H         LINE#         771
  C:7553H         LINE#         772
  C:7553H         LINE#         773
  C:755CH         LINE#         774
  C:7567H         LINE#         775
  C:7567H         LINE#         776
  -------         ENDPROC       _SHOWNAMEBYIDX
  -------         PROC          _CALLBYNAMEITEM
  X:1083H         SYMBOL        NameItem
  -------         DO            
  X:1086H         SYMBOL        Disbuf
  -------         ENDDO         
  C:5193H         LINE#         815
  C:519EH         LINE#         816
  C:519EH         LINE#         818
  C:51B0H         LINE#         819
  C:51B0H         LINE#         822
  C:51B3H         LINE#         823
  C:51CFH         LINE#         828
  C:51D9H         LINE#         831
  C:51EFH         LINE#         832
  C:51EFH         LINE#         834
  C:51FBH         LINE#         835
  C:5214H         LINE#         836
  C:5214H         LINE#         841
  C:5233H         LINE#         842
  C:5233H         LINE#         845
  C:5233H         LINE#         847
  C:5235H         LINE#         849
  C:5235H         LINE#         850
  C:5273H         LINE#         851
  C:5280H         LINE#         852
  C:5280H         LINE#         854
  C:5282H         LINE#         855
  C:5282H         LINE#         856
  C:5283H         LINE#         857
  -------         ENDPROC       _CALLBYNAMEITEM
  -------         PROC          _REVNAMELIST
  D:0001H         SYMBOL        buf
  -------         DO            
  X:1081H         SYMBOL        i
  X:1083H         SYMBOL        cnt
BL51 BANKED LINKER/LOCATER V6.22.2.0                                                  08/04/2022  09:41:28  PAGE 51


  X:1085H         SYMBOL        j
  X:1087H         SYMBOL        tmpItem
  X:10B5H         SYMBOL        p
  -------         ENDDO         
  C:19D2H         LINE#         859
  C:19D2H         LINE#         860
  C:19D2H         LINE#         865
  C:19DDH         LINE#         867
  C:19E5H         LINE#         868
  C:19E5H         LINE#         869
  C:19EEH         LINE#         870
  C:19F9H         LINE#         872
  C:19F9H         LINE#         873
  C:1A02H         LINE#         874
  C:1A26H         LINE#         875
  C:1A2DH         LINE#         876
  C:1A2DH         LINE#         877
  C:1A3FH         LINE#         878
  C:1A67H         LINE#         879
  C:1A67H         LINE#         880
  C:1A7FH         LINE#         881
  C:1A9EH         LINE#         882
  C:1A9EH         LINE#         883
  C:1AC2H         LINE#         884
  C:1ACCH         LINE#         885
  C:1ACCH         LINE#         886
  C:1ADEH         LINE#         888
  C:1AEBH         LINE#         889
  C:1B13H         LINE#         891
  C:1B37H         LINE#         892
  C:1B3EH         LINE#         893
  C:1B3EH         LINE#         894
  C:1B50H         LINE#         896
  C:1B57H         LINE#         897
  C:1B79H         LINE#         898
  C:1B79H         LINE#         899
  C:1B97H         LINE#         900
  C:1BA5H         LINE#         901
  C:1BA7H         LINE#         902
  C:1BB9H         LINE#         903
  C:1BB9H         LINE#         905
  C:1BDDH         LINE#         906
  C:1BE7H         LINE#         907
  C:1BE7H         LINE#         908
  C:1BF9H         LINE#         910
  C:1C00H         LINE#         911
  C:1C06H         LINE#         912
  C:1C28H         LINE#         913
  C:1C28H         LINE#         914
  C:1C3FH         LINE#         915
  C:1C4DH         LINE#         916
  C:1C5BH         LINE#         917
  C:1C65H         LINE#         918
  C:1C67H         LINE#         919
  C:1C67H         LINE#         922
  C:1C7AH         LINE#         923
  C:1CCCH         LINE#         924
BL51 BANKED LINKER/LOCATER V6.22.2.0                                                  08/04/2022  09:41:28  PAGE 52


  C:1CD2H         LINE#         925
  C:1CD2H         LINE#         927
  C:1CDEH         LINE#         928
  C:1CDEH         LINE#         929
  C:1CDEH         LINE#         930
  C:1CDEH         LINE#         931
  C:1CEFH         LINE#         932
  C:1D03H         LINE#         933
  C:1D03H         LINE#         934
  C:1D13H         LINE#         935
  C:1D15H         LINE#         937
  C:1D15H         LINE#         938
  C:1D3CH         LINE#         939
  C:1D3CH         LINE#         940
  C:1D42H         LINE#         941
  -------         ENDPROC       _REVNAMELIST
  -------         ENDMOD        NAMELIST

  -------         MODULE        EEPROM
  C:0000H         SYMBOL        _ICE_DUMMY_
  C:781DH         PUBLIC        IIC_stop
  D:0080H         PUBLIC        P0
  D:0090H         PUBLIC        P1
  D:00A0H         PUBLIC        P2
  D:00B0H         PUBLIC        P3
  D:00C0H         PUBLIC        P4
  D:00C8H         PUBLIC        P5
  D:00E8H         PUBLIC        P6
  D:00F8H         PUBLIC        P7
  D:00A8H         PUBLIC        IE
  D:00B8H         PUBLIC        IP
  C:687AH         PUBLIC        _readBuf_at24c02
  D:00D8H         PUBLIC        CCON
  C:78EEH         PUBLIC        IIC_Aack
  C:7939H         PUBLIC        _IIC_delayms
  C:615CH         PUBLIC        _writeBuf_at24c02
  D:0098H         PUBLIC        SCON
  D:0088H         PUBLIC        TCON
  B:00E8H.5       PUBLIC        P65
  B:00E8H.6       PUBLIC        P66
  B:00E8H.7       PUBLIC        P67
  D:00F0H         PUBLIC        B
  D:00E0H         PUBLIC        ACC
  C:008EH         PUBLIC        IIC_nack
  C:7376H         PUBLIC        IIC_ack
  C:7807H         PUBLIC        IIC_start
  C:715AH         PUBLIC        IIC_read_byte
  C:6E92H         PUBLIC        _IIC_send_byte
  D:00D0H         PUBLIC        PSW
  -------         PROC          _IIC_DELAYMS
  D:0007H         SYMBOL        t
  -------         DO            
  D:0006H         SYMBOL        j
  -------         ENDDO         
  C:7939H         LINE#         13
  C:7939H         LINE#         14
  C:7939H         LINE#         16
BL51 BANKED LINKER/LOCATER V6.22.2.0                                                  08/04/2022  09:41:28  PAGE 53


  C:793FH         LINE#         17
  C:794AH         LINE#         18
  -------         ENDPROC       _IIC_DELAYMS
  -------         PROC          IIC_START
  C:7807H         LINE#         19
  C:7807H         LINE#         20
  C:7807H         LINE#         21
  C:7809H         LINE#         22
  C:780EH         LINE#         23
  C:7810H         LINE#         24
  C:7815H         LINE#         25
  C:7817H         LINE#         26
  C:781CH         LINE#         27
  -------         ENDPROC       IIC_START
  -------         PROC          IIC_STOP
  C:781DH         LINE#         29
  C:781DH         LINE#         30
  C:781DH         LINE#         31
  C:781FH         LINE#         32
  C:7824H         LINE#         33
  C:7826H         LINE#         34
  C:782BH         LINE#         35
  C:782DH         LINE#         36
  C:7832H         LINE#         37
  -------         ENDPROC       IIC_STOP
  -------         PROC          L?0033
  -------         ENDPROC       L?0033
  -------         PROC          IIC_ACK
  -------         DO            
  D:0007H         SYMBOL        i
  -------         ENDDO         
  C:7376H         LINE#         39
  C:7376H         LINE#         40
  C:7376H         LINE#         41
  C:7378H         LINE#         42
  C:737AH         LINE#         43
  C:737FH         LINE#         44
  C:738BH         LINE#         45
  C:738DH         LINE#         46
  C:7392H         LINE#         47
  -------         ENDPROC       IIC_ACK
  -------         PROC          IIC_NACK
  C:008EH         LINE#         49
  C:008EH         LINE#         50
  C:008EH         LINE#         51
  C:0090H         LINE#         52
  C:0092H         LINE#         53
  C:0097H         LINE#         54
  C:0099H         LINE#         55
  C:009EH         LINE#         56
  C:00A0H         LINE#         57
  C:00A2H         LINE#         58
  -------         ENDPROC       IIC_NACK
  -------         PROC          IIC_AACK
  C:78EEH         LINE#         60
  C:78EEH         LINE#         61
  C:78EEH         LINE#         62
BL51 BANKED LINKER/LOCATER V6.22.2.0                                                  08/04/2022  09:41:28  PAGE 54


  C:78F0H         LINE#         63
  C:78F2H         LINE#         64
  C:78F7H         LINE#         65
  C:78F9H         LINE#         66
  C:78FEH         LINE#         67
  C:7900H         LINE#         68
  -------         ENDPROC       IIC_AACK
  -------         PROC          _IIC_SEND_BYTE
  D:0007H         SYMBOL        date
  -------         DO            
  D:0006H         SYMBOL        i
  D:0007H         SYMBOL        temp
  -------         ENDDO         
  C:6E92H         LINE#         72
  C:6E92H         LINE#         73
  C:6E92H         LINE#         75
  C:6E92H         LINE#         76
  C:6E94H         LINE#         77
  C:6E94H         LINE#         78
  C:6E96H         LINE#         79
  C:6E9BH         LINE#         80
  C:6EA5H         LINE#         81
  C:6EA9H         LINE#         82
  C:6EAEH         LINE#         83
  C:6EB0H         LINE#         84
  C:6EB5H         LINE#         85
  C:6EB7H         LINE#         86
  C:6EBCH         LINE#         87
  C:6EBEH         LINE#         88
  C:6EC3H         LINE#         89
  C:6EC5H         LINE#         90
  C:6ECAH         LINE#         93
  -------         ENDPROC       _IIC_SEND_BYTE
  -------         PROC          IIC_READ_BYTE
  -------         DO            
  D:0006H         SYMBOL        i
  D:0007H         SYMBOL        k
  -------         ENDDO         
  C:715AH         LINE#         95
  C:715AH         LINE#         96
  C:715AH         LINE#         97
  C:715AH         LINE#         98
  C:715CH         LINE#         99
  C:7161H         LINE#         100
  C:7163H         LINE#         101
  C:7168H         LINE#         102
  C:716AH         LINE#         103
  C:716AH         LINE#         104
  C:716CH         LINE#         105
  C:7171H         LINE#         106
  C:7175H         LINE#         107
  C:717BH         LINE#         108
  C:717DH         LINE#         109
  C:7182H         LINE#         110
  C:7187H         LINE#         111
  C:7187H         LINE#         112
  -------         ENDPROC       IIC_READ_BYTE
BL51 BANKED LINKER/LOCATER V6.22.2.0                                                  08/04/2022  09:41:28  PAGE 55


  -------         PROC          _WRITEBUF_AT24C02
  X:10E6H         SYMBOL        address
  X:10E8H         SYMBOL        buf
  X:10EBH         SYMBOL        len
  C:615CH         LINE#         150
  C:616DH         LINE#         151
  C:616DH         LINE#         152
  C:616FH         LINE#         153
  C:616FH         LINE#         154
  C:616FH         LINE#         155
  C:616FH         LINE#         156
  C:616FH         LINE#         157
  C:616FH         LINE#         158
  C:616FH         LINE#         159
  C:6171H         LINE#         160
  C:617FH         LINE#         161
  C:617FH         LINE#         162
  C:6196H         LINE#         163
  C:6199H         LINE#         164
  C:61A7H         LINE#         165
  C:61BEH         LINE#         166
  C:61BEH         LINE#         167
  C:61C1H         LINE#         168
  C:61C6H         LINE#         169
  C:61C6H         LINE#         170
  C:61C6H         LINE#         171
  C:61C9H         LINE#         172
  C:61D1H         LINE#         173
  C:61D4H         LINE#         174
  C:61DAH         LINE#         175
  C:61DDH         LINE#         176
  C:61DDH         LINE#         177
  C:61DFH         LINE#         178
  C:61E2H         LINE#         179
  -------         ENDPROC       _WRITEBUF_AT24C02
  -------         PROC          _READBUF_AT24C02
  D:0004H         SYMBOL        address
  D:0001H         SYMBOL        buf
  X:10EBH         SYMBOL        len
  -------         DO            
  X:10EDH         SYMBOL        dat
  -------         ENDDO         
  C:687AH         LINE#         182
  C:687EH         LINE#         183
  C:687EH         LINE#         185
  C:687EH         LINE#         186
  C:687EH         LINE#         187
  C:6881H         LINE#         188
  C:6886H         LINE#         189
  C:6889H         LINE#         190
  C:688EH         LINE#         191
  C:6891H         LINE#         192
  C:6894H         LINE#         193
  C:6899H         LINE#         194
  C:689CH         LINE#         195
  C:68ABH         LINE#         196
  C:68ABH         LINE#         197
BL51 BANKED LINKER/LOCATER V6.22.2.0                                                  08/04/2022  09:41:28  PAGE 56


  C:68B7H         LINE#         198
  C:68BEH         LINE#         199
  C:68C1H         LINE#         200
  C:68C8H         LINE#         201
  C:68CAH         LINE#         202
  C:68D1H         LINE#         203
  C:68D4H         LINE#         204
  C:68D7H         LINE#         205
  C:68DCH         LINE#         206
  -------         ENDPROC       _READBUF_AT24C02
  -------         ENDMOD        EEPROM

  -------         MODULE        SYSSTATUS
  C:0000H         SYMBOL        _ICE_DUMMY_
  D:0080H         PUBLIC        P0
  D:0090H         PUBLIC        P1
  C:6999H         PUBLIC        _ReadRoomByIdx
  D:00A0H         PUBLIC        P2
  D:00B0H         PUBLIC        P3
  D:00C0H         PUBLIC        P4
  D:00C8H         PUBLIC        P5
  D:00E8H         PUBLIC        P6
  D:00F8H         PUBLIC        P7
  D:00A8H         PUBLIC        IE
  C:4F9DH         PUBLIC        _InputSysPsw
  X:120BH         PUBLIC        IdleTime
  X:120DH         PUBLIC        NameItemCall
  X:123BH         PUBLIC        Volum
  D:00B8H         PUBLIC        IP
  D:00D8H         PUBLIC        CCON
  C:61E7H         PUBLIC        _GetIdxByRoom
  C:7626H         PUBLIC        InputSysPswCon
  X:123CH         PUBLIC        InputRoom
  X:123EH         PUBLIC        InputLen
  D:0098H         PUBLIC        SCON
  D:0088H         PUBLIC        TCON
  B:00C0H.2       PUBLIC        P42
  X:123FH         PUBLIC        InputIdx
  X:1240H         PUBLIC        InputMax
  C:67B3H         PUBLIC        _SysCard
  C:6940H         PUBLIC        InitUserPara
  D:00F0H         PUBLIC        B
  X:1242H         PUBLIC        UsrPara
  C:5284H         PUBLIC        _SaveSubPara
  C:44FCH         PUBLIC        _SysSubSetKey
  C:6ECBH         PUBLIC        SysSettingCon
  X:124AH         PUBLIC        SysPara
  D:00E0H         PUBLIC        ACC
  X:1257H         PUBLIC        NameListIdx
  X:1259H         PUBLIC        SysStatus
  X:125AH         PUBLIC        CallTleIdx
  C:57D7H         PUBLIC        _SysSettingKey
  X:125BH         PUBLIC        InputPsw
  C:70FDH         PUBLIC        _InputRoomCon
  C:41FFH         PUBLIC        ShowSubPara
  C:66DCH         PUBLIC        ShowInputRoom
  C:4C6CH         PUBLIC        InitSysPara
BL51 BANKED LINKER/LOCATER V6.22.2.0                                                  08/04/2022  09:41:28  PAGE 57


  C:76CEH         PUBLIC        SysIdleCon
  C:437FH         PUBLIC        _SysKey
  C:479EH         PUBLIC        _SysIdleKey
  C:5AD3H         PUBLIC        ShowInputPsw
  C:4E96H         PUBLIC        _SysInputRoom
  C:000EH         PUBLIC        _SysTalkKey
  D:00D0H         PUBLIC        PSW
  C:58A6H         PUBLIC        _SubSetCon
  -------         PROC          INITSYSPARA
  B:0020H.0       SYMBOL        rst
  C:4C6CH         LINE#         22
  C:4C6CH         LINE#         23
  C:4C6CH         LINE#         24
  C:4C81H         LINE#         25
  C:4C90H         LINE#         26
  C:4C90H         LINE#         27
  C:4C9AH         LINE#         30
  C:4CA0H         LINE#         31
  C:4CA3H         LINE#         32
  C:4CA6H         LINE#         33
  C:4CAAH         LINE#         35
  C:4CAEH         LINE#         36
  C:4CB8H         LINE#         37
  C:4CCDH         LINE#         38
  C:4CCDH         LINE#         42
  C:4CDEH         LINE#         43
  C:4CEFH         LINE#         44
  C:4D00H         LINE#         45
  C:4D11H         LINE#         47
  C:4D29H         LINE#         48
  C:4D41H         LINE#         49
  C:4D59H         LINE#         50
  C:4D6AH         LINE#         54
  C:4D73H         LINE#         55
  C:4D73H         LINE#         56
  C:4D76H         LINE#         57
  C:4D76H         LINE#         58
  C:4D7EH         LINE#         60
  C:4D84H         LINE#         61
  C:4D84H         LINE#         62
  C:4D86H         LINE#         63
  C:4D87H         LINE#         65
  C:4D87H         LINE#         66
  C:4D89H         LINE#         67
  C:4D89H         LINE#         68
  -------         ENDPROC       INITSYSPARA
  -------         PROC          INITUSERPARA
  C:6940H         LINE#         70
  C:6940H         LINE#         71
  C:6940H         LINE#         72
  C:6956H         LINE#         73
  C:6964H         LINE#         74
  C:6964H         LINE#         75
  C:696EH         LINE#         76
  C:6973H         LINE#         77
  C:6977H         LINE#         78
  C:697BH         LINE#         79
BL51 BANKED LINKER/LOCATER V6.22.2.0                                                  08/04/2022  09:41:28  PAGE 58


  C:6990H         LINE#         80
  C:6990H         LINE#         81
  C:6993H         LINE#         82
  C:6996H         LINE#         83
  -------         ENDPROC       INITUSERPARA
  -------         PROC          _READROOMBYIDX
  D:0006H         SYMBOL        idx
  D:0005H         SYMBOL        type
  -------         DO            
  X:10C4H         SYMBOL        room
  D:0006H         SYMBOL        addr
  -------         ENDDO         
  C:6999H         LINE#         86
  C:6999H         LINE#         87
  C:6999H         LINE#         89
  C:6999H         LINE#         90
  C:69A5H         LINE#         91
  C:69A5H         LINE#         92
  C:69A5H         LINE#         93
  C:69ACH         LINE#         94
  C:69B3H         LINE#         95
  C:69B5H         LINE#         96
  C:69B5H         LINE#         97
  C:69BFH         LINE#         98
  C:69C6H         LINE#         99
  C:69C8H         LINE#         100
  C:69C8H         LINE#         101
  C:69CFH         LINE#         102
  C:69D7H         LINE#         103
  C:69D7H         LINE#         104
  C:69D7H         LINE#         107
  C:69E9H         LINE#         108
  C:69F1H         LINE#         109
  -------         ENDPROC       _READROOMBYIDX
  -------         PROC          _GETIDXBYROOM
  X:10BDH         SYMBOL        room
  X:10BFH         SYMBOL        type
  -------         DO            
  X:10C0H         SYMBOL        i
  D:0006H         SYMBOL        DstRoom
  X:10C2H         SYMBOL        iMax
  -------         ENDDO         
  C:61E7H         LINE#         111
  C:61F2H         LINE#         112
  C:61F2H         LINE#         113
  C:61F7H         LINE#         116
  C:6203H         LINE#         117
  C:6203H         LINE#         118
  C:6203H         LINE#         119
  C:6206H         LINE#         120
  C:6208H         LINE#         121
  C:6208H         LINE#         122
  C:620BH         LINE#         123
  C:620DH         LINE#         124
  C:620DH         LINE#         125
  C:621CH         LINE#         126
  C:621CH         LINE#         127
BL51 BANKED LINKER/LOCATER V6.22.2.0                                                  08/04/2022  09:41:28  PAGE 59


  C:621CH         LINE#         128
  C:6232H         LINE#         129
  C:6232H         LINE#         130
  C:623AH         LINE#         131
  C:6246H         LINE#         132
  C:6246H         LINE#         133
  C:624FH         LINE#         134
  C:624FH         LINE#         135
  C:6257H         LINE#         136
  C:6257H         LINE#         137
  C:6257H         LINE#         138
  C:6257H         LINE#         139
  C:6265H         LINE#         140
  C:6267H         LINE#         141
  C:626BH         LINE#         142
  -------         ENDPROC       _GETIDXBYROOM
  -------         PROC          SYSIDLECON
  C:76CEH         LINE#         147
  C:76CEH         LINE#         148
  C:76CEH         LINE#         149
  C:76D4H         LINE#         150
  C:76DCH         LINE#         151
  C:76E3H         LINE#         152
  -------         ENDPROC       SYSIDLECON
  -------         PROC          SYSSETTINGCON
  C:6ECBH         LINE#         154
  C:6ECBH         LINE#         155
  C:6ECBH         LINE#         156
  C:6ED1H         LINE#         157
  C:6ED4H         LINE#         158
  C:6EE1H         LINE#         159
  C:6EEEH         LINE#         161
  C:6EF7H         LINE#         162
  C:6EFEH         LINE#         163
  C:6F02H         LINE#         164
  -------         ENDPROC       SYSSETTINGCON
  -------         PROC          SHOWINPUTROOM
  -------         DO            
  X:1083H         SYMBOL        Disbuf
  -------         ENDDO         
  C:66DCH         LINE#         166
  C:66DCH         LINE#         167
  C:66DCH         LINE#         169
  C:66DFH         LINE#         171
  C:66ECH         LINE#         179
  C:6701H         LINE#         180
  C:6701H         LINE#         181
  C:671BH         LINE#         182
  C:671DH         LINE#         184
  C:671DH         LINE#         185
  C:673BH         LINE#         186
  C:673BH         LINE#         187
  -------         ENDPROC       SHOWINPUTROOM
  -------         PROC          _INPUTROOMCON
  D:0007H         SYMBOL        key
  C:70FDH         LINE#         192
  C:70FDH         LINE#         193
BL51 BANKED LINKER/LOCATER V6.22.2.0                                                  08/04/2022  09:41:28  PAGE 60


  C:70FDH         LINE#         194
  C:7103H         LINE#         195
  C:710DH         LINE#         196
  C:7113H         LINE#         197
  C:7116H         LINE#         198
  C:7116H         LINE#         199
  C:7117H         LINE#         200
  C:7117H         LINE#         201
  C:711AH         LINE#         202
  C:7127H         LINE#         203
  -------         ENDPROC       _INPUTROOMCON
  -------         PROC          _SYSINPUTROOM
  X:1082H         SYMBOL        key
  C:4E96H         LINE#         206
  C:4E9BH         LINE#         207
  C:4E9BH         LINE#         208
  C:4EA6H         LINE#         209
  C:4EA6H         LINE#         210
  C:4EA6H         LINE#         211
  C:4EB6H         LINE#         212
  C:4EB6H         LINE#         213
  C:4EC7H         LINE#         214
  C:4EC7H         LINE#         215
  C:4ECCH         LINE#         216
  C:4ED7H         LINE#         217
  C:4ED7H         LINE#         218
  C:4EDDH         LINE#         219
  C:4EE2H         LINE#         220
  C:4EEFH         LINE#         221
  C:4EF0H         LINE#         223
  C:4EF0H         LINE#         224
  C:4EF3H         LINE#         225
  C:4EFCH         LINE#         226
  C:4EFDH         LINE#         233
  C:4EFDH         LINE#         234
  C:4EFDH         LINE#         236
  C:4F00H         LINE#         237
  C:4F05H         LINE#         238
  C:4F0EH         LINE#         239
  C:4F15H         LINE#         240
  C:4F19H         LINE#         241
  C:4F1BH         LINE#         242
  C:4F1BH         LINE#         243
  C:4F24H         LINE#         244
  C:4F24H         LINE#         245
  C:4F27H         LINE#         246
  C:4F3EH         LINE#         247
  C:4F41H         LINE#         248
  C:4F43H         LINE#         250
  C:4F43H         LINE#         252
  C:4F46H         LINE#         254
  C:4F49H         LINE#         255
  C:4F49H         LINE#         256
  C:4F49H         LINE#         257
  C:4F49H         LINE#         258
  C:4F59H         LINE#         259
  C:4F59H         LINE#         260
BL51 BANKED LINKER/LOCATER V6.22.2.0                                                  08/04/2022  09:41:28  PAGE 61


  C:4F62H         LINE#         261
  C:4F62H         LINE#         262
  C:4F65H         LINE#         263
  C:4F7CH         LINE#         264
  C:4F8EH         LINE#         265
  C:4F95H         LINE#         266
  C:4F95H         LINE#         267
  C:4F99H         LINE#         268
  C:4F99H         LINE#         269
  C:4F9CH         LINE#         270
  C:4F9CH         LINE#         271
  C:4F9CH         LINE#         272
  -------         ENDPROC       _SYSINPUTROOM
  -------         PROC          L?0248
  -------         ENDPROC       L?0248
  -------         PROC          SHOWINPUTPSW
  -------         DO            
  X:1083H         SYMBOL        Disbuf
  X:10A1H         SYMBOL        i
  -------         ENDDO         
  C:5AD3H         LINE#         275
  C:5AD3H         LINE#         276
  C:5AD3H         LINE#         278
  C:5AD6H         LINE#         279
  C:5ADDH         LINE#         280
  C:5ADDH         LINE#         281
  C:5AEAH         LINE#         282
  C:5AEAH         LINE#         292
  C:5B0DH         LINE#         293
  C:5B1FH         LINE#         294
  C:5B1FH         LINE#         295
  C:5B39H         LINE#         296
  C:5B41H         LINE#         297
  C:5B5AH         LINE#         299
  C:5B66H         LINE#         303
  -------         ENDPROC       SHOWINPUTPSW
  -------         PROC          INPUTSYSPSWCON
  C:7626H         LINE#         306
  C:7626H         LINE#         307
  C:7626H         LINE#         308
  C:762CH         LINE#         309
  C:7636H         LINE#         310
  C:763BH         LINE#         311
  C:763EH         LINE#         312
  -------         ENDPROC       INPUTSYSPSWCON
  -------         PROC          _INPUTSYSPSW
  X:1082H         SYMBOL        key
  C:4F9DH         LINE#         315
  C:4FA2H         LINE#         316
  C:4FA2H         LINE#         317
  C:4FB4H         LINE#         318
  C:4FB4H         LINE#         319
  C:4FB4H         LINE#         320
  C:4FD4H         LINE#         321
  C:4FD4H         LINE#         322
  C:4FF1H         LINE#         323
  C:4FF1H         LINE#         324
BL51 BANKED LINKER/LOCATER V6.22.2.0                                                  08/04/2022  09:41:28  PAGE 62


  C:4FF4H         LINE#         326
  C:4FF4H         LINE#         327
  C:4FF4H         LINE#         329
  C:4FF7H         LINE#         330
  C:4FFCH         LINE#         331
  C:5006H         LINE#         332
  C:500BH         LINE#         333
  C:500DH         LINE#         334
  C:500DH         LINE#         335
  C:5016H         LINE#         336
  C:5016H         LINE#         337
  C:5019H         LINE#         338
  C:5030H         LINE#         339
  C:5033H         LINE#         340
  C:5035H         LINE#         350
  C:5035H         LINE#         352
  C:5038H         LINE#         354
  C:503BH         LINE#         355
  C:503BH         LINE#         356
  C:503BH         LINE#         357
  C:504BH         LINE#         358
  C:504BH         LINE#         359
  C:5054H         LINE#         360
  C:5054H         LINE#         361
  C:5057H         LINE#         362
  C:5074H         LINE#         363
  C:5097H         LINE#         364
  C:509AH         LINE#         365
  C:509AH         LINE#         366
  C:509AH         LINE#         367
  -------         ENDPROC       _INPUTSYSPSW
  -------         PROC          _SYSIDLEKEY
  X:1082H         SYMBOL        key
  C:479EH         LINE#         369
  C:47A3H         LINE#         370
  C:47A3H         LINE#         371
  C:47BDH         LINE#         372
  C:47BDH         LINE#         373
  C:47BDH         LINE#         379
  C:47BDH         LINE#         380
  C:47C0H         LINE#         381
  C:47C0H         LINE#         382
  C:47C3H         LINE#         383
  C:47C3H         LINE#         384
  C:47C6H         LINE#         385
  C:47C9H         LINE#         386
  C:47C9H         LINE#         387
  C:47CCH         LINE#         388
  C:47CFH         LINE#         389
  C:47CFH         LINE#         390
  C:47E2H         LINE#         391
  C:47E2H         LINE#         392
  C:47F7H         LINE#         393
  C:47F7H         LINE#         394
  C:4803H         LINE#         395
  C:4805H         LINE#         397
  C:4805H         LINE#         398
BL51 BANKED LINKER/LOCATER V6.22.2.0                                                  08/04/2022  09:41:28  PAGE 63


  C:480CH         LINE#         399
  C:480CH         LINE#         400
  C:480CH         LINE#         401
  C:480CH         LINE#         402
  C:480EH         LINE#         403
  C:480EH         LINE#         404
  C:4821H         LINE#         405
  C:4821H         LINE#         406
  C:482EH         LINE#         407
  C:482EH         LINE#         408
  C:4836H         LINE#         409
  C:4836H         LINE#         410
  C:4841H         LINE#         411
  C:4843H         LINE#         413
  C:4843H         LINE#         414
  C:4851H         LINE#         415
  C:4851H         LINE#         416
  C:4853H         LINE#         418
  C:4853H         LINE#         419
  C:4867H         LINE#         420
  C:4867H         LINE#         421
  C:4872H         LINE#         422
  C:4872H         LINE#         423
  C:4874H         LINE#         424
  C:4874H         LINE#         425
  C:488AH         LINE#         426
  C:488AH         LINE#         427
  C:488FH         LINE#         428
  C:4898H         LINE#         429
  C:48A3H         LINE#         430
  C:48A3H         LINE#         431
  C:48A9H         LINE#         432
  C:48AEH         LINE#         433
  C:48BBH         LINE#         434
  C:48BDH         LINE#         436
  C:48BDH         LINE#         437
  C:48C0H         LINE#         438
  C:48C9H         LINE#         439
  C:48C9H         LINE#         445
  C:48CBH         LINE#         447
  C:48CBH         LINE#         448
  C:48D0H         LINE#         449
  C:48D0H         LINE#         450
  C:48D0H         LINE#         451
  C:48D0H         LINE#         452
  C:48E0H         LINE#         453
  C:48E0H         LINE#         454
  C:48E3H         LINE#         455
  C:48E3H         LINE#         456
  -------         ENDPROC       _SYSIDLEKEY
  -------         PROC          _SYSSETTINGKEY
  X:1082H         SYMBOL        key
  C:57D7H         LINE#         458
  C:57DCH         LINE#         459
  C:57DCH         LINE#         528
  C:57E8H         LINE#         529
  C:57E8H         LINE#         530
BL51 BANKED LINKER/LOCATER V6.22.2.0                                                  08/04/2022  09:41:28  PAGE 64


  C:57F1H         LINE#         531
  C:57F1H         LINE#         532
  C:57F4H         LINE#         533
  C:580BH         LINE#         534
  C:5818H         LINE#         535
  C:5828H         LINE#         536
  C:5828H         LINE#         537
  C:5829H         LINE#         538
  C:5829H         LINE#         539
  C:5829H         LINE#         540
  C:582BH         LINE#         542
  C:582BH         LINE#         543
  C:5838H         LINE#         544
  C:583EH         LINE#         545
  C:583EH         LINE#         546
  C:583FH         LINE#         547
  C:5846H         LINE#         548
  C:5846H         LINE#         549
  C:5846H         LINE#         550
  C:5848H         LINE#         551
  C:584FH         LINE#         552
  C:584FH         LINE#         553
  C:5852H         LINE#         554
  C:5852H         LINE#         555
  C:585AH         LINE#         556
  C:585AH         LINE#         557
  C:5872H         LINE#         558
  C:5872H         LINE#         559
  C:5878H         LINE#         561
  C:5878H         LINE#         562
  C:5894H         LINE#         563
  C:5894H         LINE#         564
  C:5894H         LINE#         565
  C:5897H         LINE#         566
  C:5897H         LINE#         567
  C:5897H         LINE#         568
  C:589AH         LINE#         569
  C:589AH         LINE#         570
  C:589AH         LINE#         571
  C:589DH         LINE#         572
  C:589DH         LINE#         573
  C:589DH         LINE#         574
  C:58A0H         LINE#         575
  C:58A0H         LINE#         576
  C:58A0H         LINE#         577
  C:58A5H         LINE#         578
  C:58A5H         LINE#         589
  C:58A5H         LINE#         590
  C:58A5H         LINE#         591
  -------         ENDPROC       _SYSSETTINGKEY
  -------         PROC          _SYSTALKKEY
  D:0007H         SYMBOL        key
  C:000EH         LINE#         593
  C:000EH         LINE#         594
  C:000EH         LINE#         595
  C:0013H         LINE#         596
  C:0013H         LINE#         597
BL51 BANKED LINKER/LOCATER V6.22.2.0                                                  08/04/2022  09:41:28  PAGE 65


  C:0013H         LINE#         598
  C:0016H         LINE#         599
  C:0019H         LINE#         600
  C:0019H         LINE#         601
  C:0019H         LINE#         602
  -------         ENDPROC       _SYSTALKKEY
  -------         PROC          SHOWSUBPARA
  -------         DO            
  X:1083H         SYMBOL        Disbuf
  -------         ENDDO         
  C:41FFH         LINE#         606
  C:41FFH         LINE#         607
  C:41FFH         LINE#         609
  C:4202H         LINE#         610
  C:4221H         LINE#         611
  C:4221H         LINE#         618
  C:4221H         LINE#         619
  C:423AH         LINE#         620
  C:423DH         LINE#         621
  C:423DH         LINE#         622
  C:4256H         LINE#         623
  C:4258H         LINE#         624
  C:4258H         LINE#         625
  C:427BH         LINE#         626
  C:4285H         LINE#         627
  C:4285H         LINE#         628
  C:4287H         LINE#         629
  C:4289H         LINE#         631
  C:4289H         LINE#         632
  C:428BH         LINE#         633
  C:428BH         LINE#         634
  C:428DH         LINE#         635
  C:428DH         LINE#         636
  C:42A6H         LINE#         637
  C:42A8H         LINE#         641
  C:42A8H         LINE#         642
  C:42CBH         LINE#         643
  C:42CBH         LINE#         644
  C:42CBH         LINE#         645
  C:42D3H         LINE#         647
  C:42D3H         LINE#         649
  C:42DFH         LINE#         650
  C:42FDH         LINE#         652
  C:42FDH         LINE#         653
  C:4305H         LINE#         654
  C:4305H         LINE#         656
  C:4311H         LINE#         657
  C:432FH         LINE#         659
  C:432FH         LINE#         665
  C:433CH         LINE#         666
  C:4354H         LINE#         667
  C:4354H         LINE#         668
  C:4371H         LINE#         669
  C:437EH         LINE#         671
  C:437EH         LINE#         672
  -------         ENDPROC       SHOWSUBPARA
  -------         PROC          _SUBSETCON
BL51 BANKED LINKER/LOCATER V6.22.2.0                                                  08/04/2022  09:41:28  PAGE 66


  D:0007H         SYMBOL        type
  -------         DO            
  D:0006H         SYMBOL        tmp
  -------         ENDDO         
  C:58A6H         LINE#         674
  C:58A6H         LINE#         675
  C:58A6H         LINE#         678
  C:58BCH         LINE#         679
  C:58BCH         LINE#         690
  C:58BCH         LINE#         691
  C:58C2H         LINE#         692
  C:58CBH         LINE#         693
  C:58CEH         LINE#         694
  C:58D0H         LINE#         695
  C:58D0H         LINE#         696
  C:58D6H         LINE#         697
  C:58DEH         LINE#         698
  C:58E1H         LINE#         699
  C:58E3H         LINE#         700
  C:58E3H         LINE#         701
  C:58E9H         LINE#         702
  C:58F1H         LINE#         703
  C:58F4H         LINE#         704
  C:58F6H         LINE#         705
  C:58F6H         LINE#         706
  C:58FCH         LINE#         707
  C:5905H         LINE#         708
  C:5908H         LINE#         709
  C:590AH         LINE#         715
  C:590AH         LINE#         716
  C:5910H         LINE#         717
  C:5919H         LINE#         718
  C:5926H         LINE#         719
  C:5926H         LINE#         720
  C:5926H         LINE#         722
  C:5926H         LINE#         724
  C:592BH         LINE#         725
  C:5930H         LINE#         726
  C:5938H         LINE#         727
  C:5941H         LINE#         728
  C:5941H         LINE#         729
  C:5947H         LINE#         730
  C:594EH         LINE#         731
  C:5950H         LINE#         733
  C:5962H         LINE#         734
  C:5962H         LINE#         735
  C:5968H         LINE#         736
  C:5968H         LINE#         737
  C:596BH         LINE#         738
  -------         ENDPROC       _SUBSETCON
  -------         PROC          _SAVESUBPARA
  D:0007H         SYMBOL        type
  X:1083H         SYMBOL        dat
  C:5284H         LINE#         740
  C:528CH         LINE#         741
  C:528CH         LINE#         742
  C:52A5H         LINE#         743
BL51 BANKED LINKER/LOCATER V6.22.2.0                                                  08/04/2022  09:41:28  PAGE 67


  C:52A5H         LINE#         752
  C:52A5H         LINE#         753
  C:52AEH         LINE#         754
  C:52BFH         LINE#         755
  C:52C1H         LINE#         756
  C:52C1H         LINE#         757
  C:52D5H         LINE#         758
  C:52E6H         LINE#         759
  C:52E8H         LINE#         760
  C:52E8H         LINE#         761
  C:52FCH         LINE#         762
  C:530DH         LINE#         763
  C:530FH         LINE#         764
  C:530FH         LINE#         765
  C:5318H         LINE#         766
  C:5334H         LINE#         767
  C:5336H         LINE#         772
  C:5336H         LINE#         773
  C:5346H         LINE#         774
  C:5346H         LINE#         775
  C:534BH         LINE#         776
  C:5366H         LINE#         777
  C:536EH         LINE#         778
  C:536EH         LINE#         779
  C:536EH         LINE#         780
  C:536EH         LINE#         781
  -------         ENDPROC       _SAVESUBPARA
  -------         PROC          _SYSSUBSETKEY
  X:1082H         SYMBOL        key
  C:44FCH         LINE#         784
  C:4501H         LINE#         785
  C:4501H         LINE#         786
  C:4508H         LINE#         787
  C:4508H         LINE#         788
  C:450AH         LINE#         790
  C:450AH         LINE#         791
  C:451AH         LINE#         792
  C:451AH         LINE#         793
  C:451AH         LINE#         794
  C:452EH         LINE#         796
  C:452EH         LINE#         797
  C:4534H         LINE#         798
  C:4534H         LINE#         799
  C:4536H         LINE#         800
  C:4538H         LINE#         802
  C:4538H         LINE#         803
  C:453AH         LINE#         804
  C:453AH         LINE#         805
  C:453CH         LINE#         807
  C:453CH         LINE#         809
  C:4542H         LINE#         810
  C:4559H         LINE#         811
  C:455CH         LINE#         812
  C:455EH         LINE#         813
  C:455EH         LINE#         814
  C:4560H         LINE#         816
  C:4560H         LINE#         817
BL51 BANKED LINKER/LOCATER V6.22.2.0                                                  08/04/2022  09:41:28  PAGE 68


  C:4569H         LINE#         818
  C:4569H         LINE#         819
  C:4579H         LINE#         820
  C:457FH         LINE#         821
  C:4580H         LINE#         823
  C:4580H         LINE#         824
  C:4583H         LINE#         825
  C:4583H         LINE#         827
  C:4583H         LINE#         828
  C:4599H         LINE#         829
  C:4599H         LINE#         831
  C:45A6H         LINE#         832
  C:45A6H         LINE#         833
  C:45ACH         LINE#         834
  C:45B5H         LINE#         835
  C:45B8H         LINE#         836
  C:45BFH         LINE#         837
  C:45BFH         LINE#         838
  C:45DAH         LINE#         839
  C:45DAH         LINE#         840
  C:45E0H         LINE#         841
  C:45E4H         LINE#         842
  C:45E4H         LINE#         843
  C:45E6H         LINE#         844
  C:460EH         LINE#         845
  C:460EH         LINE#         846
  C:4614H         LINE#         847
  C:461CH         LINE#         848
  C:462DH         LINE#         849
  C:462DH         LINE#         850
  C:463CH         LINE#         851
  C:463EH         LINE#         853
  C:463EH         LINE#         854
  C:464DH         LINE#         855
  C:464DH         LINE#         856
  C:464DH         LINE#         857
  C:464DH         LINE#         858
  C:4650H         LINE#         859
  -------         ENDPROC       _SYSSUBSETKEY
  -------         PROC          _SYSKEY
  X:1081H         SYMBOL        Key
  C:437FH         LINE#         861
  C:4384H         LINE#         862
  C:4384H         LINE#         863
  C:438DH         LINE#         864
  C:43FFH         LINE#         865
  C:43FFH         LINE#         866
  C:43FFH         LINE#         867
  C:4407H         LINE#         868
  C:440AH         LINE#         869
  C:440AH         LINE#         870
  C:4412H         LINE#         871
  C:4415H         LINE#         872
  C:4415H         LINE#         873
  C:441DH         LINE#         874
  C:4420H         LINE#         875
  C:4420H         LINE#         876
BL51 BANKED LINKER/LOCATER V6.22.2.0                                                  08/04/2022  09:41:28  PAGE 69


  C:4428H         LINE#         877
  C:442BH         LINE#         878
  C:442BH         LINE#         879
  C:4433H         LINE#         880
  C:4436H         LINE#         881
  C:4436H         LINE#         882
  C:443EH         LINE#         883
  C:4441H         LINE#         884
  C:4441H         LINE#         885
  C:4449H         LINE#         886
  C:444CH         LINE#         887
  C:444CH         LINE#         888
  C:4454H         LINE#         889
  C:4456H         LINE#         890
  C:4456H         LINE#         891
  C:445EH         LINE#         892
  C:4460H         LINE#         893
  C:4460H         LINE#         894
  C:4468H         LINE#         895
  C:446AH         LINE#         896
  C:446AH         LINE#         897
  C:4472H         LINE#         898
  C:4474H         LINE#         899
  C:4474H         LINE#         900
  C:447CH         LINE#         901
  C:447EH         LINE#         902
  C:447EH         LINE#         903
  C:4486H         LINE#         904
  C:4488H         LINE#         905
  C:4488H         LINE#         906
  C:4490H         LINE#         907
  C:4492H         LINE#         908
  C:4492H         LINE#         909
  C:4492H         LINE#         910
  C:449AH         LINE#         911
  C:449CH         LINE#         914
  C:449CH         LINE#         915
  C:449CH         LINE#         916
  C:449CH         LINE#         917
  C:449CH         LINE#         919
  C:449CH         LINE#         920
  C:44A4H         LINE#         921
  C:44A6H         LINE#         922
  C:44A6H         LINE#         923
  C:44AEH         LINE#         924
  C:44B0H         LINE#         925
  C:44B0H         LINE#         926
  C:44B8H         LINE#         927
  C:44BAH         LINE#         928
  C:44BAH         LINE#         929
  C:44C2H         LINE#         930
  C:44C4H         LINE#         931
  C:44C4H         LINE#         932
  C:44CCH         LINE#         933
  C:44CCH         LINE#         934
  C:44CCH         LINE#         935
  C:44F2H         LINE#         936
BL51 BANKED LINKER/LOCATER V6.22.2.0                                                  08/04/2022  09:41:28  PAGE 70


  C:44F2H         LINE#         937
  C:44FBH         LINE#         938
  C:44FBH         LINE#         939
  -------         ENDPROC       _SYSKEY
  -------         PROC          _SYSCARD
  X:1081H         SYMBOL        card
  C:67B3H         LINE#         941
  C:67BEH         LINE#         942
  C:67BEH         LINE#         943
  C:67D1H         LINE#         944
  C:67D1H         LINE#         945
  C:67D1H         LINE#         946
  C:67D1H         LINE#         947
  C:67DFH         LINE#         948
  C:67DFH         LINE#         949
  C:67DFH         LINE#         950
  C:67DFH         LINE#         951
  C:67DFH         LINE#         952
  C:67DFH         LINE#         953
  C:67DFH         LINE#         954
  C:67F5H         LINE#         955
  C:67F5H         LINE#         956
  C:67FAH         LINE#         957
  C:67FCH         LINE#         959
  C:67FCH         LINE#         960
  C:67FFH         LINE#         961
  C:67FFH         LINE#         962
  C:680DH         LINE#         963
  C:680DH         LINE#         964
  C:6816H         LINE#         965
  C:6816H         LINE#         966
  C:6816H         LINE#         968
  C:6816H         LINE#         969
  -------         ENDPROC       _SYSCARD
  -------         ENDMOD        SYSSTATUS

  -------         MODULE        UNLOCKPASSWORD
  C:0000H         SYMBOL        _ICE_DUMMY_
  D:0080H         PUBLIC        P0
  D:0090H         PUBLIC        P1
  D:00A0H         PUBLIC        P2
  D:00B0H         PUBLIC        P3
  D:00C0H         PUBLIC        P4
  D:00C8H         PUBLIC        P5
  D:00E8H         PUBLIC        P6
  D:00F8H         PUBLIC        P7
  C:658FH         PUBLIC        PswSetCon
  D:00A8H         PUBLIC        IE
  C:7660H         PUBLIC        SaveSysPsw
  C:75AAH         PUBLIC        _PswSetKey
  C:7797H         PUBLIC        _PswDelAllKey
  D:00B8H         PUBLIC        IP
  C:626CH         PUBLIC        _CheckPsw
  C:7643H         PUBLIC        _ReadPswByIdx
  D:00D8H         PUBLIC        CCON
  C:7A13H         PUBLIC        ClearPsw
  C:7402H         PUBLIC        EditSysPswCon
BL51 BANKED LINKER/LOCATER V6.22.2.0                                                  08/04/2022  09:41:28  PAGE 71


  C:7291H         PUBLIC        _WritePswByIdx
  C:7393H         PUBLIC        _DelPswByRoom
  C:29EFH         PUBLIC        _SysPswEditKey
  D:0098H         PUBLIC        SCON
  C:73DDH         PUBLIC        DeletePswCon
  D:0088H         PUBLIC        TCON
  C:6520H         PUBLIC        _DelPswByIdx
  C:6C34H         PUBLIC        _GetPswByRoom
  C:4055H         PUBLIC        _PswDeleteKey
  D:00F0H         PUBLIC        B
  D:00E0H         PUBLIC        ACC
  C:7833H         PUBLIC        DeleteAllPswCon
  C:7901H         PUBLIC        InitPsw
  X:12B3H         PUBLIC        PswEditItem
  C:635BH         PUBLIC        _AddPswItem
  X:12BDH         SYMBOL        PswEditMidx
  C:74DDH         PUBLIC        SavePswCount
  C:20B0H         PUBLIC        _ShowPsw
  C:73B8H         PUBLIC        EditPswCon
  X:12BEH         SYMBOL        PswEditIdx
  C:11C2H         PUBLIC        _PswEditKey
  C:7496H         PUBLIC        InputPswCon
  C:48E4H         PUBLIC        _PswInputKey
  D:00D0H         PUBLIC        PSW
  -------         PROC          SAVEPSWCOUNT
  C:74DDH         LINE#         11
  C:74DDH         LINE#         12
  C:74DDH         LINE#         13
  -------         ENDPROC       SAVEPSWCOUNT
  -------         PROC          CLEARPSW
  C:7A13H         LINE#         16
  C:7A13H         LINE#         17
  C:7A13H         LINE#         18
  C:7A1AH         LINE#         19
  -------         ENDPROC       CLEARPSW
  -------         PROC          INITPSW
  C:7901H         LINE#         22
  C:7901H         LINE#         23
  C:7901H         LINE#         24
  C:7910H         LINE#         25
  C:7910H         LINE#         26
  C:7913H         LINE#         27
  C:7913H         LINE#         28
  -------         ENDPROC       INITPSW
  -------         PROC          L?0239
  -------         ENDPROC       L?0239
  -------         PROC          _WRITEPSWBYIDX
  D:0006H         SYMBOL        idx
  D:0001H         SYMBOL        pItem
  -------         DO            
  D:0006H         SYMBOL        addr
  -------         ENDDO         
  C:7291H         LINE#         30
  C:7291H         LINE#         31
  C:7291H         LINE#         32
  C:7291H         LINE#         33
  C:729BH         LINE#         34
BL51 BANKED LINKER/LOCATER V6.22.2.0                                                  08/04/2022  09:41:28  PAGE 72


  -------         ENDPROC       _WRITEPSWBYIDX
  -------         PROC          _READPSWBYIDX
  D:0006H         SYMBOL        idx
  D:0001H         SYMBOL        pItem
  -------         DO            
  D:0006H         SYMBOL        addr
  -------         ENDDO         
  C:7643H         LINE#         37
  C:7643H         LINE#         38
  C:7643H         LINE#         39
  C:7643H         LINE#         40
  C:764DH         LINE#         41
  -------         ENDPROC       _READPSWBYIDX
  -------         PROC          _GETPSWBYROOM
  D:0006H         SYMBOL        room
  X:12CCH         SYMBOL        pItem
  -------         DO            
  X:12CFH         SYMBOL        idx
  -------         ENDDO         
  C:6C34H         LINE#         44
  C:6C3FH         LINE#         45
  C:6C3FH         LINE#         46
  C:6C45H         LINE#         47
  C:6C52H         LINE#         48
  C:6C59H         LINE#         49
  C:6C59H         LINE#         50
  C:6C6FH         LINE#         51
  C:6C78H         LINE#         52
  C:6C78H         LINE#         53
  C:6C7CH         LINE#         54
  -------         ENDPROC       _GETPSWBYROOM
  -------         PROC          _CHECKPSW
  X:1083H         SYMBOL        psw
  -------         DO            
  X:1085H         SYMBOL        i
  X:1087H         SYMBOL        pItem
  -------         ENDDO         
  C:626CH         LINE#         56
  C:6274H         LINE#         57
  C:6274H         LINE#         58
  C:6279H         LINE#         60
  C:628AH         LINE#         61
  C:6294H         LINE#         62
  C:6294H         LINE#         63
  C:6296H         LINE#         64
  C:6296H         LINE#         65
  C:62B3H         LINE#         66
  C:62B3H         LINE#         67
  C:62BCH         LINE#         68
  C:62D0H         LINE#         69
  C:62D0H         LINE#         70
  C:62D2H         LINE#         71
  C:62D2H         LINE#         72
  C:62E2H         LINE#         73
  C:62E3H         LINE#         74
  -------         ENDPROC       _CHECKPSW
  -------         PROC          _ADDPSWITEM
BL51 BANKED LINKER/LOCATER V6.22.2.0                                                  08/04/2022  09:41:28  PAGE 73


  X:1089H         SYMBOL        pItem
  -------         DO            
  X:108CH         SYMBOL        idx
  -------         ENDDO         
  C:635BH         LINE#         76
  C:6366H         LINE#         77
  C:6366H         LINE#         78
  C:636CH         LINE#         79
  C:637FH         LINE#         80
  C:6386H         LINE#         81
  C:6386H         LINE#         82
  C:6391H         LINE#         83
  C:639AH         LINE#         84
  C:639AH         LINE#         85
  C:63AAH         LINE#         86
  C:63AAH         LINE#         87
  C:63ADH         LINE#         88
  C:63BBH         LINE#         89
  C:63BEH         LINE#         90
  C:63CDH         LINE#         91
  C:63CDH         LINE#         92
  C:63D1H         LINE#         93
  -------         ENDPROC       _ADDPSWITEM
  -------         PROC          _DELPSWBYIDX
  X:1087H         SYMBOL        idx
  -------         DO            
  X:1089H         SYMBOL        tmpItem
  -------         ENDDO         
  C:6520H         LINE#         95
  C:6528H         LINE#         96
  C:6528H         LINE#         98
  C:6536H         LINE#         99
  C:6536H         LINE#         100
  C:654AH         LINE#         101
  C:654AH         LINE#         102
  C:6558H         LINE#         103
  C:655BH         LINE#         104
  C:655BH         LINE#         106
  C:655BH         LINE#         107
  C:6569H         LINE#         108
  C:656CH         LINE#         109
  C:657DH         LINE#         110
  C:658EH         LINE#         111
  C:658EH         LINE#         112
  C:658EH         LINE#         113
  -------         ENDPROC       _DELPSWBYIDX
  -------         PROC          _DELPSWBYROOM
  X:1085H         SYMBOL        room
  -------         DO            
  D:0006H         SYMBOL        idx
  -------         ENDDO         
  C:7393H         LINE#         115
  C:739BH         LINE#         116
  C:739BH         LINE#         117
  C:739DH         LINE#         118
  C:73A5H         LINE#         119
  C:73A5H         LINE#         120
BL51 BANKED LINKER/LOCATER V6.22.2.0                                                  08/04/2022  09:41:28  PAGE 74


  C:73A8H         LINE#         121
  C:73B5H         LINE#         122
  C:73B7H         LINE#         123
  -------         ENDPROC       _DELPSWBYROOM
  C:20A8H         SYMBOL        L?0238
  -------         PROC          L?0237
  -------         ENDPROC       L?0237
  C:20A8H         SYMBOL        L?0238
  -------         PROC          _SHOWPSW
  X:1089H         SYMBOL        pItem
  B:0020H.0       SYMBOL        edit
  -------         DO            
  X:108CH         SYMBOL        Disbuf
  X:10A0H         SYMBOL        i
  X:10A1H         SYMBOL        tmp
  -------         ENDDO         
  C:20B0H         LINE#         129
  C:20BBH         LINE#         130
  C:20BBH         LINE#         134
  C:20BEH         LINE#         136
  C:20C5H         LINE#         137
  C:20C5H         LINE#         138
  C:20D1H         LINE#         139
  C:20D4H         LINE#         140
  C:20E8H         LINE#         141
  C:20E8H         LINE#         142
  C:2108H         LINE#         143
  C:2108H         LINE#         144
  C:210BH         LINE#         149
  C:2146H         LINE#         150
  C:214FH         LINE#         152
  C:2151H         LINE#         154
  C:2151H         LINE#         155
  C:2154H         LINE#         157
  C:2154H         LINE#         159
  C:215AH         LINE#         160
  C:215AH         LINE#         165
  C:216AH         LINE#         167
  C:216AH         LINE#         168
  C:216AH         LINE#         169
  C:2170H         LINE#         170
  C:2170H         LINE#         171
  C:218FH         LINE#         172
  C:218FH         LINE#         174
  C:21B1H         LINE#         175
  C:21C5H         LINE#         176
  C:21E3H         LINE#         177
  C:21E3H         LINE#         178
  C:21FDH         LINE#         179
  C:221AH         LINE#         180
  C:2222H         LINE#         181
  C:223BH         LINE#         182
  C:2247H         LINE#         183
  C:225CH         LINE#         184
  C:225CH         LINE#         188
  C:2262H         LINE#         190
  C:2262H         LINE#         191
BL51 BANKED LINKER/LOCATER V6.22.2.0                                                  08/04/2022  09:41:28  PAGE 75


  C:2264H         LINE#         193
  C:2264H         LINE#         194
  C:2271H         LINE#         195
  C:2286H         LINE#         196
  C:2286H         LINE#         200
  C:2296H         LINE#         202
  C:2296H         LINE#         203
  C:2296H         LINE#         204
  C:22A1H         LINE#         205
  C:22A1H         LINE#         206
  C:22C0H         LINE#         207
  C:22C0H         LINE#         209
  C:22E2H         LINE#         210
  C:22F6H         LINE#         211
  C:2314H         LINE#         212
  C:2314H         LINE#         213
  C:232EH         LINE#         214
  C:234BH         LINE#         215
  C:2353H         LINE#         216
  C:236CH         LINE#         217
  C:2378H         LINE#         218
  C:2385H         LINE#         219
  C:239AH         LINE#         220
  C:239AH         LINE#         224
  C:23A0H         LINE#         226
  C:23A0H         LINE#         227
  C:23A2H         LINE#         229
  C:23A2H         LINE#         230
  C:23AFH         LINE#         231
  C:23BCH         LINE#         232
  C:23D1H         LINE#         233
  C:23D1H         LINE#         237
  C:23E1H         LINE#         239
  C:23E1H         LINE#         240
  C:23E1H         LINE#         241
  C:23E1H         LINE#         242
  C:23E1H         LINE#         243
  -------         ENDPROC       _SHOWPSW
  -------         PROC          EDITPSWCON
  C:73B8H         LINE#         246
  C:73B8H         LINE#         247
  C:73B8H         LINE#         248
  C:73C5H         LINE#         249
  C:73CAH         LINE#         250
  C:73CCH         LINE#         251
  C:73D2H         LINE#         252
  -------         ENDPROC       EDITPSWCON
  -------         PROC          _PSWEDITKEY
  X:1082H         SYMBOL        key
  -------         DO            
  X:1083H         SYMBOL        tmp
  X:1085H         SYMBOL        tmpItem
  B:0021H.6       SYMBOL        Saved
  -------         ENDDO         
  C:11C2H         LINE#         255
  C:11C7H         LINE#         256
  C:11C7H         LINE#         260
BL51 BANKED LINKER/LOCATER V6.22.2.0                                                  08/04/2022  09:41:28  PAGE 76


  C:11CEH         LINE#         261
  C:11CEH         LINE#         262
  C:11D9H         LINE#         263
  C:11D9H         LINE#         264
  C:11DCH         LINE#         265
  C:11DCH         LINE#         266
  C:11E8H         LINE#         267
  C:11EDH         LINE#         268
  C:11F0H         LINE#         270
  C:11F0H         LINE#         271
  C:1237H         LINE#         274
  C:1237H         LINE#         275
  C:1246H         LINE#         276
  C:1257H         LINE#         277
  C:1268H         LINE#         278
  C:1268H         LINE#         279
  C:126BH         LINE#         280
  C:126DH         LINE#         282
  C:126DH         LINE#         283
  C:1270H         LINE#         284
  C:1270H         LINE#         285
  C:127DH         LINE#         286
  C:127FH         LINE#         287
  C:1289H         LINE#         288
  C:1293H         LINE#         289
  C:1294H         LINE#         291
  C:1294H         LINE#         292
  C:1297H         LINE#         293
  C:1297H         LINE#         295
  C:1297H         LINE#         296
  C:1297H         LINE#         297
  C:129DH         LINE#         298
  C:12A2H         LINE#         299
  C:12A5H         LINE#         300
  C:12B6H         LINE#         301
  C:12B6H         LINE#         302
  C:12B6H         LINE#         303
  C:12BBH         LINE#         304
  C:12C8H         LINE#         305
  C:12DBH         LINE#         306
  C:12DBH         LINE#         307
  C:12E1H         LINE#         308
  C:12F0H         LINE#         309
  C:12F2H         LINE#         310
  C:12F2H         LINE#         311
  C:12F2H         LINE#         312
  C:12F5H         LINE#         313
  C:12F5H         LINE#         320
  C:12F7H         LINE#         321
  C:12F7H         LINE#         322
  C:1301H         LINE#         323
  C:1306H         LINE#         330
  C:1309H         LINE#         331
  C:1309H         LINE#         332
  C:130CH         LINE#         333
  C:130FH         LINE#         335
  C:130FH         LINE#         336
BL51 BANKED LINKER/LOCATER V6.22.2.0                                                  08/04/2022  09:41:28  PAGE 77


  C:130FH         LINE#         337
  C:131AH         LINE#         338
  C:131AH         LINE#         339
  C:1334H         LINE#         340
  C:1334H         LINE#         341
  C:1334H         LINE#         342
  C:133DH         LINE#         343
  C:133DH         LINE#         344
  C:1340H         LINE#         345
  C:1357H         LINE#         346
  C:135AH         LINE#         348
  C:135AH         LINE#         349
  C:135DH         LINE#         351
  C:135DH         LINE#         352
  C:135DH         LINE#         353
  C:135DH         LINE#         354
  C:1366H         LINE#         355
  C:1366H         LINE#         356
  C:1369H         LINE#         357
  C:1383H         LINE#         358
  C:1385H         LINE#         360
  C:1385H         LINE#         361
  C:138BH         LINE#         362
  C:138EH         LINE#         363
  C:139BH         LINE#         364
  C:13AEH         LINE#         365
  C:13AEH         LINE#         366
  C:13B4H         LINE#         367
  C:13C3H         LINE#         368
  C:13C5H         LINE#         369
  C:13C5H         LINE#         370
  C:13C5H         LINE#         371
  C:13C5H         LINE#         372
  C:13CEH         LINE#         373
  C:13CEH         LINE#         374
  C:13D1H         LINE#         375
  C:13EEH         LINE#         376
  C:13F1H         LINE#         378
  C:13F1H         LINE#         379
  C:13F7H         LINE#         380
  C:13FAH         LINE#         381
  C:1409H         LINE#         382
  C:1419H         LINE#         383
  C:1419H         LINE#         384
  C:141FH         LINE#         385
  C:142EH         LINE#         386
  C:1430H         LINE#         387
  C:1430H         LINE#         388
  C:1430H         LINE#         389
  C:1430H         LINE#         390
  C:1435H         LINE#         391
  C:1437H         LINE#         392
  C:1444H         LINE#         393
  C:1454H         LINE#         394
  C:1454H         LINE#         395
  C:145AH         LINE#         396
  C:1469H         LINE#         397
BL51 BANKED LINKER/LOCATER V6.22.2.0                                                  08/04/2022  09:41:28  PAGE 78


  C:146BH         LINE#         398
  C:146BH         LINE#         399
  C:146BH         LINE#         400
  C:146BH         LINE#         401
  C:1472H         LINE#         402
  C:1472H         LINE#         403
  C:1475H         LINE#         405
  C:1475H         LINE#         407
  C:148BH         LINE#         408
  C:148BH         LINE#         409
  C:149FH         LINE#         410
  C:149FH         LINE#         411
  C:149FH         LINE#         412
  C:14A8H         LINE#         413
  C:14A8H         LINE#         414
  C:14BFH         LINE#         415
  C:14D2H         LINE#         416
  C:14D8H         LINE#         417
  C:14E7H         LINE#         418
  C:14E7H         LINE#         419
  C:14ECH         LINE#         420
  C:14F1H         LINE#         421
  C:14F1H         LINE#         422
  C:14F1H         LINE#         424
  C:14FEH         LINE#         425
  C:14FEH         LINE#         426
  C:14FEH         LINE#         427
  C:14FEH         LINE#         428
  C:1501H         LINE#         429
  C:1501H         LINE#         430
  C:150AH         LINE#         431
  C:150AH         LINE#         432
  C:1527H         LINE#         433
  C:1550H         LINE#         434
  C:1556H         LINE#         435
  C:1556H         LINE#         436
  C:156FH         LINE#         437
  C:156FH         LINE#         438
  C:156FH         LINE#         439
  C:156FH         LINE#         440
  C:1571H         LINE#         441
  C:1571H         LINE#         442
  C:157AH         LINE#         443
  C:157AH         LINE#         444
  C:1597H         LINE#         445
  C:15C0H         LINE#         446
  C:15C6H         LINE#         447
  C:15C6H         LINE#         448
  C:15DFH         LINE#         449
  C:15DFH         LINE#         450
  C:15E3H         LINE#         451
  C:15E3H         LINE#         452
  C:15E3H         LINE#         453
  C:15E3H         LINE#         454
  C:15E3H         LINE#         455
  C:15E6H         LINE#         456
  -------         ENDPROC       _PSWEDITKEY
BL51 BANKED LINKER/LOCATER V6.22.2.0                                                  08/04/2022  09:41:28  PAGE 79


  -------         PROC          DELETEPSWCON
  C:73DDH         LINE#         458
  C:73DDH         LINE#         459
  C:73DDH         LINE#         460
  C:73EAH         LINE#         461
  C:73EFH         LINE#         462
  C:73F1H         LINE#         463
  C:73F7H         LINE#         464
  -------         ENDPROC       DELETEPSWCON
  -------         PROC          _PSWDELETEKEY
  X:1082H         SYMBOL        key
  -------         DO            
  X:1083H         SYMBOL        tmp
  B:0021H.7       SYMBOL        Saved
  -------         ENDDO         
  C:4055H         LINE#         467
  C:405AH         LINE#         468
  C:405AH         LINE#         471
  C:4061H         LINE#         472
  C:4061H         LINE#         473
  C:4069H         LINE#         474
  C:4069H         LINE#         475
  C:406CH         LINE#         476
  C:406CH         LINE#         477
  C:4078H         LINE#         478
  C:407DH         LINE#         479
  C:407FH         LINE#         481
  C:407FH         LINE#         482
  C:4092H         LINE#         483
  C:4092H         LINE#         484
  C:4095H         LINE#         485
  C:40A2H         LINE#         486
  C:40A4H         LINE#         487
  C:40A7H         LINE#         488
  C:40A7H         LINE#         490
  C:40A7H         LINE#         491
  C:40A7H         LINE#         492
  C:40ADH         LINE#         493
  C:40B2H         LINE#         494
  C:40B5H         LINE#         495
  C:40BFH         LINE#         496
  C:40BFH         LINE#         497
  C:40BFH         LINE#         498
  C:40C4H         LINE#         499
  C:40D1H         LINE#         500
  C:40E4H         LINE#         501
  C:40E4H         LINE#         502
  C:40EAH         LINE#         503
  C:40F9H         LINE#         504
  C:40FBH         LINE#         505
  C:40FBH         LINE#         506
  C:40FBH         LINE#         507
  C:40FEH         LINE#         508
  C:4101H         LINE#         510
  C:4101H         LINE#         511
  C:4101H         LINE#         512
  C:4101H         LINE#         513
BL51 BANKED LINKER/LOCATER V6.22.2.0                                                  08/04/2022  09:41:28  PAGE 80


  C:4109H         LINE#         514
  C:4109H         LINE#         515
  C:4113H         LINE#         516
  C:4113H         LINE#         517
  C:4113H         LINE#         518
  C:411CH         LINE#         519
  C:411CH         LINE#         520
  C:411FH         LINE#         521
  C:4136H         LINE#         522
  C:4138H         LINE#         527
  C:4138H         LINE#         528
  C:4138H         LINE#         529
  C:4138H         LINE#         530
  C:413DH         LINE#         531
  C:413FH         LINE#         532
  C:414CH         LINE#         533
  C:415CH         LINE#         534
  C:415CH         LINE#         535
  C:4162H         LINE#         536
  C:4171H         LINE#         537
  C:4173H         LINE#         538
  C:4173H         LINE#         539
  C:4173H         LINE#         540
  C:4173H         LINE#         541
  C:417AH         LINE#         542
  C:417AH         LINE#         543
  C:417DH         LINE#         545
  C:417DH         LINE#         547
  C:418DH         LINE#         548
  C:418DH         LINE#         549
  C:4193H         LINE#         550
  C:4193H         LINE#         551
  C:4193H         LINE#         552
  C:419CH         LINE#         553
  C:419CH         LINE#         554
  C:41B3H         LINE#         555
  C:41C6H         LINE#         556
  C:41CCH         LINE#         557
  C:41DBH         LINE#         558
  C:41DBH         LINE#         559
  C:41E0H         LINE#         560
  C:41E5H         LINE#         561
  C:41E5H         LINE#         562
  C:41E5H         LINE#         563
  C:41EFH         LINE#         564
  C:41EFH         LINE#         565
  C:41F3H         LINE#         566
  C:41F3H         LINE#         567
  C:41F3H         LINE#         568
  C:41F3H         LINE#         569
  C:41F3H         LINE#         570
  C:41FEH         LINE#         571
  -------         ENDPROC       _PSWDELETEKEY
  -------         PROC          DELETEALLPSWCON
  C:7833H         LINE#         573
  C:7833H         LINE#         574
  C:7833H         LINE#         575
BL51 BANKED LINKER/LOCATER V6.22.2.0                                                  08/04/2022  09:41:28  PAGE 81


  C:7839H         LINE#         576
  C:783CH         LINE#         577
  -------         ENDPROC       DELETEALLPSWCON
  -------         PROC          _PSWDELALLKEY
  D:0007H         SYMBOL        key
  C:7797H         LINE#         579
  C:7797H         LINE#         580
  C:7797H         LINE#         581
  C:77A4H         LINE#         582
  C:77A4H         LINE#         583
  C:77A4H         LINE#         584
  C:77A7H         LINE#         585
  C:77AAH         LINE#         586
  C:77AAH         LINE#         587
  C:77AAH         LINE#         588
  C:77AAH         LINE#         589
  C:77ADH         LINE#         590
  C:77ADH         LINE#         591
  C:77ADH         LINE#         592
  -------         ENDPROC       _PSWDELALLKEY
  -------         PROC          PSWSETCON
  -------         DO            
  X:1089H         SYMBOL        Disbuf
  -------         ENDDO         
  C:658FH         LINE#         594
  C:658FH         LINE#         595
  C:658FH         LINE#         598
  C:6595H         LINE#         600
  C:6598H         LINE#         601
  C:65A4H         LINE#         602
  C:65B1H         LINE#         603
  C:65BEH         LINE#         604
  C:65CBH         LINE#         605
  C:65F1H         LINE#         609
  -------         ENDPROC       PSWSETCON
  -------         PROC          _PSWSETKEY
  D:0007H         SYMBOL        key
  C:75AAH         LINE#         613
  C:75AAH         LINE#         614
  C:75AAH         LINE#         615
  C:75BEH         LINE#         616
  C:75BEH         LINE#         617
  C:75BEH         LINE#         618
  C:75C1H         LINE#         619
  C:75C1H         LINE#         620
  C:75C1H         LINE#         621
  C:75C4H         LINE#         622
  C:75C4H         LINE#         623
  C:75C4H         LINE#         624
  C:75C7H         LINE#         625
  C:75C7H         LINE#         626
  C:75C7H         LINE#         627
  C:75C7H         LINE#         628
  C:75CAH         LINE#         629
  C:75CAH         LINE#         630
  C:75CAH         LINE#         631
  -------         ENDPROC       _PSWSETKEY
BL51 BANKED LINKER/LOCATER V6.22.2.0                                                  08/04/2022  09:41:28  PAGE 82


  -------         PROC          INPUTPSWCON
  C:7496H         LINE#         633
  C:7496H         LINE#         634
  C:7496H         LINE#         635
  C:74A3H         LINE#         636
  C:74A9H         LINE#         637
  C:74ACH         LINE#         638
  C:74B2H         LINE#         639
  C:74B5H         LINE#         640
  -------         ENDPROC       INPUTPSWCON
  -------         PROC          _PSWINPUTKEY
  X:1082H         SYMBOL        key
  C:48E4H         LINE#         643
  C:48E9H         LINE#         644
  C:48E9H         LINE#         723
  C:48EDH         LINE#         724
  C:48EDH         LINE#         725
  C:48F4H         LINE#         726
  C:48F4H         LINE#         742
  C:48F4H         LINE#         743
  C:48FDH         LINE#         744
  C:48FDH         LINE#         745
  C:4900H         LINE#         746
  C:491DH         LINE#         747
  C:491FH         LINE#         755
  C:491FH         LINE#         756
  C:491FH         LINE#         757
  C:491FH         LINE#         758
  C:491FH         LINE#         759
  C:4926H         LINE#         760
  C:4926H         LINE#         761
  C:4929H         LINE#         763
  C:492CH         LINE#         766
  C:492CH         LINE#         768
  C:4942H         LINE#         769
  C:4942H         LINE#         770
  C:494CH         LINE#         771
  C:494CH         LINE#         784
  C:494CH         LINE#         785
  C:4955H         LINE#         786
  C:4955H         LINE#         787
  C:4972H         LINE#         788
  C:499BH         LINE#         789
  C:49A1H         LINE#         790
  C:49A1H         LINE#         791
  C:49BAH         LINE#         792
  C:49BAH         LINE#         793
  C:49BEH         LINE#         794
  C:49BEH         LINE#         798
  C:49C6H         LINE#         799
  C:49C6H         LINE#         801
  C:49C6H         LINE#         803
  C:49D5H         LINE#         804
  C:49D5H         LINE#         805
  C:49DAH         LINE#         806
  C:49E3H         LINE#         807
  C:49EDH         LINE#         808
BL51 BANKED LINKER/LOCATER V6.22.2.0                                                  08/04/2022  09:41:28  PAGE 83


  C:49F4H         LINE#         809
  C:49F8H         LINE#         810
  C:49FEH         LINE#         812
  C:49FEH         LINE#         814
  C:49FEH         LINE#         815
  C:4A08H         LINE#         816
  C:4A0DH         LINE#         817
  C:4A12H         LINE#         818
  C:4A15H         LINE#         819
  C:4A1AH         LINE#         820
  C:4A23H         LINE#         821
  C:4A23H         LINE#         822
  C:4A24H         LINE#         834
  C:4A24H         LINE#         835
  C:4A24H         LINE#         836
  C:4A24H         LINE#         837
  C:4A24H         LINE#         838
  C:4A27H         LINE#         839
  -------         ENDPROC       _PSWINPUTKEY
  -------         PROC          EDITSYSPSWCON
  C:7402H         LINE#         842
  C:7402H         LINE#         843
  C:7402H         LINE#         844
  C:740FH         LINE#         845
  C:7414H         LINE#         846
  C:7416H         LINE#         847
  C:741CH         LINE#         848
  -------         ENDPROC       EDITSYSPSWCON
  -------         PROC          SAVESYSPSW
  C:7660H         LINE#         850
  C:7660H         LINE#         851
  C:7660H         LINE#         852
  -------         ENDPROC       SAVESYSPSW
  -------         PROC          _SYSPSWEDITKEY
  X:1082H         SYMBOL        key
  -------         DO            
  D:0006H         SYMBOL        tmp
  B:0022H.0       SYMBOL        Saved
  -------         ENDDO         
  C:29EFH         LINE#         855
  C:29F4H         LINE#         856
  C:29F4H         LINE#         859
  C:29FBH         LINE#         860
  C:29FBH         LINE#         861
  C:2A06H         LINE#         862
  C:2A06H         LINE#         863
  C:2A09H         LINE#         864
  C:2A09H         LINE#         865
  C:2A15H         LINE#         866
  C:2A1AH         LINE#         867
  C:2A1DH         LINE#         869
  C:2A1DH         LINE#         870
  C:2A53H         LINE#         872
  C:2A53H         LINE#         873
  C:2A67H         LINE#         874
  C:2A6AH         LINE#         875
  C:2A6DH         LINE#         876
BL51 BANKED LINKER/LOCATER V6.22.2.0                                                  08/04/2022  09:41:28  PAGE 84


  C:2A7AH         LINE#         877
  C:2A7CH         LINE#         878
  C:2A86H         LINE#         879
  C:2A90H         LINE#         880
  C:2A91H         LINE#         882
  C:2A91H         LINE#         883
  C:2A9BH         LINE#         884
  C:2AA5H         LINE#         885
  C:2AA8H         LINE#         886
  C:2AA8H         LINE#         888
  C:2AA8H         LINE#         889
  C:2AA8H         LINE#         890
  C:2AB8H         LINE#         891
  C:2AB8H         LINE#         893
  C:2AB8H         LINE#         894
  C:2ABEH         LINE#         895
  C:2AC7H         LINE#         896
  C:2ACAH         LINE#         897
  C:2AD8H         LINE#         898
  C:2AD8H         LINE#         899
  C:2AD8H         LINE#         900
  C:2ADBH         LINE#         901
  C:2ADBH         LINE#         902
  C:2ADDH         LINE#         903
  C:2ADDH         LINE#         904
  C:2AE7H         LINE#         905
  C:2AECH         LINE#         906
  C:2AEFH         LINE#         907
  C:2AEFH         LINE#         908
  C:2AF2H         LINE#         909
  C:2AF5H         LINE#         911
  C:2AF5H         LINE#         912
  C:2AF5H         LINE#         913
  C:2B00H         LINE#         914
  C:2B00H         LINE#         915
  C:2B14H         LINE#         916
  C:2B14H         LINE#         917
  C:2B14H         LINE#         918
  C:2B1DH         LINE#         919
  C:2B1DH         LINE#         920
  C:2B20H         LINE#         921
  C:2B3AH         LINE#         922
  C:2B3CH         LINE#         924
  C:2B3CH         LINE#         925
  C:2B3EH         LINE#         927
  C:2B3EH         LINE#         928
  C:2B3EH         LINE#         929
  C:2B3EH         LINE#         930
  C:2B47H         LINE#         931
  C:2B47H         LINE#         932
  C:2B4AH         LINE#         933
  C:2B67H         LINE#         934
  C:2B69H         LINE#         936
  C:2B69H         LINE#         937
  C:2B6FH         LINE#         938
  C:2B72H         LINE#         939
  C:2B7CH         LINE#         940
BL51 BANKED LINKER/LOCATER V6.22.2.0                                                  08/04/2022  09:41:28  PAGE 85


  C:2B85H         LINE#         941
  C:2B85H         LINE#         942
  C:2B8BH         LINE#         943
  C:2B92H         LINE#         944
  C:2B94H         LINE#         945
  C:2B94H         LINE#         946
  C:2B94H         LINE#         947
  C:2B94H         LINE#         948
  C:2B99H         LINE#         949
  C:2B9BH         LINE#         950
  C:2B9DH         LINE#         951
  C:2B9DH         LINE#         952
  C:2B9DH         LINE#         953
  C:2BA4H         LINE#         954
  C:2BA4H         LINE#         955
  C:2BA7H         LINE#         957
  C:2BA7H         LINE#         959
  C:2BBDH         LINE#         960
  C:2BBDH         LINE#         961
  C:2BCAH         LINE#         962
  C:2BCAH         LINE#         963
  C:2BCAH         LINE#         964
  C:2BD3H         LINE#         965
  C:2BD3H         LINE#         966
  C:2BF0H         LINE#         967
  C:2C19H         LINE#         968
  C:2C1FH         LINE#         969
  C:2C1FH         LINE#         970
  C:2C38H         LINE#         971
  C:2C38H         LINE#         972
  C:2C38H         LINE#         973
  C:2C38H         LINE#         974
  C:2C3AH         LINE#         975
  C:2C3AH         LINE#         976
  C:2C43H         LINE#         977
  C:2C43H         LINE#         978
  C:2C60H         LINE#         979
  C:2C89H         LINE#         980
  C:2C8FH         LINE#         981
  C:2C8FH         LINE#         982
  C:2CA8H         LINE#         983
  C:2CA8H         LINE#         984
  C:2CACH         LINE#         985
  C:2CACH         LINE#         986
  C:2CACH         LINE#         987
  C:2CACH         LINE#         988
  C:2CACH         LINE#         989
  C:2CAFH         LINE#         990
  -------         ENDPROC       _SYSPSWEDITKEY
  -------         ENDMOD        UNLOCKPASSWORD

  -------         MODULE        SYSSTRING
  C:0000H         SYMBOL        _ICE_DUMMY_
  C:279BH         PUBLIC        StrTabErr
  C:2830H         PUBLIC        StrTabListCount
  D:0080H         PUBLIC        P0
  C:2795H         PUBLIC        StrTabSaveOK
BL51 BANKED LINKER/LOCATER V6.22.2.0                                                  08/04/2022  09:41:28  PAGE 86


  D:0090H         PUBLIC        P1
  D:00A0H         PUBLIC        P2
  C:2873H         PUBLIC        StrTabDelAllCard
  D:00B0H         PUBLIC        P3
  D:00C0H         PUBLIC        P4
  D:00C8H         PUBLIC        P5
  C:27BCH         PUBLIC        StrTabDelOK
  C:29E8H         PUBLIC        StrTabNum
  D:00E8H         PUBLIC        P6
  D:00F8H         PUBLIC        P7
  C:798FH         PUBLIC        ShowConfirmSave
  C:2756H         PUBLIC        StrTabDelAllName
  C:2928H         PUBLIC        StrTabMain1
  C:2938H         PUBLIC        StrTabMain2
  C:799FH         PUBLIC        ShowConfirmDel
  D:00A8H         PUBLIC        IE
  C:2946H         PUBLIC        StrTabMain3
  C:2954H         PUBLIC        StrTabMain4
  C:295AH         PUBLIC        StrTabMain5
  C:2963H         PUBLIC        StrTabMain6
  C:2914H         PUBLIC        StrTabOn
  C:296DH         PUBLIC        StrTabMain7
  C:297DH         PUBLIC        StrTabMain8
  C:7735H         PUBLIC        ShowUnlock
  C:2987H         PUBLIC        StrTabMain9
  C:7889H         PUBLIC        ShowDeleteOK
  D:00B8H         PUBLIC        IP
  C:29B5H         PUBLIC        StrTabRoomErr
  C:28F5H         PUBLIC        StrTabCamrea
  D:00D8H         PUBLIC        CCON
  C:291BH         PUBLIC        StrTabGsmErr
  C:79BFH         PUBLIC        ShowReset
  C:553EH         PUBLIC        _ShowMain
  C:2709H         PUBLIC        FhChar
  C:2847H         PUBLIC        StrTabCardSet1
  C:2854H         PUBLIC        StrTabCardSet2
  C:2862H         PUBLIC        StrTabCardSet3
  D:0098H         PUBLIC        SCON
  D:0088H         PUBLIC        TCON
  C:2727H         PUBLIC        StrTabNameSet1
  C:2737H         PUBLIC        StrTabNameSet2
  C:2745H         PUBLIC        StrTabNameSet3
  C:2995H         PUBLIC        StrTabMain10
  C:29A5H         PUBLIC        StrTabMain11
  X:1293H         PUBLIC        DisBuf
  C:2814H         PUBLIC        StrTabPsw1
  D:00F0H         PUBLIC        B
  C:27C9H         PUBLIC        StrTabDelAllPsw
  C:2826H         PUBLIC        StrTabPsw2
  C:281EH         PUBLIC        StrTabPsw3
  C:2712H         PUBLIC        StrTabSysSet
  C:289CH         PUBLIC        StrTabUnlock
  C:6D95H         PUBLIC        ShowTalkTime
  D:00E0H         PUBLIC        ACC
  C:789EH         PUBLIC        ShowCardErr
  C:7874H         PUBLIC        ShowErr
  C:785FH         PUBLIC        ShowSaveOK
BL51 BANKED LINKER/LOCATER V6.22.2.0                                                  08/04/2022  09:41:28  PAGE 87


  C:288AH         PUBLIC        StrTabCard
  C:2837H         PUBLIC        StrTabSysPsw
  C:28AEH         PUBLIC        StrTabCall
  C:28FDH         PUBLIC        StrTabRelay
  C:2778H         PUBLIC        StrTabName
  C:29CFH         PUBLIC        StrTabReset
  C:29C6H         PUBLIC        StrTabTalk
  C:28CDH         PUBLIC        StrTabCallTime
  C:27A2H         PUBLIC        StrTabDel
  C:29D9H         PUBLIC        StrTabTalkValum
  C:28D7H         PUBLIC        StrTabTone
  C:79AFH         PUBLIC        ShowRoomErr
  C:2909H         PUBLIC        StrTabUnlockKey
  C:27E4H         PUBLIC        StrTabPswSet1
  C:2917H         PUBLIC        StrTabOff
  C:27F5H         PUBLIC        StrTabPswSet2
  C:2806H         PUBLIC        StrTabPswSet3
  C:276DH         PUBLIC        StrTabRoom
  C:28B8H         PUBLIC        StrTabTalkTime
  C:2722H         PUBLIC        StrTabSysSet1
  C:000AH         PUBLIC        ShowGsmCsq
  C:2785H         PUBLIC        StrTabMakeSure
  C:28C2H         PUBLIC        StrTabRingTime
  C:277EH         PUBLIC        StrTabTel
  D:00D0H         PUBLIC        PSW
  C:2890H         PUBLIC        StrTabCardErr
  -------         PROC          SHOWCONFIRMSAVE
  C:798FH         LINE#         162
  C:798FH         LINE#         163
  C:798FH         LINE#         164
  C:7992H         LINE#         165
  -------         ENDPROC       SHOWCONFIRMSAVE
  -------         PROC          SHOWCONFIRMDEL
  C:799FH         LINE#         167
  C:799FH         LINE#         168
  C:799FH         LINE#         169
  C:79A2H         LINE#         170
  -------         ENDPROC       SHOWCONFIRMDEL
  -------         PROC          SHOWSAVEOK
  C:785FH         LINE#         172
  C:785FH         LINE#         173
  C:785FH         LINE#         174
  C:7862H         LINE#         175
  C:786FH         LINE#         176
  -------         ENDPROC       SHOWSAVEOK
  -------         PROC          SHOWERR
  C:7874H         LINE#         178
  C:7874H         LINE#         179
  C:7874H         LINE#         180
  C:7877H         LINE#         181
  C:7884H         LINE#         182
  -------         ENDPROC       SHOWERR
  -------         PROC          SHOWDELETEOK
  C:7889H         LINE#         184
  C:7889H         LINE#         185
  C:7889H         LINE#         186
  C:788CH         LINE#         187
BL51 BANKED LINKER/LOCATER V6.22.2.0                                                  08/04/2022  09:41:28  PAGE 88


  C:7899H         LINE#         188
  -------         ENDPROC       SHOWDELETEOK
  -------         PROC          SHOWCARDERR
  C:789EH         LINE#         191
  C:789EH         LINE#         192
  C:789EH         LINE#         193
  C:78A1H         LINE#         194
  C:78AEH         LINE#         195
  -------         ENDPROC       SHOWCARDERR
  -------         PROC          SHOWUNLOCK
  B:0020H.1       SYMBOL        Sound
  C:7735H         LINE#         197
  C:7735H         LINE#         198
  C:7735H         LINE#         199
  C:7738H         LINE#         200
  C:7745H         LINE#         201
  C:7748H         LINE#         202
  C:7748H         LINE#         203
  C:774DH         LINE#         204
  C:774DH         LINE#         205
  -------         ENDPROC       SHOWUNLOCK
  -------         PROC          SHOWROOMERR
  C:79AFH         LINE#         213
  C:79AFH         LINE#         214
  C:79AFH         LINE#         215
  C:79B2H         LINE#         216
  -------         ENDPROC       SHOWROOMERR
  -------         PROC          SHOWGSMCSQ
  C:000AH         LINE#         219
  C:000AH         LINE#         220
  C:000AH         LINE#         229
  -------         ENDPROC       SHOWGSMCSQ
  -------         PROC          _SHOWMAIN
  X:1083H         SYMBOL        first
  C:553EH         LINE#         231
  C:5543H         LINE#         232
  C:5543H         LINE#         233
  C:5546H         LINE#         234
  C:5549H         LINE#         261
  C:554FH         LINE#         262
  C:554FH         LINE#         263
  C:555AH         LINE#         264
  C:5563H         LINE#         267
  C:5570H         LINE#         271
  C:557DH         LINE#         274
  C:558AH         LINE#         275
  C:5593H         LINE#         276
  C:5597H         LINE#         278
  C:5599H         LINE#         280
  C:55A1H         LINE#         281
  C:55A1H         LINE#         282
  C:55ACH         LINE#         285
  C:55B9H         LINE#         287
  C:55C6H         LINE#         289
  C:55D3H         LINE#         290
  C:55DCH         LINE#         293
  C:55DCH         LINE#         295
BL51 BANKED LINKER/LOCATER V6.22.2.0                                                  08/04/2022  09:41:28  PAGE 89


  C:55E4H         LINE#         296
  C:55E4H         LINE#         297
  C:55EFH         LINE#         298
  C:55F8H         LINE#         300
  C:5605H         LINE#         301
  C:560EH         LINE#         303
  C:561BH         LINE#         304
  C:561BH         LINE#         307
  -------         ENDPROC       _SHOWMAIN
  -------         PROC          SHOWTALKTIME
  C:6D95H         LINE#         309
  C:6D95H         LINE#         310
  C:6D95H         LINE#         311
  C:6D98H         LINE#         317
  C:6DCAH         LINE#         318
  -------         ENDPROC       SHOWTALKTIME
  -------         PROC          SHOWRESET
  C:79BFH         LINE#         321
  C:79BFH         LINE#         322
  C:79BFH         LINE#         323
  C:79C2H         LINE#         324
  -------         ENDPROC       SHOWRESET
  -------         ENDMOD        SYSSTRING

  -------         MODULE        CARD
  C:0000H         SYMBOL        _ICE_DUMMY_
  C:3CEBH         PUBLIC        _CardDeleteKey
  D:0080H         PUBLIC        P0
  D:0090H         PUBLIC        P1
  D:00A0H         PUBLIC        P2
  D:00B0H         PUBLIC        P3
  D:00C0H         PUBLIC        P4
  D:00C8H         PUBLIC        P5
  D:00E8H         PUBLIC        P6
  D:00F8H         PUBLIC        P7
  D:00A8H         PUBLIC        IE
  C:7849H         PUBLIC        DeleteAllCardCon
  C:7914H         PUBLIC        InitCard
  X:12BFH         PUBLIC        CardEditItem
  C:561CH         PUBLIC        _AddCardItem
  D:00B8H         PUBLIC        IP
  X:12C5H         SYMBOL        CardEditMidx
  C:7500H         PUBLIC        SaveCardCount
  C:3351H         PUBLIC        _ShowCard
  D:00D8H         PUBLIC        CCON
  C:744CH         PUBLIC        EditCardCon
  X:12C6H         SYMBOL        CardEditIdx
  C:3EA3H         PUBLIC        _CardEditKey
  D:0098H         PUBLIC        SCON
  D:0088H         PUBLIC        TCON
  C:6E57H         PUBLIC        _CardEditCardIn
  D:00F0H         PUBLIC        B
  D:00E0H         PUBLIC        ACC
  C:720BH         PUBLIC        _DelCardByCard
  C:666DH         PUBLIC        CardSetCon
  C:75CBH         PUBLIC        _CardSetKey
  C:77AEH         PUBLIC        _CardDelAllKey
BL51 BANKED LINKER/LOCATER V6.22.2.0                                                  08/04/2022  09:41:28  PAGE 90


  C:5C1CH         PUBLIC        _CheckCard
  C:706CH         PUBLIC        _ReadCardByIdx
  C:7A1DH         PUBLIC        ClearCard
  C:703BH         PUBLIC        _WriteCardByIdx
  C:7427H         PUBLIC        _DelCardByRoom
  C:6FA4H         PUBLIC        DeleteCardCon
  C:65FEH         PUBLIC        _DelCardByIdx
  D:00D0H         PUBLIC        PSW
  -------         PROC          SAVECARDCOUNT
  C:7500H         LINE#         11
  C:7500H         LINE#         12
  C:7500H         LINE#         13
  -------         ENDPROC       SAVECARDCOUNT
  -------         PROC          CLEARCARD
  C:7A1DH         LINE#         16
  C:7A1DH         LINE#         17
  C:7A1DH         LINE#         18
  C:7A24H         LINE#         19
  -------         ENDPROC       CLEARCARD
  -------         PROC          INITCARD
  C:7914H         LINE#         22
  C:7914H         LINE#         23
  C:7914H         LINE#         24
  C:7923H         LINE#         25
  C:7923H         LINE#         26
  C:7926H         LINE#         27
  C:7926H         LINE#         28
  -------         ENDPROC       INITCARD
  -------         PROC          _WRITECARDBYIDX
  D:0006H         SYMBOL        idx
  X:1090H         SYMBOL        pItem
  -------         DO            
  D:0006H         SYMBOL        addr
  -------         ENDDO         
  C:703BH         LINE#         30
  C:7046H         LINE#         31
  C:7046H         LINE#         32
  C:7046H         LINE#         33
  C:704DH         LINE#         34
  -------         ENDPROC       _WRITECARDBYIDX
  -------         PROC          _READCARDBYIDX
  D:0006H         SYMBOL        idx
  X:1093H         SYMBOL        pItem
  -------         DO            
  D:0006H         SYMBOL        addr
  -------         ENDDO         
  C:706CH         LINE#         37
  C:7077H         LINE#         38
  C:7077H         LINE#         39
  C:7077H         LINE#         40
  C:707EH         LINE#         41
  -------         ENDPROC       _READCARDBYIDX
  -------         PROC          _CHECKCARD
  X:1088H         SYMBOL        card
  -------         DO            
  X:108BH         SYMBOL        tmpItem
  X:1091H         SYMBOL        idx
BL51 BANKED LINKER/LOCATER V6.22.2.0                                                  08/04/2022  09:41:28  PAGE 91


  D:0007H         SYMBOL        i
  -------         ENDDO         
  C:5C1CH         LINE#         56
  C:5C27H         LINE#         57
  C:5C27H         LINE#         59
  C:5C2EH         LINE#         61
  C:5C38H         LINE#         62
  C:5C38H         LINE#         63
  C:5C3AH         LINE#         64
  C:5C3AH         LINE#         65
  C:5C50H         LINE#         66
  C:5C50H         LINE#         67
  C:5C59H         LINE#         68
  C:5C5BH         LINE#         69
  C:5C5BH         LINE#         70
  C:5C7DH         LINE#         71
  C:5C7DH         LINE#         72
  C:5C7DH         LINE#         73
  C:5C7DH         LINE#         74
  C:5C82H         LINE#         75
  C:5C86H         LINE#         76
  C:5C86H         LINE#         77
  C:5C9EH         LINE#         78
  C:5CA7H         LINE#         79
  C:5CA7H         LINE#         80
  C:5CB5H         LINE#         81
  C:5CB7H         LINE#         82
  C:5CBBH         LINE#         83
  -------         ENDPROC       _CHECKCARD
  -------         PROC          _ADDCARDITEM
  X:1085H         SYMBOL        pItem
  -------         DO            
  X:1088H         SYMBOL        tmpItem
  X:108EH         SYMBOL        idx
  D:0007H         SYMBOL        i
  -------         ENDDO         
  C:561CH         LINE#         85
  C:5627H         LINE#         86
  C:5627H         LINE#         88
  C:562EH         LINE#         90
  C:5644H         LINE#         91
  C:5644H         LINE#         92
  C:564DH         LINE#         94
  C:5669H         LINE#         95
  C:5669H         LINE#         96
  C:566AH         LINE#         97
  C:566AH         LINE#         98
  C:5694H         LINE#         99
  C:5694H         LINE#         100
  C:5694H         LINE#         101
  C:5694H         LINE#         102
  C:5699H         LINE#         103
  C:569DH         LINE#         104
  C:569DH         LINE#         105
  C:56A6H         LINE#         106
  C:56A6H         LINE#         107
  C:56A6H         LINE#         108
BL51 BANKED LINKER/LOCATER V6.22.2.0                                                  08/04/2022  09:41:28  PAGE 92


  C:56B4H         LINE#         109
  C:56B7H         LINE#         110
  C:56C7H         LINE#         111
  C:56C7H         LINE#         112
  C:56D5H         LINE#         113
  C:56E3H         LINE#         114
  C:56E6H         LINE#         115
  C:56F5H         LINE#         116
  C:56F5H         LINE#         117
  C:56F9H         LINE#         118
  -------         ENDPROC       _ADDCARDITEM
  -------         PROC          _DELCARDBYIDX
  X:1088H         SYMBOL        idx
  -------         DO            
  X:108AH         SYMBOL        tmpItem
  -------         ENDDO         
  C:65FEH         LINE#         120
  C:6606H         LINE#         121
  C:6606H         LINE#         123
  C:6614H         LINE#         124
  C:6614H         LINE#         125
  C:6628H         LINE#         126
  C:6628H         LINE#         127
  C:6636H         LINE#         128
  C:6639H         LINE#         129
  C:6639H         LINE#         131
  C:6639H         LINE#         132
  C:6647H         LINE#         133
  C:664AH         LINE#         134
  C:665BH         LINE#         135
  C:666CH         LINE#         136
  C:666CH         LINE#         137
  C:666CH         LINE#         138
  -------         ENDPROC       _DELCARDBYIDX
  -------         PROC          _DELCARDBYROOM
  X:1085H         SYMBOL        room
  -------         DO            
  D:0006H         SYMBOL        idx
  -------         ENDDO         
  C:7427H         LINE#         140
  C:742FH         LINE#         141
  C:742FH         LINE#         142
  C:7431H         LINE#         143
  C:7439H         LINE#         144
  C:7439H         LINE#         145
  C:743CH         LINE#         146
  C:7449H         LINE#         147
  C:744BH         LINE#         148
  -------         ENDPROC       _DELCARDBYROOM
  -------         PROC          _DELCARDBYCARD
  X:1085H         SYMBOL        card
  -------         DO            
  D:0006H         SYMBOL        idx
  -------         ENDDO         
  C:720BH         LINE#         150
  C:7216H         LINE#         151
  C:7216H         LINE#         152
BL51 BANKED LINKER/LOCATER V6.22.2.0                                                  08/04/2022  09:41:28  PAGE 93


  C:7218H         LINE#         153
  C:7220H         LINE#         154
  C:7220H         LINE#         155
  C:7223H         LINE#         156
  C:7231H         LINE#         157
  C:7233H         LINE#         158
  -------         ENDPROC       _DELCARDBYCARD
  -------         PROC          _SHOWCARD
  X:1087H         SYMBOL        pItem
  B:0020H.0       SYMBOL        edit
  -------         DO            
  X:108AH         SYMBOL        num
  X:108EH         SYMBOL        Disbuf
  -------         ENDDO         
  C:3351H         LINE#         165
  C:335CH         LINE#         166
  C:335CH         LINE#         170
  C:335FH         LINE#         195
  C:337DH         LINE#         196
  C:337DH         LINE#         197
  C:3397H         LINE#         198
  C:3399H         LINE#         200
  C:3399H         LINE#         201
  C:33B7H         LINE#         202
  C:33B7H         LINE#         203
  C:33C4H         LINE#         206
  C:33CAH         LINE#         207
  C:33CAH         LINE#         212
  C:33DAH         LINE#         214
  C:33DAH         LINE#         215
  C:33E0H         LINE#         216
  C:33E0H         LINE#         218
  C:33EDH         LINE#         219
  C:3409H         LINE#         220
  C:3409H         LINE#         225
  C:3425H         LINE#         226
  C:343EH         LINE#         227
  C:347DH         LINE#         228
  C:3496H         LINE#         229
  C:34D5H         LINE#         230
  C:34EEH         LINE#         231
  C:352DH         LINE#         236
  C:3569H         LINE#         237
  C:3576H         LINE#         239
  C:3576H         LINE#         241
  C:3576H         LINE#         242
  -------         ENDPROC       _SHOWCARD
  -------         PROC          EDITCARDCON
  C:744CH         LINE#         244
  C:744CH         LINE#         245
  C:744CH         LINE#         246
  C:7459H         LINE#         247
  C:745EH         LINE#         248
  C:7460H         LINE#         249
  C:7466H         LINE#         250
  -------         ENDPROC       EDITCARDCON
  -------         PROC          _CARDEDITKEY
BL51 BANKED LINKER/LOCATER V6.22.2.0                                                  08/04/2022  09:41:28  PAGE 94


  X:1082H         SYMBOL        key
  -------         DO            
  X:1083H         SYMBOL        tmp
  B:0022H.6       SYMBOL        Saved
  -------         ENDDO         
  C:3EA3H         LINE#         253
  C:3EA8H         LINE#         254
  C:3EA8H         LINE#         257
  C:3EAFH         LINE#         258
  C:3EAFH         LINE#         259
  C:3EB7H         LINE#         260
  C:3EB7H         LINE#         261
  C:3EBAH         LINE#         262
  C:3EBAH         LINE#         263
  C:3EC6H         LINE#         264
  C:3ECBH         LINE#         265
  C:3ECDH         LINE#         267
  C:3ECDH         LINE#         268
  C:3EEBH         LINE#         270
  C:3EEBH         LINE#         271
  C:3EFCH         LINE#         272
  C:3EFCH         LINE#         273
  C:3EFFH         LINE#         274
  C:3F01H         LINE#         276
  C:3F01H         LINE#         277
  C:3F04H         LINE#         278
  C:3F04H         LINE#         279
  C:3F11H         LINE#         280
  C:3F13H         LINE#         281
  C:3F14H         LINE#         283
  C:3F14H         LINE#         284
  C:3F17H         LINE#         285
  C:3F17H         LINE#         287
  C:3F17H         LINE#         288
  C:3F17H         LINE#         289
  C:3F1DH         LINE#         290
  C:3F22H         LINE#         291
  C:3F25H         LINE#         292
  C:3F2FH         LINE#         293
  C:3F2FH         LINE#         294
  C:3F2FH         LINE#         295
  C:3F34H         LINE#         296
  C:3F41H         LINE#         297
  C:3F54H         LINE#         298
  C:3F54H         LINE#         299
  C:3F5AH         LINE#         300
  C:3F69H         LINE#         301
  C:3F6BH         LINE#         302
  C:3F6BH         LINE#         303
  C:3F6BH         LINE#         308
  C:3F6EH         LINE#         309
  C:3F71H         LINE#         311
  C:3F71H         LINE#         312
  C:3F71H         LINE#         313
  C:3F79H         LINE#         314
  C:3F79H         LINE#         315
  C:3F83H         LINE#         316
BL51 BANKED LINKER/LOCATER V6.22.2.0                                                  08/04/2022  09:41:28  PAGE 95


  C:3F83H         LINE#         317
  C:3F83H         LINE#         318
  C:3F8CH         LINE#         319
  C:3F8CH         LINE#         320
  C:3F8FH         LINE#         321
  C:3FA6H         LINE#         322
  C:3FA8H         LINE#         327
  C:3FA8H         LINE#         328
  C:3FA8H         LINE#         347
  C:3FA8H         LINE#         348
  C:3FADH         LINE#         349
  C:3FAFH         LINE#         350
  C:3FBCH         LINE#         351
  C:3FCCH         LINE#         352
  C:3FCCH         LINE#         353
  C:3FD2H         LINE#         354
  C:3FE1H         LINE#         355
  C:3FE3H         LINE#         356
  C:3FE3H         LINE#         357
  C:3FE3H         LINE#         358
  C:3FE3H         LINE#         359
  C:3FEAH         LINE#         360
  C:3FEAH         LINE#         361
  C:3FEDH         LINE#         363
  C:3FEDH         LINE#         365
  C:3FFDH         LINE#         366
  C:3FFDH         LINE#         367
  C:4003H         LINE#         368
  C:4003H         LINE#         369
  C:4003H         LINE#         370
  C:400CH         LINE#         371
  C:400CH         LINE#         372
  C:4023H         LINE#         373
  C:4035H         LINE#         374
  C:403BH         LINE#         375
  C:4045H         LINE#         376
  C:4045H         LINE#         377
  C:4049H         LINE#         378
  C:4049H         LINE#         379
  C:4049H         LINE#         380
  C:4049H         LINE#         387
  C:4049H         LINE#         388
  C:4049H         LINE#         389
  C:4054H         LINE#         390
  -------         ENDPROC       _CARDEDITKEY
  -------         PROC          _CARDEDITCARDIN
  X:1084H         SYMBOL        card
  C:6E57H         LINE#         392
  C:6E62H         LINE#         393
  C:6E62H         LINE#         402
  C:6E87H         LINE#         403
  -------         ENDPROC       _CARDEDITCARDIN
  -------         PROC          DELETECARDCON
  C:6FA4H         LINE#         406
  C:6FA4H         LINE#         407
  C:6FA4H         LINE#         408
  C:6FB1H         LINE#         409
BL51 BANKED LINKER/LOCATER V6.22.2.0                                                  08/04/2022  09:41:28  PAGE 96


  C:6FB6H         LINE#         410
  C:6FB8H         LINE#         411
  C:6FBEH         LINE#         412
  -------         ENDPROC       DELETECARDCON
  -------         PROC          _CARDDELETEKEY
  X:1082H         SYMBOL        key
  -------         DO            
  X:1083H         SYMBOL        tmp
  B:0022H.7       SYMBOL        Saved
  -------         ENDDO         
  C:3CEBH         LINE#         415
  C:3CF0H         LINE#         416
  C:3CF0H         LINE#         419
  C:3CF7H         LINE#         420
  C:3CF7H         LINE#         421
  C:3CFFH         LINE#         422
  C:3CFFH         LINE#         423
  C:3D02H         LINE#         424
  C:3D02H         LINE#         425
  C:3D0EH         LINE#         426
  C:3D13H         LINE#         427
  C:3D15H         LINE#         429
  C:3D15H         LINE#         430
  C:3D24H         LINE#         431
  C:3D24H         LINE#         432
  C:3D2DH         LINE#         433
  C:3D2DH         LINE#         434
  C:3D2DH         LINE#         435
  C:3D2DH         LINE#         436
  C:3D2FH         LINE#         437
  C:3D42H         LINE#         438
  C:3D42H         LINE#         439
  C:3D45H         LINE#         440
  C:3D52H         LINE#         441
  C:3D54H         LINE#         442
  C:3D57H         LINE#         443
  C:3D57H         LINE#         445
  C:3D57H         LINE#         446
  C:3D57H         LINE#         447
  C:3D5DH         LINE#         448
  C:3D62H         LINE#         449
  C:3D65H         LINE#         450
  C:3D6FH         LINE#         451
  C:3D6FH         LINE#         452
  C:3D6FH         LINE#         453
  C:3D74H         LINE#         454
  C:3D81H         LINE#         455
  C:3D94H         LINE#         456
  C:3D94H         LINE#         457
  C:3D9AH         LINE#         458
  C:3DA9H         LINE#         459
  C:3DABH         LINE#         460
  C:3DABH         LINE#         461
  C:3DABH         LINE#         462
  C:3DAEH         LINE#         463
  C:3DB1H         LINE#         465
  C:3DB1H         LINE#         466
BL51 BANKED LINKER/LOCATER V6.22.2.0                                                  08/04/2022  09:41:28  PAGE 97


  C:3DB1H         LINE#         467
  C:3DB9H         LINE#         468
  C:3DB9H         LINE#         469
  C:3DC3H         LINE#         470
  C:3DC3H         LINE#         471
  C:3DC3H         LINE#         472
  C:3DCCH         LINE#         473
  C:3DCCH         LINE#         474
  C:3DCFH         LINE#         475
  C:3DE6H         LINE#         476
  C:3DE8H         LINE#         481
  C:3DE8H         LINE#         482
  C:3DE8H         LINE#         483
  C:3DE8H         LINE#         484
  C:3DEDH         LINE#         485
  C:3DEFH         LINE#         486
  C:3DFCH         LINE#         487
  C:3E0CH         LINE#         488
  C:3E0CH         LINE#         489
  C:3E12H         LINE#         490
  C:3E21H         LINE#         491
  C:3E23H         LINE#         492
  C:3E23H         LINE#         493
  C:3E23H         LINE#         494
  C:3E23H         LINE#         495
  C:3E2AH         LINE#         496
  C:3E2AH         LINE#         497
  C:3E2DH         LINE#         499
  C:3E2DH         LINE#         501
  C:3E3DH         LINE#         502
  C:3E3DH         LINE#         503
  C:3E43H         LINE#         504
  C:3E43H         LINE#         505
  C:3E43H         LINE#         506
  C:3E4CH         LINE#         507
  C:3E4CH         LINE#         508
  C:3E63H         LINE#         509
  C:3E75H         LINE#         510
  C:3E7BH         LINE#         511
  C:3E7BH         LINE#         512
  C:3E85H         LINE#         513
  C:3E85H         LINE#         514
  C:3E89H         LINE#         515
  C:3E89H         LINE#         516
  C:3E89H         LINE#         517
  C:3E89H         LINE#         518
  C:3E89H         LINE#         519
  C:3EA2H         LINE#         520
  -------         ENDPROC       _CARDDELETEKEY
  -------         PROC          DELETEALLCARDCON
  C:7849H         LINE#         522
  C:7849H         LINE#         523
  C:7849H         LINE#         524
  C:784FH         LINE#         525
  C:7852H         LINE#         526
  -------         ENDPROC       DELETEALLCARDCON
  -------         PROC          _CARDDELALLKEY
BL51 BANKED LINKER/LOCATER V6.22.2.0                                                  08/04/2022  09:41:28  PAGE 98


  D:0007H         SYMBOL        key
  C:77AEH         LINE#         528
  C:77AEH         LINE#         529
  C:77AEH         LINE#         530
  C:77BBH         LINE#         531
  C:77BBH         LINE#         532
  C:77BBH         LINE#         533
  C:77BEH         LINE#         534
  C:77C1H         LINE#         535
  C:77C1H         LINE#         536
  C:77C1H         LINE#         537
  C:77C1H         LINE#         538
  C:77C4H         LINE#         539
  C:77C4H         LINE#         540
  C:77C4H         LINE#         541
  -------         ENDPROC       _CARDDELALLKEY
  -------         PROC          CARDSETCON
  -------         DO            
  X:1085H         SYMBOL        Disbuf
  -------         ENDDO         
  C:666DH         LINE#         543
  C:666DH         LINE#         544
  C:666DH         LINE#         547
  C:6673H         LINE#         549
  C:6676H         LINE#         550
  C:6682H         LINE#         551
  C:668FH         LINE#         552
  C:669CH         LINE#         553
  C:66A9H         LINE#         554
  C:66CFH         LINE#         558
  -------         ENDPROC       CARDSETCON
  -------         PROC          _CARDSETKEY
  D:0007H         SYMBOL        key
  C:75CBH         LINE#         563
  C:75CBH         LINE#         564
  C:75CBH         LINE#         565
  C:75DFH         LINE#         566
  C:75DFH         LINE#         567
  C:75DFH         LINE#         568
  C:75E2H         LINE#         569
  C:75E2H         LINE#         570
  C:75E2H         LINE#         571
  C:75E5H         LINE#         572
  C:75E5H         LINE#         573
  C:75E5H         LINE#         574
  C:75E8H         LINE#         575
  C:75E8H         LINE#         576
  C:75E8H         LINE#         577
  C:75E8H         LINE#         578
  C:75EBH         LINE#         579
  C:75EBH         LINE#         580
  C:75EBH         LINE#         581
  -------         ENDPROC       _CARDSETKEY
  -------         ENDMOD        CARD

  -------         MODULE        CARDREAD
  C:0000H         SYMBOL        _ICE_DUMMY_
BL51 BANKED LINKER/LOCATER V6.22.2.0                                                  08/04/2022  09:41:28  PAGE 99


  D:0080H         PUBLIC        P0
  D:0090H         PUBLIC        P1
  D:00A0H         PUBLIC        P2
  D:00B0H         PUBLIC        P3
  D:00C0H         PUBLIC        P4
  D:00C8H         PUBLIC        P5
  D:00E8H         PUBLIC        P6
  X:11B1H         PUBLIC        WG_bitcnt
  D:00F8H         PUBLIC        P7
  X:11B5H         PUBLIC        WgTimeOut
  D:00A8H         PUBLIC        IE
  C:7702H         PUBLIC        CardReadInit
  B:0021H.2       PUBLIC        CardReadOK
  D:00B8H         PUBLIC        IP
  X:11B6H         PUBLIC        WG_code
  X:11BAH         PUBLIC        CodeOld
  X:11BEH         PUBLIC        RfidCardBuf
  D:00D8H         PUBLIC        CCON
  X:11D2H         PUBLIC        CodeCheckTs
  X:11D3H         PUBLIC        CardRaw
  X:11FBH         PUBLIC        CardCh
  X:11FDH         PUBLIC        CardBitCount
  D:0098H         PUBLIC        SCON
  X:11FEH         PUBLIC        CodeIn
  X:1202H         PUBLIC        CardChCount
  B:00B0H.2       PUBLIC        P32
  D:0088H         PUBLIC        TCON
  B:0021H.3       PUBLIC        WG_wait
  B:00B0H.3       PUBLIC        P33
  X:1203H         PUBLIC        CardGetBit
  D:00F0H         PUBLIC        B
  X:1204H         PUBLIC        CardRt
  C:767DH         PUBLIC        WgReset
  X:1205H         PUBLIC        CardInTime
  D:00E0H         PUBLIC        ACC
  C:7009H         PUBLIC        CardMsTask
  B:0021H.4       PUBLIC        WG_ok
  B:0021H.5       PUBLIC        CardGetOk
  C:79EDH         PUBLIC        WgWdg
  C:5B76H         PUBLIC        WG_Read26
  C:2F04H         PUBLIC        WG_Send26
  X:1207H         PUBLIC        CardCode
  D:00D0H         PUBLIC        PSW
  -------         PROC          CARDREADINIT
  C:7702H         LINE#         24
  C:7702H         LINE#         25
  C:7702H         LINE#         26
  C:7707H         LINE#         27
  C:770BH         LINE#         28
  C:7711H         LINE#         29
  C:7713H         LINE#         30
  C:7717H         LINE#         31
  C:7719H         LINE#         32
  C:771BH         LINE#         33
  -------         ENDPROC       CARDREADINIT
  -------         PROC          CARDMSTASK
  C:7009H         LINE#         35
BL51 BANKED LINKER/LOCATER V6.22.2.0                                                  08/04/2022  09:41:28  PAGE 100


  C:7009H         LINE#         36
  C:7009H         LINE#         37
  C:7013H         LINE#         38
  C:7013H         LINE#         39
  C:7021H         LINE#         40
  C:7021H         LINE#         41
  C:702BH         LINE#         42
  C:7030H         LINE#         43
  C:703AH         LINE#         44
  C:703AH         LINE#         45
  C:703AH         LINE#         46
  -------         ENDPROC       CARDMSTASK
  -------         PROC          WG_READ26
  C:5B76H         LINE#         51
  C:5B76H         LINE#         52
  C:5B76H         LINE#         54
  C:5B85H         LINE#         55
  C:5B85H         LINE#         57
  C:5B85H         LINE#         58
  C:5B87H         LINE#         60
  C:5B90H         LINE#         61
  C:5B90H         LINE#         63
  C:5B90H         LINE#         65
  C:5BA9H         LINE#         66
  C:5BAFH         LINE#         67
  C:5BAFH         LINE#         69
  C:5BAFH         LINE#         70
  C:5BB5H         LINE#         71
  C:5BB5H         LINE#         72
  C:5BCCH         LINE#         73
  C:5BCCH         LINE#         74
  C:5BD2H         LINE#         75
  C:5BF1H         LINE#         76
  C:5BF3H         LINE#         78
  C:5C0DH         LINE#         79
  C:5C0DH         LINE#         80
  C:5C17H         LINE#         82
  C:5C19H         LINE#         83
  C:5C1BH         LINE#         84
  C:5C1BH         LINE#         85
  -------         ENDPROC       WG_READ26
  -------         PROC          WG_SEND26
  -------         DO            
  X:1081H         SYMBOL        one_num
  X:1082H         SYMBOL        even
  X:1083H         SYMBOL        odd
  X:1084H         SYMBOL        check_temp
  X:1088H         SYMBOL        i
  X:108CH         SYMBOL        code_temp
  -------         ENDDO         
  C:2F04H         LINE#         88
  C:2F04H         LINE#         89
  C:2F04H         LINE#         91
  C:2F09H         LINE#         92
  C:2F0BH         LINE#         93
  C:2F0DH         LINE#         102
  C:2F13H         LINE#         103
BL51 BANKED LINKER/LOCATER V6.22.2.0                                                  08/04/2022  09:41:28  PAGE 101


  C:2F13H         LINE#         105
  C:2F13H         LINE#         106
  C:2F19H         LINE#         107
  C:2F19H         LINE#         109
  C:2F39H         LINE#         110
  C:2F5DH         LINE#         111
  C:2F5DH         LINE#         112
  C:2F6AH         LINE#         113
  C:2F70H         LINE#         114
  C:2F89H         LINE#         115
  C:2FAAH         LINE#         117
  C:2FB1H         LINE#         118
  C:2FB7H         LINE#         119
  C:2FBCH         LINE#         121
  C:2FC1H         LINE#         122
  C:2FE1H         LINE#         123
  C:3005H         LINE#         124
  C:3005H         LINE#         125
  C:3012H         LINE#         126
  C:3018H         LINE#         127
  C:3031H         LINE#         128
  C:3052H         LINE#         130
  C:3059H         LINE#         131
  C:3060H         LINE#         132
  C:3066H         LINE#         135
  C:30AEH         LINE#         136
  C:30AEH         LINE#         137
  C:30C9H         LINE#         138
  C:30E6H         LINE#         139
  C:30FEH         LINE#         140
  C:3116H         LINE#         141
  C:3123H         LINE#         142
  C:3126H         LINE#         143
  C:3128H         LINE#         144
  C:3128H         LINE#         146
  C:312AH         LINE#         147
  C:312AH         LINE#         149
  -------         ENDPROC       WG_SEND26
  -------         PROC          WGRESET
  C:767DH         LINE#         151
  C:767DH         LINE#         152
  C:767DH         LINE#         153
  C:7687H         LINE#         154
  C:7691H         LINE#         155
  C:7693H         LINE#         156
  C:7698H         LINE#         157
  -------         ENDPROC       WGRESET
  -------         PROC          WGWDG
  C:79EDH         LINE#         159
  C:79EDH         LINE#         160
  C:79EDH         LINE#         161
  C:79F3H         LINE#         162
  C:79F3H         LINE#         163
  C:79F7H         LINE#         164
  C:79F7H         LINE#         165
  C:79FAH         LINE#         166
  C:79FAH         LINE#         167
BL51 BANKED LINKER/LOCATER V6.22.2.0                                                  08/04/2022  09:41:28  PAGE 102


  C:79FAH         LINE#         168
  -------         ENDPROC       WGWDG
  -------         ENDMOD        CARDREAD

  -------         MODULE        AUDIO
  C:0000H         SYMBOL        _ICE_DUMMY_
  D:0080H         PUBLIC        P0
  D:0090H         PUBLIC        P1
  D:00A0H         PUBLIC        P2
  D:00B0H         PUBLIC        P3
  D:00CCH         PUBLIC        P6M0
  D:00C0H         PUBLIC        P4
  X:0000H         PUBLIC        PlyN
  D:00CBH         PUBLIC        P6M1
  D:00C8H         PUBLIC        P5
  D:00E8H         PUBLIC        P6
  D:00F8H         PUBLIC        P7
  C:69F2H         PUBLIC        _Beep_StartPlay
  D:00FEH         PUBLIC        PWMCR
  D:00BAH         PUBLIC        P_SW2
  D:00A8H         PUBLIC        IE
  X:0001H         SYMBOL        Midx
  X:0002H         PUBLIC        RingTimer
  D:00B8H         PUBLIC        IP
  X:0003H         PUBLIC        RingTime
  C:79FBH         PUBLIC        _StartRing
  D:00D8H         PUBLIC        CCON
  C:6AA1H         PUBLIC        RingTask
  C:596CH         PUBLIC        PWMtask
  C:6F03H         PUBLIC        WavCode
  B:0022H.1       PUBLIC        WavNeedRead
  X:0005H         PUBLIC        WavFileAddr
  X:0009H         PUBLIC        WavFile
  D:0098H         PUBLIC        SCON
  D:0088H         PUBLIC        TCON
  B:00E8H.0       PUBLIC        P60
  B:00E8H.3       PUBLIC        P63
  X:0091H         PUBLIC        PwmTimer
  B:00E8H.4       PUBLIC        P64
  B:00F8H.4       PUBLIC        P74
  C:6DD7H         PUBLIC        KeyBeepTask
  D:00F0H         PUBLIC        B
  C:4A28H         PUBLIC        WavReadTask
  C:7234H         PUBLIC        SPI_config
  D:00E0H         PUBLIC        ACC
  X:0092H         PUBLIC        WavBuf
  B:0022H.2       PUBLIC        AudioPlaying
  C:7471H         PUBLIC        PWM_config
  X:0892H         PUBLIC        WavFileLen
  X:0896H         PUBLIC        WavReadIdx
  C:6F6FH         PUBLIC        MP3_Stop
  X:089AH         PUBLIC        RingTs
  C:5CBCH         PUBLIC        _MP3_StartPlay
  X:089BH         PUBLIC        BeepPlyIdx
  X:089CH         SYMBOL        PlyIdx
  X:089EH         PUBLIC        RingO
  X:089FH         PUBLIC        WavBufLen
BL51 BANKED LINKER/LOCATER V6.22.2.0                                                  08/04/2022  09:41:28  PAGE 103


  B:0022H.3       PUBLIC        KeyBeepO
  D:00D0H         PUBLIC        PSW
  -------         PROC          SPI_CONFIG
  -------         DO            
  X:1081H         SYMBOL        SPI_InitStructure
  -------         ENDDO         
  C:7234H         LINE#         127
  C:7234H         LINE#         128
  C:7234H         LINE#         130
  C:723AH         LINE#         131
  C:723DH         LINE#         132
  C:723FH         LINE#         133
  C:7242H         LINE#         134
  C:7245H         LINE#         135
  C:7248H         LINE#         136
  C:724AH         LINE#         137
  C:724DH         LINE#         138
  C:7251H         LINE#         139
  C:725AH         LINE#         141
  C:725CH         LINE#         142
  -------         ENDPROC       SPI_CONFIG
  -------         PROC          PWM_CONFIG
  C:7471H         LINE#         166
  C:7471H         LINE#         167
  C:7471H         LINE#         168
  C:7474H         LINE#         169
  C:7479H         LINE#         170
  C:7481H         LINE#         176
  C:7488H         LINE#         177
  C:748EH         LINE#         178
  C:7492H         LINE#         184
  C:7495H         LINE#         190
  -------         ENDPROC       PWM_CONFIG
  -------         PROC          PWMTASK
  C:596CH         LINE#         218
  C:596CH         LINE#         219
  C:596CH         LINE#         220
  C:5972H         LINE#         221
  C:5972H         LINE#         223
  C:5972H         LINE#         224
  C:5995H         LINE#         225
  C:5995H         LINE#         226
  C:5998H         LINE#         227
  C:59BEH         LINE#         229
  C:59CCH         LINE#         230
  C:59CFH         LINE#         231
  C:59D0H         LINE#         233
  C:59D0H         LINE#         234
  C:5A09H         LINE#         235
  C:5A09H         LINE#         236
  C:5A0CH         LINE#         238
  C:5A0CH         LINE#         239
  C:5A13H         LINE#         240
  C:5A1DH         LINE#         241
  C:5A1FH         LINE#         242
  C:5A1FH         LINE#         243
  -------         ENDPROC       PWMTASK
BL51 BANKED LINKER/LOCATER V6.22.2.0                                                  08/04/2022  09:41:28  PAGE 104


  -------         PROC          WAVREADTASK
  -------         DO            
  X:110EH         SYMBOL        midx
  -------         ENDDO         
  C:4A28H         LINE#         303
  C:4A28H         LINE#         304
  C:4A28H         LINE#         306
  C:4A2EH         LINE#         307
  C:4A2EH         LINE#         308
  C:4A31H         LINE#         309
  C:4A33H         LINE#         311
  C:4A40H         LINE#         312
  C:4A79H         LINE#         313
  C:4A79H         LINE#         326
  C:4A7BH         LINE#         328
  C:4A7BH         LINE#         329
  C:4AAEH         LINE#         330
  C:4AAEH         LINE#         331
  C:4AC3H         LINE#         332
  C:4AE3H         LINE#         333
  C:4AE5H         LINE#         335
  C:4AE5H         LINE#         336
  C:4AE8H         LINE#         345
  C:4AE8H         LINE#         346
  C:4B4DH         LINE#         347
  C:4B4DH         LINE#         348
  -------         ENDPROC       WAVREADTASK
  -------         PROC          _MP3_STARTPLAY
  X:10B3H         SYMBOL        idx
  C:5CBCH         LINE#         350
  C:5CC1H         LINE#         351
  C:5CC1H         LINE#         352
  C:5CCAH         LINE#         353
  C:5CCAH         LINE#         355
  C:5CCAH         LINE#         356
  C:5CCDH         LINE#         358
  C:5CD0H         LINE#         359
  C:5CD2H         LINE#         360
  C:5CD9H         LINE#         361
  C:5CFCH         LINE#         362
  C:5D1BH         LINE#         364
  C:5D22H         LINE#         365
  C:5D2CH         LINE#         366
  C:5D33H         LINE#         367
  C:5D37H         LINE#         369
  C:5D3CH         LINE#         370
  C:5D3EH         LINE#         371
  C:5D41H         LINE#         373
  C:5D46H         LINE#         374
  C:5D48H         LINE#         375
  C:5D4BH         LINE#         378
  C:5D51H         LINE#         379
  C:5D54H         LINE#         381
  C:5D56H         LINE#         383
  -------         ENDPROC       _MP3_STARTPLAY
  -------         PROC          MP3_STOP
  C:6F6FH         LINE#         384
BL51 BANKED LINKER/LOCATER V6.22.2.0                                                  08/04/2022  09:41:28  PAGE 105


  C:6F6FH         LINE#         385
  C:6F6FH         LINE#         386
  C:6F96H         LINE#         387
  C:6F96H         LINE#         388
  C:6F98H         LINE#         389
  C:6F98H         LINE#         391
  C:6F9AH         LINE#         392
  C:6FA0H         LINE#         393
  C:6FA3H         LINE#         396
  -------         ENDPROC       MP3_STOP
  -------         PROC          _BEEP_STARTPLAY
  D:0007H         SYMBOL        idx
  C:69F2H         LINE#         519
  C:69F2H         LINE#         520
  C:69F2H         LINE#         521
  C:6A13H         LINE#         522
  C:6A13H         LINE#         523
  C:6A13H         LINE#         524
  C:6A13H         LINE#         525
  C:6A13H         LINE#         526
  C:6A19H         LINE#         527
  C:6A1BH         LINE#         528
  C:6A1BH         LINE#         529
  C:6A20H         LINE#         530
  C:6A22H         LINE#         531
  C:6A22H         LINE#         532
  C:6A28H         LINE#         533
  C:6A2AH         LINE#         534
  C:6A2AH         LINE#         535
  C:6A2AH         LINE#         536
  C:6A2AH         LINE#         537
  C:6A2AH         LINE#         538
  C:6A30H         LINE#         539
  C:6A32H         LINE#         540
  C:6A32H         LINE#         541
  C:6A32H         LINE#         542
  C:6A38H         LINE#         543
  C:6A38H         LINE#         544
  C:6A38H         LINE#         546
  C:6A3DH         LINE#         547
  C:6A43H         LINE#         548
  C:6A46H         LINE#         549
  C:6A48H         LINE#         550
  C:6A4AH         LINE#         551
  -------         ENDPROC       _BEEP_STARTPLAY
  -------         PROC          KEYBEEPTASK
  C:6DD7H         LINE#         553
  C:6DD7H         LINE#         554
  C:6DD7H         LINE#         555
  C:6DDFH         LINE#         556
  C:6DDFH         LINE#         557
  C:6DE8H         LINE#         558
  C:6DE8H         LINE#         559
  C:6DEAH         LINE#         560
  C:6E03H         LINE#         561
  C:6E03H         LINE#         562
  C:6E09H         LINE#         563
BL51 BANKED LINKER/LOCATER V6.22.2.0                                                  08/04/2022  09:41:28  PAGE 106


  C:6E0BH         LINE#         564
  C:6E0EH         LINE#         566
  C:6E0EH         LINE#         567
  C:6E10H         LINE#         568
  C:6E16H         LINE#         569
  C:6E16H         LINE#         570
  C:6E16H         LINE#         571
  -------         ENDPROC       KEYBEEPTASK
  -------         PROC          _STARTRING
  D:0006H         SYMBOL        t
  C:79FBH         LINE#         579
  C:79FBH         LINE#         580
  C:79FBH         LINE#         581
  C:7A03H         LINE#         582
  C:7A08H         LINE#         583
  -------         ENDPROC       _STARTRING
  -------         PROC          RINGTASK
  C:6AA1H         LINE#         584
  C:6AA1H         LINE#         585
  C:6AA1H         LINE#         586
  C:6AABH         LINE#         587
  C:6AABH         LINE#         588
  C:6AB5H         LINE#         589
  C:6AB5H         LINE#         590
  C:6AB6H         LINE#         591
  C:6AC8H         LINE#         592
  C:6ACEH         LINE#         593
  C:6AD5H         LINE#         594
  C:6AD5H         LINE#         595
  C:6ADAH         LINE#         596
  C:6ADAH         LINE#         597
  C:6AE0H         LINE#         598
  C:6AE0H         LINE#         599
  C:6AE5H         LINE#         600
  C:6AE7H         LINE#         601
  C:6AF5H         LINE#         602
  C:6AF5H         LINE#         603
  C:6AF5H         LINE#         604
  C:6AF5H         LINE#         605
  -------         ENDPROC       RINGTASK
  -------         ENDMOD        AUDIO

  -------         MODULE        UART
  C:0000H         SYMBOL        _ICE_DUMMY_
  C:0D76H         PUBLIC        _UART_Configuration
  D:0080H         PUBLIC        P0
  D:0090H         PUBLIC        P1
  D:00A0H         PUBLIC        P2
  D:00B0H         PUBLIC        P3
  D:00C0H         PUBLIC        P4
  D:00C8H         PUBLIC        P5
  D:00E8H         PUBLIC        P6
  D:00F8H         PUBLIC        P7
  D:00A2H         PUBLIC        P_SW1
  D:00BAH         PUBLIC        P_SW2
  D:00A8H         PUBLIC        IE
  X:0CA9H         PUBLIC        COM1
BL51 BANKED LINKER/LOCATER V6.22.2.0                                                  08/04/2022  09:41:28  PAGE 107


  X:0CB1H         PUBLIC        COM3
  D:00EEH         PUBLIC        IP3H
  B:00A8H.4       PUBLIC        ES
  D:00B8H         PUBLIC        IP
  X:0CB9H         PUBLIC        RX1_Buffer
  B:0098H.0       PUBLIC        RI
  C:6042H         PUBLIC        UART1_int
  X:0EB9H         PUBLIC        RX3_Buffer
  X:0F39H         PUBLIC        TX1_Buffer
  B:0098H.1       PUBLIC        TI
  C:5D57H         PUBLIC        UART3_int
  X:1001H         PUBLIC        TX3_Buffer
  B:00B8H.4       PUBLIC        PS
  D:00D8H         PUBLIC        CCON
  D:0099H         PUBLIC        SBUF
  D:0087H         PUBLIC        PCON
  C:6CC6H         PUBLIC        UartTask
  D:0098H         PUBLIC        SCON
  D:0089H         PUBLIC        TMOD
  D:0088H         PUBLIC        TCON
  C:774EH         PUBLIC        Uart1Clear
  C:7767H         PUBLIC        Uart3Clear
  D:00AFH         PUBLIC        IE2
  D:00F0H         PUBLIC        B
  D:008EH         PUBLIC        AUXR
  C:72D6H         PUBLIC        _TX1_write2buff
  C:72AEH         PUBLIC        _TX3_write2buff
  D:00E0H         PUBLIC        ACC
  B:00A8H.3       PUBLIC        ET1
  D:00DFH         PUBLIC        IP3
  D:008DH         PUBLIC        TH1
  D:00D6H         PUBLIC        TH2
  D:00D4H         PUBLIC        TH3
  D:008BH         PUBLIC        TL1
  D:00D7H         PUBLIC        TL2
  D:00D5H         PUBLIC        TL3
  B:0088H.6       PUBLIC        TR1
  D:00D1H         PUBLIC        T4T3M
  D:00B7H         PUBLIC        IPH
  D:00ADH         PUBLIC        S3BUF
  B:0098H.4       PUBLIC        REN
  D:00ACH         PUBLIC        S3CON
  D:008FH         PUBLIC        INT_CLKO
  D:00D0H         PUBLIC        PSW
  C:71E0H         PUBLIC        _Uart3SendBuf
  -------         PROC          _UART_CONFIGURATION
  X:108DH         SYMBOL        UARTx
  X:108EH         SYMBOL        COMx
  -------         DO            
  X:1091H         SYMBOL        i
  X:1093H         SYMBOL        j
  -------         ENDDO         
  C:0D76H         LINE#         26
  C:0D86H         LINE#         27
  C:0D86H         LINE#         32
  C:0D8DH         LINE#         33
  C:0D8DH         LINE#         34
BL51 BANKED LINKER/LOCATER V6.22.2.0                                                  08/04/2022  09:41:28  PAGE 108


  C:0D92H         LINE#         35
  C:0D95H         LINE#         36
  C:0D97H         LINE#         37
  C:0D99H         LINE#         38
  C:0D9DH         LINE#         39
  C:0D9FH         LINE#         40
  C:0DA1H         LINE#         41
  C:0DD3H         LINE#         42
  C:0E04H         LINE#         44
  C:0E1EH         LINE#         45
  C:0E4CH         LINE#         46
  C:0E57H         LINE#         47
  C:0E62H         LINE#         48
  C:0E6FH         LINE#         49
  C:0E6FH         LINE#         50
  C:0E86H         LINE#         51
  C:0EA3H         LINE#         52
  C:0EC5H         LINE#         53
  C:0EDBH         LINE#         54
  C:0EDBH         LINE#         55
  C:0EDDH         LINE#         56
  C:0EE0H         LINE#         57
  C:0EE3H         LINE#         58
  C:0EE6H         LINE#         59
  C:0EE9H         LINE#         60
  C:0EFEH         LINE#         61
  C:0F07H         LINE#         62
  C:0F09H         LINE#         63
  C:0F0CH         LINE#         64
  C:0F0FH         LINE#         65
  C:0F11H         LINE#         66
  C:0F13H         LINE#         67
  C:0F18H         LINE#         68
  C:0F18H         LINE#         69
  C:0F1BH         LINE#         70
  C:0F1EH         LINE#         71
  C:0F21H         LINE#         72
  C:0F24H         LINE#         73
  C:0F39H         LINE#         74
  C:0F42H         LINE#         75
  C:0F45H         LINE#         76
  C:0F48H         LINE#         77
  C:0F4AH         LINE#         78
  C:0F4DH         LINE#         79
  C:0F4DH         LINE#         80
  C:0F5EH         LINE#         81
  C:0F5EH         LINE#         82
  C:0F6CH         LINE#         83
  C:0F6FH         LINE#         84
  C:0F71H         LINE#         85
  C:0F75H         LINE#         86
  C:0F75H         LINE#         87
  C:0F83H         LINE#         88
  C:0F86H         LINE#         89
  C:0F86H         LINE#         90
  C:0F9EH         LINE#         91
  C:0FA0H         LINE#         92
BL51 BANKED LINKER/LOCATER V6.22.2.0                                                  08/04/2022  09:41:28  PAGE 109


  C:0FADH         LINE#         93
  C:0FAFH         LINE#         94
  C:0FBFH         LINE#         95
  C:0FC2H         LINE#         96
  C:0FC2H         LINE#         138
  C:0FCDH         LINE#         139
  C:0FCDH         LINE#         140
  C:0FD3H         LINE#         141
  C:0FD6H         LINE#         142
  C:0FD8H         LINE#         143
  C:0FDAH         LINE#         144
  C:0FDEH         LINE#         145
  C:0FE0H         LINE#         146
  C:0FE2H         LINE#         147
  C:1014H         LINE#         148
  C:1047H         LINE#         150
  C:1062H         LINE#         151
  C:1062H         LINE#         152
  C:1071H         LINE#         153
  C:10A3H         LINE#         154
  C:10AEH         LINE#         155
  C:10B1H         LINE#         156
  C:10C8H         LINE#         157
  C:10E5H         LINE#         158
  C:1107H         LINE#         159
  C:111CH         LINE#         160
  C:111CH         LINE#         161
  C:111FH         LINE#         162
  C:1134H         LINE#         163
  C:113DH         LINE#         164
  C:1140H         LINE#         165
  C:1142H         LINE#         166
  C:1147H         LINE#         167
  C:1147H         LINE#         168
  C:114AH         LINE#         169
  C:114DH         LINE#         170
  C:1150H         LINE#         171
  C:1153H         LINE#         172
  C:1168H         LINE#         173
  C:1171H         LINE#         174
  C:1174H         LINE#         175
  C:1177H         LINE#         176
  C:1179H         LINE#         177
  C:117CH         LINE#         178
  C:117CH         LINE#         179
  C:117FH         LINE#         180
  C:1198H         LINE#         181
  C:119BH         LINE#         182
  C:11A9H         LINE#         183
  C:11ACH         LINE#         184
  C:11BCH         LINE#         185
  C:11BFH         LINE#         186
  C:11BFH         LINE#         239
  C:11C1H         LINE#         240
  -------         ENDPROC       _UART_CONFIGURATION
  -------         PROC          _TX1_WRITE2BUFF
  D:0007H         SYMBOL        dat
BL51 BANKED LINKER/LOCATER V6.22.2.0                                                  08/04/2022  09:41:28  PAGE 110


  C:72D6H         LINE#         246
  C:72D6H         LINE#         247
  C:72D6H         LINE#         248
  C:72E5H         LINE#         249
  C:72F2H         LINE#         251
  C:72F8H         LINE#         252
  C:72F8H         LINE#         253
  C:72FAH         LINE#         254
  C:72FCH         LINE#         255
  C:72FCH         LINE#         256
  -------         ENDPROC       _TX1_WRITE2BUFF
  -------         PROC          UART1_INT
  C:6042H         LINE#         263
  C:6055H         LINE#         265
  C:6058H         LINE#         266
  C:6058H         LINE#         267
  C:605AH         LINE#         268
  C:6060H         LINE#         269
  C:6060H         LINE#         270
  C:606DH         LINE#         271
  C:6086H         LINE#         272
  C:608CH         LINE#         273
  C:608CH         LINE#         274
  C:608CH         LINE#         276
  C:608FH         LINE#         277
  C:608FH         LINE#         278
  C:6091H         LINE#         279
  C:609EH         LINE#         280
  C:609EH         LINE#         281
  C:60ABH         LINE#         282
  C:60B8H         LINE#         283
  C:60BAH         LINE#         284
  C:60BFH         LINE#         285
  C:60BFH         LINE#         286
  -------         ENDPROC       UART1_INT
  -------         PROC          UART1CLEAR
  C:774EH         LINE#         288
  C:774EH         LINE#         289
  C:774EH         LINE#         290
  C:775BH         LINE#         291
  C:7760H         LINE#         292
  C:7766H         LINE#         293
  -------         ENDPROC       UART1CLEAR
  -------         PROC          _TX3_WRITE2BUFF
  D:0007H         SYMBOL        dat
  C:72AEH         LINE#         343
  C:72AEH         LINE#         344
  C:72AEH         LINE#         345
  C:72BDH         LINE#         346
  C:72CAH         LINE#         348
  C:72D0H         LINE#         349
  C:72D0H         LINE#         350
  C:72D2H         LINE#         351
  C:72D5H         LINE#         352
  C:72D5H         LINE#         353
  -------         ENDPROC       _TX3_WRITE2BUFF
  -------         PROC          _UART3SENDBUF
BL51 BANKED LINKER/LOCATER V6.22.2.0                                                  08/04/2022  09:41:28  PAGE 111


  X:10A9H         SYMBOL        buf
  D:0005H         SYMBOL        len
  C:71E0H         LINE#         362
  C:71EBH         LINE#         363
  C:71EBH         LINE#         364
  C:71F1H         LINE#         365
  C:720AH         LINE#         366
  -------         ENDPROC       _UART3SENDBUF
  -------         PROC          UART3_INT
  C:5D57H         LINE#         368
  C:5D6AH         LINE#         370
  C:5D6FH         LINE#         371
  C:5D6FH         LINE#         372
  C:5D72H         LINE#         373
  C:5D78H         LINE#         374
  C:5D78H         LINE#         375
  C:5D8BH         LINE#         376
  C:5DA4H         LINE#         377
  C:5DAAH         LINE#         382
  C:5DAAH         LINE#         383
  C:5DAAH         LINE#         385
  C:5DAFH         LINE#         386
  C:5DAFH         LINE#         387
  C:5DB2H         LINE#         388
  C:5DBFH         LINE#         389
  C:5DBFH         LINE#         390
  C:5DCCH         LINE#         391
  C:5DD9H         LINE#         392
  C:5DDBH         LINE#         393
  C:5DE0H         LINE#         394
  C:5DE0H         LINE#         395
  -------         ENDPROC       UART3_INT
  -------         PROC          UART3CLEAR
  C:7767H         LINE#         397
  C:7767H         LINE#         398
  C:7767H         LINE#         399
  C:7774H         LINE#         400
  C:7779H         LINE#         401
  C:777FH         LINE#         402
  -------         ENDPROC       UART3CLEAR
  -------         PROC          UARTTASK
  C:6CC6H         LINE#         468
  C:6CC6H         LINE#         469
  C:6CC6H         LINE#         471
  C:6CCCH         LINE#         472
  C:6CCCH         LINE#         473
  C:6CD0H         LINE#         474
  C:6CD0H         LINE#         475
  C:6CDFH         LINE#         476
  C:6CDFH         LINE#         477
  C:6CE5H         LINE#         478
  C:6CE7H         LINE#         480
  C:6CE7H         LINE#         481
  C:6CEAH         LINE#         482
  C:6CEAH         LINE#         483
  C:6CEAH         LINE#         484
  C:6CEAH         LINE#         487
BL51 BANKED LINKER/LOCATER V6.22.2.0                                                  08/04/2022  09:41:28  PAGE 112


  C:6CF0H         LINE#         488
  C:6CF0H         LINE#         489
  C:6CF4H         LINE#         490
  C:6CF4H         LINE#         491
  C:6D03H         LINE#         492
  C:6D03H         LINE#         493
  C:6D09H         LINE#         494
  C:6D0AH         LINE#         496
  C:6D0AH         LINE#         497
  C:6D0DH         LINE#         498
  C:6D0DH         LINE#         499
  C:6D0DH         LINE#         500
  C:6D0DH         LINE#         518
  -------         ENDPROC       UARTTASK
  -------         ENDMOD        UART

  -------         MODULE        TIMER
  C:0000H         SYMBOL        _ICE_DUMMY_
  D:0080H         PUBLIC        P0
  D:0090H         PUBLIC        P1
  C:6E17H         PUBLIC        timer0_int
  D:00A0H         PUBLIC        P2
  C:71B4H         PUBLIC        timer1_int
  D:00B0H         PUBLIC        P3
  D:00C0H         PUBLIC        P4
  D:00C8H         PUBLIC        P5
  C:6AF6H         PUBLIC        timer4_int
  D:00E8H         PUBLIC        P6
  D:00F8H         PUBLIC        P7
  D:00A8H         PUBLIC        IE
  D:00B8H         PUBLIC        IP
  X:12D1H         PUBLIC        t4u
  D:00D8H         PUBLIC        CCON
  D:0098H         PUBLIC        SCON
  D:0089H         PUBLIC        TMOD
  D:0088H         PUBLIC        TCON
  B:00E8H.0       PUBLIC        P60
  B:00E8H.3       PUBLIC        P63
  C:3577H         PUBLIC        _Timer_Inilize
  D:00AFH         PUBLIC        IE2
  D:00F0H         PUBLIC        B
  D:008EH         PUBLIC        AUXR
  B:0023H.1       PUBLIC        Timer0_Irq
  D:00E0H         PUBLIC        ACC
  B:00A8H.1       PUBLIC        ET0
  B:00A8H.3       PUBLIC        ET1
  D:008CH         PUBLIC        TH0
  D:008DH         PUBLIC        TH1
  D:00D2H         PUBLIC        TH4
  D:008AH         PUBLIC        TL0
  D:008BH         PUBLIC        TL1
  B:00B8H.1       PUBLIC        PT0
  D:00D3H         PUBLIC        TL4
  B:00B8H.3       PUBLIC        PT1
  B:0088H.4       PUBLIC        TR0
  B:0088H.6       PUBLIC        TR1
  D:00D1H         PUBLIC        T4T3M
BL51 BANKED LINKER/LOCATER V6.22.2.0                                                  08/04/2022  09:41:28  PAGE 113


  D:00B7H         PUBLIC        IPH
  D:008FH         PUBLIC        INT_CLKO
  X:12D2H         PUBLIC        usTime
  D:00D0H         PUBLIC        PSW
  -------         PROC          TIMER0_INT
  C:6E17H         LINE#         10
  C:6E34H         LINE#         12
  C:6E36H         LINE#         18
  C:6E39H         LINE#         21
  C:6E3CH         LINE#         23
  -------         ENDPROC       TIMER0_INT
  -------         PROC          TIMER1_INT
  C:71B4H         LINE#         27
  C:71BCH         LINE#         29
  C:71C2H         LINE#         31
  C:71CDH         LINE#         32
  C:71CDH         LINE#         33
  C:71CFH         LINE#         35
  C:71D7H         LINE#         38
  C:71D7H         LINE#         40
  -------         ENDPROC       TIMER1_INT
  -------         PROC          TIMER4_INT
  C:6AF6H         LINE#         59
  C:6B13H         LINE#         62
  C:6B16H         LINE#         65
  C:6B29H         LINE#         66
  C:6B29H         LINE#         67
  C:6B2BH         LINE#         68
  C:6B30H         LINE#         69
  C:6B30H         LINE#         71
  -------         ENDPROC       TIMER4_INT
  -------         PROC          _TIMER_INILIZE
  D:0005H         SYMBOL        TIM
  D:0001H         SYMBOL        TIMx
  C:3577H         LINE#         81
  C:3579H         LINE#         82
  C:3579H         LINE#         84
  C:357FH         LINE#         85
  C:357FH         LINE#         86
  C:3581H         LINE#         87
  C:358EH         LINE#         88
  C:3590H         LINE#         89
  C:359FH         LINE#         90
  C:35CDH         LINE#         92
  C:35D9H         LINE#         93
  C:35E0H         LINE#         94
  C:35EDH         LINE#         95
  C:35F3H         LINE#         96
  C:35FCH         LINE#         97
  C:35FFH         LINE#         98
  C:360DH         LINE#         99
  C:3610H         LINE#         101
  C:3622H         LINE#         102
  C:362DH         LINE#         103
  C:3630H         LINE#         104
  C:3630H         LINE#         107
  C:3638H         LINE#         108
BL51 BANKED LINKER/LOCATER V6.22.2.0                                                  08/04/2022  09:41:28  PAGE 114


  C:3638H         LINE#         109
  C:363AH         LINE#         110
  C:3647H         LINE#         111
  C:3649H         LINE#         112
  C:3658H         LINE#         113
  C:3686H         LINE#         114
  C:3692H         LINE#         115
  C:3699H         LINE#         116
  C:36A6H         LINE#         117
  C:36ACH         LINE#         118
  C:36B5H         LINE#         119
  C:36B8H         LINE#         120
  C:36C6H         LINE#         121
  C:36C9H         LINE#         123
  C:36DBH         LINE#         124
  C:36E6H         LINE#         125
  C:36E9H         LINE#         126
  C:36E9H         LINE#         167
  C:36EEH         LINE#         168
  C:36EEH         LINE#         169
  C:36F1H         LINE#         170
  C:36FFH         LINE#         171
  C:3702H         LINE#         172
  C:3711H         LINE#         173
  C:3718H         LINE#         174
  C:3723H         LINE#         175
  C:3731H         LINE#         176
  C:3734H         LINE#         177
  C:3742H         LINE#         178
  C:3745H         LINE#         180
  C:3755H         LINE#         181
  C:3761H         LINE#         182
  C:3764H         LINE#         183
  C:3764H         LINE#         185
  C:3766H         LINE#         186
  -------         ENDPROC       _TIMER_INILIZE
  -------         ENDMOD        TIMER

  -------         MODULE        GPIO
  C:0000H         SYMBOL        _ICE_DUMMY_
  D:0093H         PUBLIC        P0M1
  D:0092H         PUBLIC        P1M0
  D:0096H         PUBLIC        P2M0
  D:0091H         PUBLIC        P1M1
  D:0080H         PUBLIC        P0
  D:00B2H         PUBLIC        P3M0
  D:0095H         PUBLIC        P2M1
  D:0090H         PUBLIC        P1
  D:00B4H         PUBLIC        P4M0
  D:00B1H         PUBLIC        P3M1
  D:00A0H         PUBLIC        P2
  D:00CAH         PUBLIC        P5M0
  D:00B3H         PUBLIC        P4M1
  D:00B0H         PUBLIC        P3
  D:00CCH         PUBLIC        P6M0
  D:00C9H         PUBLIC        P5M1
  D:00C0H         PUBLIC        P4
BL51 BANKED LINKER/LOCATER V6.22.2.0                                                  08/04/2022  09:41:28  PAGE 115


  D:00E2H         PUBLIC        P7M0
  D:00CBH         PUBLIC        P6M1
  D:00C8H         PUBLIC        P5
  D:00E8H         PUBLIC        P6
  D:00E1H         PUBLIC        P7M1
  D:00F8H         PUBLIC        P7
  D:00A8H         PUBLIC        IE
  D:00B8H         PUBLIC        IP
  D:00D8H         PUBLIC        CCON
  D:0098H         PUBLIC        SCON
  D:0088H         PUBLIC        TCON
  D:00F0H         PUBLIC        B
  D:00E0H         PUBLIC        ACC
  C:2CB0H         PUBLIC        _GPIO_Inilize
  D:00D0H         PUBLIC        PSW
  D:0094H         PUBLIC        P0M0
  -------         PROC          _GPIO_INILIZE
  D:0007H         SYMBOL        GPIO
  D:0001H         SYMBOL        GPIOx
  C:2CB0H         LINE#         10
  C:2CB0H         LINE#         11
  C:2CB0H         LINE#         12
  C:2CB9H         LINE#         13
  C:2CC5H         LINE#         14
  C:2CC8H         LINE#         15
  C:2CC8H         LINE#         16
  C:2CD6H         LINE#         17
  C:2CE7H         LINE#         18
  C:2CF8H         LINE#         19
  C:2D09H         LINE#         20
  C:2D09H         LINE#         21
  C:2D0EH         LINE#         22
  C:2D0EH         LINE#         23
  C:2D1FH         LINE#         24
  C:2D2EH         LINE#         25
  C:2D3EH         LINE#         26
  C:2D51H         LINE#         27
  C:2D51H         LINE#         28
  C:2D56H         LINE#         29
  C:2D56H         LINE#         30
  C:2D67H         LINE#         31
  C:2D76H         LINE#         32
  C:2D86H         LINE#         33
  C:2D99H         LINE#         34
  C:2D99H         LINE#         35
  C:2D9EH         LINE#         36
  C:2D9EH         LINE#         37
  C:2DAFH         LINE#         38
  C:2DBEH         LINE#         39
  C:2DCEH         LINE#         40
  C:2DE1H         LINE#         41
  C:2DE1H         LINE#         42
  C:2DE6H         LINE#         43
  C:2DE6H         LINE#         44
  C:2DF7H         LINE#         45
  C:2E06H         LINE#         46
  C:2E16H         LINE#         47
BL51 BANKED LINKER/LOCATER V6.22.2.0                                                  08/04/2022  09:41:28  PAGE 116


  C:2E29H         LINE#         48
  C:2E29H         LINE#         49
  C:2E2EH         LINE#         50
  C:2E2EH         LINE#         51
  C:2E3FH         LINE#         52
  C:2E4EH         LINE#         53
  C:2E5EH         LINE#         54
  C:2E71H         LINE#         55
  C:2E71H         LINE#         56
  C:2E76H         LINE#         57
  C:2E76H         LINE#         58
  C:2E87H         LINE#         59
  C:2E96H         LINE#         60
  C:2EA6H         LINE#         61
  C:2EB9H         LINE#         62
  C:2EB9H         LINE#         63
  C:2EBEH         LINE#         64
  C:2EBEH         LINE#         65
  C:2ECFH         LINE#         66
  C:2EDEH         LINE#         67
  C:2EEEH         LINE#         68
  C:2F01H         LINE#         69
  C:2F01H         LINE#         70
  C:2F03H         LINE#         71
  -------         ENDPROC       _GPIO_INILIZE
  -------         ENDMOD        GPIO

  -------         MODULE        EXTI
  C:0000H         SYMBOL        _ICE_DUMMY_
  D:0080H         PUBLIC        P0
  D:0090H         PUBLIC        P1
  D:00A0H         PUBLIC        P2
  D:00B0H         PUBLIC        P3
  D:00C0H         PUBLIC        P4
  D:00C8H         PUBLIC        P5
  D:00E8H         PUBLIC        P6
  D:00F8H         PUBLIC        P7
  D:00A8H         PUBLIC        IE
  D:00B8H         PUBLIC        IP
  D:00D8H         PUBLIC        CCON
  C:794BH         PUBLIC        Ext_INT0
  D:0098H         PUBLIC        SCON
  D:0088H         PUBLIC        TCON
  B:0088H.1       PUBLIC        IE0
  D:00F0H         PUBLIC        B
  D:00E0H         PUBLIC        ACC
  B:00A8H.0       PUBLIC        EX0
  B:0088H.0       PUBLIC        IT0
  B:00B8H.0       PUBLIC        PX0
  D:00B7H         PUBLIC        IPH
  C:68DDH         PUBLIC        _Ext_Inilize
  D:00D0H         PUBLIC        PSW
  -------         PROC          EXT_INT0
  C:794BH         LINE#         8
  C:7951H         LINE#         12
  C:7956H         LINE#         13
  -------         ENDPROC       EXT_INT0
BL51 BANKED LINKER/LOCATER V6.22.2.0                                                  08/04/2022  09:41:28  PAGE 117


  -------         PROC          _EXT_INILIZE
  D:0007H         SYMBOL        EXT
  D:0001H         SYMBOL        INTx
  C:68DDH         LINE#         51
  C:68DDH         LINE#         52
  C:68DDH         LINE#         55
  C:68E0H         LINE#         56
  C:68E0H         LINE#         57
  C:68E2H         LINE#         58
  C:68EFH         LINE#         59
  C:68F1H         LINE#         60
  C:6900H         LINE#         61
  C:692EH         LINE#         62
  C:6938H         LINE#         63
  C:693AH         LINE#         64
  C:693DH         LINE#         65
  C:693DH         LINE#         104
  C:693FH         LINE#         105
  -------         ENDPROC       _EXT_INILIZE
  -------         ENDMOD        EXTI

  -------         MODULE        SPI
  C:0000H         SYMBOL        _ICE_DUMMY_
  D:0080H         PUBLIC        P0
  D:0090H         PUBLIC        P1
  C:6C7DH         PUBLIC        SPI_Transivion
  D:00A0H         PUBLIC        P2
  D:00B0H         PUBLIC        P3
  D:00C0H         PUBLIC        P4
  D:00C8H         PUBLIC        P5
  D:00E8H         PUBLIC        P6
  D:00F8H         PUBLIC        P7
  D:00CEH         PUBLIC        SPCTL
  D:00A2H         PUBLIC        P_SW1
  D:00A8H         PUBLIC        IE
  B:0023H.2       PUBLIC        B_SPI_Busy
  D:00B8H         PUBLIC        IP
  C:5DF1H         PUBLIC        _SPI_Flash_Read
  D:00D8H         PUBLIC        CCON
  D:0098H         PUBLIC        SCON
  D:0088H         PUBLIC        TCON
  B:00F8H.4       PUBLIC        P74
  X:112FH         PUBLIC        SPI_RxCnt
  D:00AFH         PUBLIC        IE2
  D:00F0H         PUBLIC        B
  D:00E0H         PUBLIC        ACC
  X:1130H         PUBLIC        SPI_RxTimerOut
  D:00CDH         PUBLIC        SPSTAT
  C:5E8AH         PUBLIC        _SPI_Init
  C:76AAH         PUBLIC        _SPI_ReadWriteByte
  X:1131H         PUBLIC        SPI_RxBuffer
  D:00D0H         PUBLIC        PSW
  D:00CFH         PUBLIC        SPDAT
  -------         PROC          _SPI_INIT
  D:0001H         SYMBOL        SPIx
  C:5E8AH         LINE#         29
  C:5E8AH         LINE#         30
BL51 BANKED LINKER/LOCATER V6.22.2.0                                                  08/04/2022  09:41:28  PAGE 118


  C:5E8AH         LINE#         31
  C:5E98H         LINE#         32
  C:5E9BH         LINE#         33
  C:5EA6H         LINE#         34
  C:5EA9H         LINE#         35
  C:5EB7H         LINE#         36
  C:5EBAH         LINE#         37
  C:5EC7H         LINE#         38
  C:5ECAH         LINE#         39
  C:5ED8H         LINE#         40
  C:5EDBH         LINE#         41
  C:5EE8H         LINE#         42
  C:5EEBH         LINE#         43
  C:5EF9H         LINE#         44
  C:5EFCH         LINE#         45
  C:5F0CH         LINE#         46
  C:5F1AH         LINE#         48
  C:5F1FH         LINE#         49
  C:5F21H         LINE#         50
  -------         ENDPROC       _SPI_INIT
  -------         PROC          SPI_TRANSIVION
  C:6C7DH         LINE#         96
  C:6C8AH         LINE#         98
  C:6C8FH         LINE#         99
  C:6C8FH         LINE#         100
  C:6C91H         LINE#         101
  C:6C93H         LINE#         103
  C:6C93H         LINE#         104
  C:6C9EH         LINE#         105
  C:6CB2H         LINE#         106
  C:6CB8H         LINE#         107
  C:6CB8H         LINE#         108
  C:6CBBH         LINE#         109
  -------         ENDPROC       SPI_TRANSIVION
  -------         PROC          L?0028
  -------         ENDPROC       L?0028
  -------         PROC          _SPI_READWRITEBYTE
  D:0007H         SYMBOL        dat
  C:76AAH         LINE#         111
  C:76AAH         LINE#         112
  C:76AAH         LINE#         113
  C:76ACH         LINE#         114
  C:76AEH         LINE#         115
  C:76B1H         LINE#         116
  C:76B3H         LINE#         117
  C:76B3H         LINE#         118
  -------         ENDPROC       _SPI_READWRITEBYTE
  -------         PROC          _SPI_FLASH_READ
  X:110FH         SYMBOL        pBuffer
  X:1112H         SYMBOL        ReadAddr
  X:1116H         SYMBOL        NumByteToRead
  -------         DO            
  X:1118H         SYMBOL        i
  X:111AH         SYMBOL        tmp
  -------         ENDDO         
  C:5DF1H         LINE#         139
  C:5E00H         LINE#         140
BL51 BANKED LINKER/LOCATER V6.22.2.0                                                  08/04/2022  09:41:28  PAGE 119


  C:5E00H         LINE#         141
  C:5E00H         LINE#         142
  C:5E02H         LINE#         143
  C:5E09H         LINE#         144
  C:5E0EH         LINE#         145
  C:5E13H         LINE#         146
  C:5E18H         LINE#         147
  C:5E23H         LINE#         148
  C:5E3FH         LINE#         149
  C:5E3FH         LINE#         151
  C:5E50H         LINE#         152
  C:5E77H         LINE#         153
  C:5E87H         LINE#         154
  C:5E89H         LINE#         155
  -------         ENDPROC       _SPI_FLASH_READ
  -------         ENDMOD        SPI

  -------         MODULE        WDT
  C:0000H         SYMBOL        _ICE_DUMMY_
  D:0080H         PUBLIC        P0
  D:0090H         PUBLIC        P1
  D:00A0H         PUBLIC        P2
  D:00B0H         PUBLIC        P3
  D:00C0H         PUBLIC        P4
  D:00C8H         PUBLIC        P5
  D:00E8H         PUBLIC        P6
  D:00F8H         PUBLIC        P7
  D:00A8H         PUBLIC        IE
  D:00B8H         PUBLIC        IP
  D:00D8H         PUBLIC        CCON
  C:725DH         PUBLIC        _WDT_Inilize
  D:0098H         PUBLIC        SCON
  D:0088H         PUBLIC        TCON
  C:0006H         PUBLIC        WDT_Clear
  D:00F0H         PUBLIC        B
  D:00E0H         PUBLIC        ACC
  D:00C1H         PUBLIC        WDT_CONTR
  D:00D0H         PUBLIC        PSW
  -------         PROC          _WDT_INILIZE
  D:0001H         SYMBOL        WDT
  C:725DH         LINE#         22
  C:725DH         LINE#         23
  C:725DH         LINE#         24
  C:7266H         LINE#         26
  C:7276H         LINE#         27
  C:7282H         LINE#         28
  C:7285H         LINE#         29
  -------         ENDPROC       _WDT_INILIZE
  -------         PROC          WDT_CLEAR
  C:0006H         LINE#         32
  C:0006H         LINE#         33
  C:0006H         LINE#         34
  C:0009H         LINE#         35
  -------         ENDPROC       WDT_CLEAR
  -------         ENDMOD        WDT

  -------         MODULE        ?C?CLDPTR
BL51 BANKED LINKER/LOCATER V6.22.2.0                                                  08/04/2022  09:41:28  PAGE 120


  C:08E6H         PUBLIC        ?C?CLDPTR
  -------         ENDMOD        ?C?CLDPTR

  -------         MODULE        ?C?CLDOPTR
  C:08FFH         PUBLIC        ?C?CLDOPTR
  -------         ENDMOD        ?C?CLDOPTR

  -------         MODULE        ?C?CSTPTR
  C:092CH         PUBLIC        ?C?CSTPTR
  -------         ENDMOD        ?C?CSTPTR

  -------         MODULE        ?C?CSTOPTR
  C:093EH         PUBLIC        ?C?CSTOPTR
  -------         ENDMOD        ?C?CSTOPTR

  -------         MODULE        ?C?IMUL
  C:0960H         PUBLIC        ?C?IMUL
  -------         ENDMOD        ?C?IMUL

  -------         MODULE        ?C?UIDIV
  C:0972H         PUBLIC        ?C?UIDIV
  -------         ENDMOD        ?C?UIDIV

  -------         MODULE        ?C?IILDX
  C:09C7H         PUBLIC        ?C?IILDX
  -------         ENDMOD        ?C?IILDX

  -------         MODULE        ?C?ILDIX
  C:09DDH         PUBLIC        ?C?ILDIX
  -------         ENDMOD        ?C?ILDIX

  -------         MODULE        ?C?ILDPTR
  C:09F3H         PUBLIC        ?C?ILDPTR
  -------         ENDMOD        ?C?ILDPTR

  -------         MODULE        ?C?ILDOPTR
  C:0A1EH         PUBLIC        ?C?ILDOPTR
  -------         ENDMOD        ?C?ILDOPTR

  -------         MODULE        ?C?LMUL
  C:0A56H         PUBLIC        ?C?LMUL
  -------         ENDMOD        ?C?LMUL

  -------         MODULE        ?C?ULDIV
  C:0AE1H         PUBLIC        ?C?ULDIV
  -------         ENDMOD        ?C?ULDIV

  -------         MODULE        ?C?ULCMP
  C:0B73H         PUBLIC        ?C?ULCMP
  -------         ENDMOD        ?C?ULCMP

  -------         MODULE        ?C?ULSHR
  C:0B84H         PUBLIC        ?C?ULSHR
  -------         ENDMOD        ?C?ULSHR

  -------         MODULE        ?C?LSHL
  C:0B97H         PUBLIC        ?C?LSHL
BL51 BANKED LINKER/LOCATER V6.22.2.0                                                  08/04/2022  09:41:28  PAGE 121


  -------         ENDMOD        ?C?LSHL

  -------         MODULE        ?C?LLDOPTR
  C:0BAAH         PUBLIC        ?C?LLDOPTR
  -------         ENDMOD        ?C?LLDOPTR

  -------         MODULE        ?C?LLDOPTR0
  C:0BDAH         PUBLIC        ?C?LLDOPTR0
  -------         ENDMOD        ?C?LLDOPTR0

  -------         MODULE        ?C?LSTXDATA
  C:0C0AH         PUBLIC        ?C?LSTXDATA
  -------         ENDMOD        ?C?LSTXDATA

  -------         MODULE        ?C?LSTKXDATA
  C:0C16H         PUBLIC        ?C?LSTKXDATA
  -------         ENDMOD        ?C?LSTKXDATA

  -------         MODULE        ?C?CCASE
  C:0C47H         PUBLIC        ?C?CCASE
  -------         ENDMOD        ?C?CCASE

  -------         MODULE        PRINTF
  X:1106H         PUBLIC        ?_PRINTF517?BYTE
  X:1106H         PUBLIC        ?_PRINTF?BYTE
  X:1106H         PUBLIC        ?_SPRINTF517?BYTE
  X:1106H         PUBLIC        ?_SPRINTF?BYTE
  C:1DAEH         PUBLIC        _PRINTF
  C:1DAEH         PUBLIC        _PRINTF517
  C:1DA8H         PUBLIC        _SPRINTF
  C:1DA8H         PUBLIC        _SPRINTF517
  -------         ENDMOD        PRINTF

  -------         MODULE        SCANF
  X:10B8H         PUBLIC        ?_SCANF517?BYTE
  X:10B8H         PUBLIC        ?_SCANF?BYTE
  X:10B8H         PUBLIC        ?_SSCANF517?BYTE
  X:10B8H         PUBLIC        ?_SSCANF?BYTE
  C:246FH         PUBLIC        _SCANF
  C:246FH         PUBLIC        _SCANF517
  C:246BH         PUBLIC        _SSCANF
  C:246BH         PUBLIC        _SSCANF517
  -------         ENDMOD        SCANF

  -------         MODULE        ?C?ISTPTR
  C:0C6DH         PUBLIC        ?C?ISTPTR
  -------         ENDMOD        ?C?ISTPTR

  -------         MODULE        ?C?LNEG
  C:0C8CH         PUBLIC        ?C?LNEG
  -------         ENDMOD        ?C?LNEG

  -------         MODULE        ?C?LSTPTR
  C:0C9AH         PUBLIC        ?C?LSTPTR
  -------         ENDMOD        ?C?LSTPTR

  -------         MODULE        ?C?LLDIDATA
BL51 BANKED LINKER/LOCATER V6.22.2.0                                                  08/04/2022  09:41:28  PAGE 122


  C:0CB4H         PUBLIC        ?C?LLDIDATA
  -------         ENDMOD        ?C?LLDIDATA

  -------         MODULE        ?C?LLDXDATA
  C:0CC0H         PUBLIC        ?C?LLDXDATA
  -------         ENDMOD        ?C?LLDXDATA

  -------         MODULE        ?C?LLDPDATA
  C:0CCCH         PUBLIC        ?C?LLDPDATA
  -------         ENDMOD        ?C?LLDPDATA

  -------         MODULE        ?C?LLDCODE
  C:0CD8H         PUBLIC        ?C?LLDCODE
  -------         ENDMOD        ?C?LLDCODE

  -------         MODULE        ?C?LLDIDATA0
  C:0CE8H         PUBLIC        ?C?LLDIDATA0
  -------         ENDMOD        ?C?LLDIDATA0

  -------         MODULE        ?C?LLDXDATA0
  C:0CF5H         PUBLIC        ?C?LLDXDATA0
  -------         ENDMOD        ?C?LLDXDATA0

  -------         MODULE        ?C?LLDPDATA0
  C:0D01H         PUBLIC        ?C?LLDPDATA0
  -------         ENDMOD        ?C?LLDPDATA0

  -------         MODULE        ?C?LLDCODE0
  C:0D0EH         PUBLIC        ?C?LLDCODE0
  -------         ENDMOD        ?C?LLDCODE0

  -------         MODULE        ?C?PLDXDATA
  C:0D1EH         PUBLIC        ?C?PLDXDATA
  -------         ENDMOD        ?C?PLDXDATA

  -------         MODULE        ?C?PLDIXDATA
  C:0D27H         PUBLIC        ?C?PLDIXDATA
  -------         ENDMOD        ?C?PLDIXDATA

  -------         MODULE        ?C?PILDXDATA
  C:0D3EH         PUBLIC        ?C?PILDXDATA
  -------         ENDMOD        ?C?PILDXDATA

  -------         MODULE        ?C?PSTXDATA
  C:0D55H         PUBLIC        ?C?PSTXDATA
  -------         ENDMOD        ?C?PSTXDATA

  -------         MODULE        GETCHAR
  B:0023H.3       PUBLIC        ?C?CHARLOADED
  X:12D3H         PUBLIC        ?_UNGETCHAR?BYTE
  C:78B3H         PUBLIC        GETCHAR
  -------         ENDMOD        GETCHAR

  -------         MODULE        UNGETC
  C:7A3AH         PUBLIC        _UNGETCHAR
  -------         ENDMOD        UNGETC

BL51 BANKED LINKER/LOCATER V6.22.2.0                                                  08/04/2022  09:41:28  PAGE 123


  -------         MODULE        ISSPACE
  C:78C7H         PUBLIC        _isspace
  -------         ENDMOD        ISSPACE

  -------         MODULE        ?C?LSTIDATA
  C:0D5EH         PUBLIC        ?C?LSTIDATA
  -------         ENDMOD        ?C?LSTIDATA

  -------         MODULE        ?C?LSTPDATA
  C:0D6AH         PUBLIC        ?C?LSTPDATA
  -------         ENDMOD        ?C?LSTPDATA

  -------         MODULE        _GETKEY
  C:7A27H         PUBLIC        _GETKEY
  -------         ENDMOD        _GETKEY

*** WARNING L16: UNCALLED SEGMENT, IGNORED FOR OVERLAY PROCESS
    SEGMENT: ?PR?_GETPSWBYROOM?UNLOCKPASSWORD

Program Size: data=17.4 xdata=4820 code=31300
LINK/LOCATE RUN COMPLETE.  1 WARNING(S),  0 ERROR(S)
