BL51 BANKED LINKER/LOCATER V6.22.2.0                                                    08/04/2022  16:30:25  PAGE 1


BL51 BANKED LINKER/LOCATER V6.22.2.0, INVOKED BY:
D:\KEIL-C51\C51\BIN\BL51.EXE .\Objects\STARTUP.obj, .\Objects\main.obj, .\Objects\Driver.obj, .\Objects\LCD12864.obj, .\
>> Objects\GSM.obj, .\Objects\NameList.obj, .\Objects\Eeprom.obj, .\Objects\SysStatus.obj, .\Objects\UnlockPassword.obj,
>>  .\Objects\SysString.obj, .\Objects\Card.obj, .\Objects\CardRead.obj, .\Objects\Audio.obj, .\Objects\UART.obj, .\Obje
>> cts\timer.obj, .\Objects\GPIO.obj, .\Objects\Exti.obj, .\Objects\spi.obj TO .\Objects\GSM PRINT (.\Listings\GSM.m51) 
>> RAMSIZE (256)


MEMORY MODEL: LARGE


INPUT MODULES INCLUDED:
  .\Objects\STARTUP.obj (?C_STARTUP)
  .\Objects\main.obj (MAIN)
  .\Objects\Driver.obj (DRIVER)
  .\Objects\LCD12864.obj (LCD12864)
  .\Objects\GSM.obj (GSM)
  .\Objects\NameList.obj (NAMELIST)
  .\Objects\Eeprom.obj (EEPROM)
  .\Objects\SysStatus.obj (SYSSTATUS)
  .\Objects\UnlockPassword.obj (UNLOCKPASSWORD)
  .\Objects\SysString.obj (SYSSTRING)
  .\Objects\Card.obj (CARD)
  .\Objects\CardRead.obj (CARDREAD)
  .\Objects\Audio.obj (AUDIO)
  .\Objects\UART.obj (UART)
  .\Objects\timer.obj (TIMER)
  .\Objects\GPIO.obj (GPIO)
  .\Objects\Exti.obj (EXTI)
  .\Objects\spi.obj (SPI)
  D:\KEIL-C51\C51\LIB\C51L.LIB (?C_INIT)
  D:\KEIL-C51\C51\LIB\C51L.LIB (?C?COPY)
  D:\KEIL-C51\C51\LIB\C51L.LIB (?C?CLDPTR)
  D:\KEIL-C51\C51\LIB\C51L.LIB (?C?CLDOPTR)
  D:\KEIL-C51\C51\LIB\C51L.LIB (?C?CSTPTR)
  D:\KEIL-C51\C51\LIB\C51L.LIB (?C?CSTOPTR)
  D:\KEIL-C51\C51\LIB\C51L.LIB (?C?IMUL)
  D:\KEIL-C51\C51\LIB\C51L.LIB (?C?UIDIV)
  D:\KEIL-C51\C51\LIB\C51L.LIB (?C?IILDX)
  D:\KEIL-C51\C51\LIB\C51L.LIB (?C?ILDIX)
  D:\KEIL-C51\C51\LIB\C51L.LIB (?C?ILDPTR)
  D:\KEIL-C51\C51\LIB\C51L.LIB (?C?ILDOPTR)
  D:\KEIL-C51\C51\LIB\C51L.LIB (?C?LMUL)
  D:\KEIL-C51\C51\LIB\C51L.LIB (?C?ULDIV)
  D:\KEIL-C51\C51\LIB\C51L.LIB (?C?ULCMP)
  D:\KEIL-C51\C51\LIB\C51L.LIB (?C?ULSHR)
  D:\KEIL-C51\C51\LIB\C51L.LIB (?C?LSHL)
  D:\KEIL-C51\C51\LIB\C51L.LIB (?C?LLDOPTR)
  D:\KEIL-C51\C51\LIB\C51L.LIB (?C?LLDOPTR0)
  D:\KEIL-C51\C51\LIB\C51L.LIB (?C?LSTXDATA)
  D:\KEIL-C51\C51\LIB\C51L.LIB (?C?LSTKXDATA)
  D:\KEIL-C51\C51\LIB\C51L.LIB (?C?OFFXADD)
  D:\KEIL-C51\C51\LIB\C51L.LIB (?C?CCASE)
  D:\KEIL-C51\C51\LIB\C51L.LIB (?C?ICALL)
  D:\KEIL-C51\C51\LIB\C51L.LIB (PRINTF)
  D:\KEIL-C51\C51\LIB\C51L.LIB (SCANF)
  D:\KEIL-C51\C51\LIB\C51L.LIB (?C?ISTPTR)
  D:\KEIL-C51\C51\LIB\C51L.LIB (?C?LNEG)
BL51 BANKED LINKER/LOCATER V6.22.2.0                                                  08/04/2022  16:30:25  PAGE 2


  D:\KEIL-C51\C51\LIB\C51L.LIB (?C?LSTPTR)
  D:\KEIL-C51\C51\LIB\C51L.LIB (?C?LLDIDATA)
  D:\KEIL-C51\C51\LIB\C51L.LIB (?C?LLDXDATA)
  D:\KEIL-C51\C51\LIB\C51L.LIB (?C?LLDPDATA)
  D:\KEIL-C51\C51\LIB\C51L.LIB (?C?LLDCODE)
  D:\KEIL-C51\C51\LIB\C51L.LIB (?C?LLDIDATA0)
  D:\KEIL-C51\C51\LIB\C51L.LIB (?C?LLDXDATA0)
  D:\KEIL-C51\C51\LIB\C51L.LIB (?C?LLDPDATA0)
  D:\KEIL-C51\C51\LIB\C51L.LIB (?C?LLDCODE0)
  D:\KEIL-C51\C51\LIB\C51L.LIB (?C?PLDXDATA)
  D:\KEIL-C51\C51\LIB\C51L.LIB (?C?PLDIXDATA)
  D:\KEIL-C51\C51\LIB\C51L.LIB (?C?PILDXDATA)
  D:\KEIL-C51\C51\LIB\C51L.LIB (?C?PSTXDATA)
  D:\KEIL-C51\C51\LIB\C51L.LIB (GETCHAR)
  D:\KEIL-C51\C51\LIB\C51L.LIB (UNGETC)
  D:\KEIL-C51\C51\LIB\C51L.LIB (ISSPACE)
  D:\KEIL-C51\C51\LIB\C51L.LIB (?C?LSTIDATA)
  D:\KEIL-C51\C51\LIB\C51L.LIB (?C?LSTPDATA)
  D:\KEIL-C51\C51\LIB\C51L.LIB (_GETKEY)


LINK MAP OF MODULE:  .\Objects\GSM (?C_STARTUP)


            TYPE    BASE      LENGTH    RELOCATION   SEGMENT NAME
            -----------------------------------------------------

            * * * * * * *   D A T A   M E M O R Y   * * * * * * *
            REG     0000H     0008H     ABSOLUTE     "REG BANK 0"
            DATA    0008H     0005H     UNIT         _DATA_GROUP_
                    000DH     0013H                  *** GAP ***
            BIT     0020H.0   0001H.2   UNIT         _BIT_GROUP_
            BIT     0021H.2   0000H.3   UNIT         ?BI?GSM
            BIT     0021H.5   0000H.3   UNIT         ?BI?UNLOCKPASSWORD
            BIT     0022H.0   0000H.3   UNIT         ?BI?CARDREAD
            BIT     0022H.3   0000H.3   UNIT         ?BI?AUDIO
            BIT     0022H.6   0000H.2   UNIT         ?BI?LCD12864
            BIT     0023H.0   0000H.2   UNIT         ?BI?CARD
            BIT     0023H.2   0000H.1   UNIT         ?BI?NAMELIST
            BIT     0023H.3   0000H.1   UNIT         ?BI?TIMER
            BIT     0023H.4   0000H.1   UNIT         ?BI?SPI
            BIT     0023H.5   0000H.1   UNIT         ?BI?GETCHAR
                    0023H.6   0000H.2                *** GAP ***
            IDATA   0024H     0001H     UNIT         ?STACK

            * * * * * * *  X D A T A   M E M O R Y  * * * * * * *
            XDATA   0000H     089EH     UNIT         ?XD?AUDIO
            XDATA   089EH     0406H     UNIT         ?XD?LCD12864
            XDATA   0CA4H     03D8H     UNIT         ?XD?UART
            XDATA   107CH     00D1H     UNIT         _XDATA_GROUP_
            XDATA   114DH     0086H     UNIT         ?XD?SYSSTATUS
            XDATA   11D3H     0082H     UNIT         ?XD?SPI
            XDATA   1255H     0056H     UNIT         ?XD?GSM
            XDATA   12ABH     0056H     UNIT         ?XD?NAMELIST
            XDATA   1301H     0052H     UNIT         ?XD?CARDREAD
            XDATA   1353H     0014H     UNIT         ?XD?SYSSTRING
            XDATA   1367H     000CH     UNIT         ?XD?UNLOCKPASSWORD
BL51 BANKED LINKER/LOCATER V6.22.2.0                                                  08/04/2022  16:30:25  PAGE 3


            XDATA   1373H     000BH     UNIT         ?XD?DRIVER
            XDATA   137EH     0008H     UNIT         ?XD?CARD
            XDATA   1386H     0003H     UNIT         ?XD?MAIN
            XDATA   1389H     0003H     UNIT         ?XD?_DISPLAYCSQ?LCD12864
            XDATA   138CH     0001H     UNIT         ?XD?TIMER
            XDATA   138DH     0001H     UNIT         ?XD?GETCHAR

            * * * * * * *   C O D E   M E M O R Y   * * * * * * *
            CODE    0000H     0003H     ABSOLUTE     
            CODE    0003H     0003H     ABSOLUTE     
                    0006H     0005H                  *** GAP ***
            CODE    000BH     0003H     ABSOLUTE     
            CODE    000EH     000AH     UNIT         ?PR?CLEARNAMELIST?NAMELIST
                    0018H     0003H                  *** GAP ***
            CODE    001BH     0003H     ABSOLUTE     
                    001EH     0005H                  *** GAP ***
            CODE    0023H     0003H     ABSOLUTE     
            CODE    0026H     0025H     UNIT         ?PR?EDITNAMEITEMCON?NAMELIST
            CODE    004BH     0003H     ABSOLUTE     
            CODE    004EH     003DH     UNIT         ?PR?TIMER0_INT?TIMER
            CODE    008BH     0003H     ABSOLUTE     
            CODE    008EH     0015H     UNIT         ?PR?IIC_NACK?EEPROM
            CODE    00A3H     0003H     ABSOLUTE     
            CODE    00A6H     0840H     UNIT         ?CO?LCD12864
            CODE    08E6H     0598H     UNIT         ?C?LIB_CODE
            CODE    0E7EH     04E4H     UNIT         ?PR?_REVNAMELIST?NAMELIST
            CODE    1362H     04E1H     UNIT         ?PR?CHECKRFIDCARD?CARDREAD
            CODE    1843H     048AH     UNIT         ?PR?_MODEMRECEIVEHANDLE?GSM
            CODE    1CCDH     044CH     UNIT         ?PR?_UART_CONFIGURATION?UART
            CODE    2119H     0425H     UNIT         ?PR?_PSWEDITKEY?UNLOCKPASSWORD
            CODE    253EH     03F6H     UNIT         ?PR?_NAMEEDITKEY?NAMELIST
            CODE    2934H     037AH     UNIT         ?CO?SYSSTRING
            CODE    2CAEH     0365H     UNIT         ?PR?PRINTF?PRINTF
            CODE    3013H     0336H     UNIT         ?PR?GSM_INITTASK?GSM
            CODE    3349H     0331H     UNIT         ?PR?_SHOWPSW?UNLOCKPASSWORD
            CODE    367AH     032BH     UNIT         ?CO?GSM
            CODE    39A5H     0322H     UNIT         ?PR?SCANF?SCANF
            CODE    3CC7H     02C1H     UNIT         ?PR?_SYSPSWEDITKEY?UNLOCKPASSWORD
            CODE    3F88H     027FH     UNIT         ?PR?_SHOWCARD?CARD
            CODE    4207H     026EH     UNIT         ?PR?MAIN?MAIN
            CODE    4475H     0256H     UNIT         ?PR?_SHOWNAME?NAMELIST
            CODE    46CBH     0254H     UNIT         ?PR?_GPIO_INILIZE?GPIO
            CODE    491FH     022FH     UNIT         ?PR?_NAMEDELETEKEY?NAMELIST
            CODE    4B4EH     021EH     UNIT         ?C_INITSEG
            CODE    4D6CH     0215H     UNIT         ?PR?SHOWSUBPARA?SYSSTATUS
            CODE    4F81H     01F0H     UNIT         ?PR?_TIMER_INILIZE?TIMER
            CODE    5171H     01CEH     UNIT         ?PR?_SAVESUBPARA?SYSSTATUS
            CODE    533FH     01B8H     UNIT         ?PR?_CARDDELETEKEY?CARD
            CODE    54F7H     01B2H     UNIT         ?PR?_CARDEDITKEY?CARD
            CODE    56A9H     01AAH     UNIT         ?PR?_PSWDELETEKEY?UNLOCKPASSWORD
            CODE    5853H     0188H     UNIT         ?PR?_SYSSUBSETKEY?SYSSTATUS
            CODE    59DBH     0183H     UNIT         ?PR?WAVREADTASK?AUDIO
            CODE    5B5EH     0180H     UNIT         ?PR?_SYSKEY?SYSSTATUS
            CODE    5CDEH     017AH     UNIT         ?PR?_ATCMDCB_CPIN?GSM
            CODE    5E58H     0172H     UNIT         ?PR?_SUBSETCON?SYSSTATUS
            CODE    5FCAH     0170H     UNIT         ?PR?_ATCMDCB_CREG?GSM
            CODE    613AH     0169H     UNIT         ?PR?_ATCMDCB_CSQ?GSM
BL51 BANKED LINKER/LOCATER V6.22.2.0                                                  08/04/2022  16:30:25  PAGE 4


            CODE    62A3H     0153H     UNIT         ?PR?INITSYSPARA?SYSSTATUS
            CODE    63F6H     014DH     UNIT         ?PR?_WRITELCD?LCD12864
            CODE    6543H     014CH     UNIT         ?PR?_SYSIDLEKEY?SYSSTATUS
            CODE    668FH     0148H     UNIT         ?PR?_PSWINPUTKEY?UNLOCKPASSWORD
            CODE    67D7H     0142H     UNIT         ?PR?SKEYSCAN?DRIVER
            CODE    6919H     0121H     UNIT         ?PR?_GSMUARTCMD?GSM
            CODE    6A3AH     011EH     UNIT         ?PR?KEYSCAN?DRIVER
            CODE    6B58H     010DH     UNIT         ?PR?CARDIRQ?CARDREAD
            CODE    6C65H     0104H     UNIT         ?PR?_SYSINPUTROOM?SYSSTATUS
            CODE    6D69H     0100H     UNIT         ?PR?_INPUTSYSPSW?SYSSTATUS
            CODE    6E69H     00FDH     UNIT         ?CO?NAMELIST
            CODE    6F66H     00F8H     UNIT         ?PR?_LOOKFORSTR?DRIVER
            CODE    705EH     00ECH     UNIT         ?PR?_CALLBYNAMEITEM?NAMELIST
            CODE    714AH     00E8H     UNIT         ?PR?GPIO_CONFIG?DRIVER
            CODE    7232H     00DEH     UNIT         ?PR?_SHOWMAIN?SYSSTRING
            CODE    7310H     00DEH     UNIT         ?PR?_ADDCARDITEM?CARD
            CODE    73EEH     00DDH     UNIT         ?CO?SYSSTATUS
            CODE    74CBH     00D1H     UNIT         ?PR?_SYSSETTINGKEY?SYSSTATUS
            CODE    759CH     00C0H     UNIT         ?PR?NAMEEDITCHAGETYPE?NAMELIST
            CODE    765CH     00A1H     UNIT         ?PR?INITUSERPARA?SYSSTATUS
            CODE    76FDH     00A0H     UNIT         ?PR?_CHECKCARD?CARD
            CODE    779DH     009AH     UNIT         ?PR?UART3_INT?UART
            CODE    7837H     0099H     UNIT         ?PR?_SPI_FLASH_READ?SPI
            CODE    78D0H     0098H     UNIT         ?PR?_SPI_INIT?SPI
            CODE    7968H     0095H     UNIT         ?PR?_MP3_STARTPLAY?AUDIO
            CODE    79FDH     008EH     UNIT         ?PR?UART1_INT?UART
            CODE    7A8BH     008CH     UNIT         ?C_C51STARTUP
            CODE    7B17H     008BH     UNIT         ?PR?_DISPLAYFL?LCD12864
            CODE    7BA2H     008BH     UNIT         ?PR?_WRITEBUF_AT24C02?EEPROM
            CODE    7C2DH     0085H     UNIT         ?PR?_GETIDXBYROOM?SYSSTATUS
            CODE    7CB2H     0085H     UNIT         ?PR?SHOWGSMCSQ?SYSSTRING
            CODE    7D37H     0084H     UNIT         ?PR?SHOWINPUTPSW?SYSSTATUS
            CODE    7DBBH     0083H     UNIT         ?PR?_GSM_SETVOLUM?GSM
            CODE    7E3EH     0080H     UNIT         ?PR?_ADDPSWITEM?UNLOCKPASSWORD
            CODE    7EBEH     007CH     UNIT         ?PR?_BITBLT?LCD12864
            CODE    7F3AH     0079H     UNIT         ?PR?_BEEP_STARTPLAY?AUDIO
            CODE    7FB3H     0078H     UNIT         ?PR?_CHECKPSW?UNLOCKPASSWORD
            CODE    802BH     0077H     UNIT         ?PR?_ADDNAMEITEM?NAMELIST
            CODE    80A2H     0077H     UNIT         ?PR?PWMTASK?AUDIO
            CODE    8119H     0070H     UNIT         ?PR?_WRITELCDICO?LCD12864
            CODE    8189H     006FH     UNIT         ?PR?_DELNAMEITEMBYIDX?NAMELIST
            CODE    81F8H     006FH     UNIT         ?PR?NAMESETCON?NAMELIST
            CODE    8267H     006FH     UNIT         ?PR?_DELPSWBYIDX?UNLOCKPASSWORD
            CODE    82D6H     006FH     UNIT         ?PR?PSWSETCON?UNLOCKPASSWORD
            CODE    8345H     006FH     UNIT         ?PR?_DELCARDBYIDX?CARD
            CODE    83B4H     006FH     UNIT         ?PR?CARDSETCON?CARD
            CODE    8423H     006CH     UNIT         ?PR?SHOWINPUTROOM?SYSSTATUS
            CODE    848FH     006BH     UNIT         ?PR?_DISPLAYCSQ?LCD12864
            CODE    84FAH     006BH     UNIT         ?PR?_SYSCARD?SYSSTATUS
            CODE    8565H     0064H     UNIT         ?PR?_GSM_CALL?GSM
            CODE    85C9H     0063H     UNIT         ?PR?_READBUF_AT24C02?EEPROM
            CODE    862CH     0063H     UNIT         ?PR?_EXT_INILIZE?EXTI
            CODE    868FH     005AH     UNIT         ?PR?_HS_STRCPY?DRIVER
            CODE    86E9H     0056H     UNIT         ?PR?UART_CONFIG?DRIVER
            CODE    873FH     0054H     UNIT         ?PR?_READROOMBYIDX?SYSSTATUS
            CODE    8793H     004FH     UNIT         ?PR?TIMER_CONFIG?DRIVER
            CODE    87E2H     004BH     UNIT         ?PR?_SYSTALKKEY?SYSSTATUS
BL51 BANKED LINKER/LOCATER V6.22.2.0                                                  08/04/2022  16:30:25  PAGE 5


            CODE    882DH     0049H     UNIT         ?PR?_GETNAMEITEMBYROOM?NAMELIST
            CODE    8876H     0049H     UNIT         ?PR?SPI_TRANSIVION?SPI
            CODE    88BFH     0048H     UNIT         ?PR?UARTTASK?UART
            CODE    8907H     0044H     UNIT         ?PR?_HS_MEMCPY?DRIVER
            CODE    894BH     0042H     UNIT         ?PR?SHOWTALKTIME?SYSSTRING
            CODE    898DH     0040H     UNIT         ?PR?KEYBEEPTASK?AUDIO
            CODE    89CDH     0040H     UNIT         ?PR?EXT_INT0?EXTI
            CODE    8A0DH     003BH     UNIT         ?PR?_WRITENAMEITEMBYIDX?NAMELIST
            CODE    8A48H     003BH     UNIT         ?PR?_CARDEDITCARDIN?CARD
            CODE    8A83H     003BH     UNIT         ?PR?TIMER4_INT?TIMER
            CODE    8ABEH     0039H     UNIT         ?PR?_IIC_SEND_BYTE?EEPROM
            CODE    8AF7H     0038H     UNIT         ?PR?SYSSETTINGCON?SYSSTATUS
            CODE    8B2FH     0037H     UNIT         ?CO?AUDIO
            CODE    8B66H     0035H     UNIT         ?CO?DRIVER
            CODE    8B9BH     0033H     UNIT         ?PR?DELETECARDCON?CARD
            CODE    8BCEH     0033H     UNIT         ?PR?_PRINTSTRING3?UART
            CODE    8C01H     0032H     UNIT         ?PR?FLASHTASK?LCD12864
            CODE    8C33H     0032H     UNIT         ?PR?CARDMSTASK?CARDREAD
            CODE    8C65H     0031H     UNIT         ?PR?_WRITECARDBYIDX?CARD
            CODE    8C96H     0031H     UNIT         ?PR?_READCARDBYIDX?CARD
            CODE    8CC7H     0030H     UNIT         ?PR?_READNAMEITEMBYIDX?NAMELIST
            CODE    8CF7H     002FH     UNIT         ?PR?_ATCMDCB_AT?GSM
            CODE    8D26H     002FH     UNIT         ?PR?_ATCMDCB_CLCC?GSM
            CODE    8D55H     002FH     UNIT         ?PR?_INPUTROOMCON?SYSSTATUS
            CODE    8D84H     002FH     UNIT         ?PR?MP3_STOP?AUDIO
            CODE    8DB3H     002EH     UNIT         ?PR?_MEMISEMPTY?DRIVER
            CODE    8DE1H     002EH     UNIT         ?PR?IIC_READ_BYTE?EEPROM
            CODE    8E0FH     002CH     UNIT         ?PR?_CLEARBUF?DRIVER
            CODE    8E3BH     002CH     UNIT         ?PR?TIMER1_INT?TIMER
            CODE    8E67H     002BH     UNIT         ?PR?_GSM_SEND_DTMF?GSM
            CODE    8E92H     002AH     UNIT         ?PR?GSM_GETCSQ?GSM
            CODE    8EBCH     0029H     UNIT         ?PR?SYSIDLECON?SYSSTATUS
            CODE    8EE5H     0029H     UNIT         ?CO?UNLOCKPASSWORD
            CODE    8F0EH     0029H     UNIT         ?PR?_DELCARDBYCARD?CARD
            CODE    8F37H     0029H     UNIT         ?PR?SPI_CONFIG?AUDIO
            CODE    8F60H     0028H     UNIT         ?PR?_WRITEPSWBYIDX?UNLOCKPASSWORD
            CODE    8F88H     0028H     UNIT         ?PR?PWM_CONFIG?AUDIO
            CODE    8FB0H     0028H     UNIT         ?PR?_TX3_WRITE2BUFF?UART
            CODE    8FD8H     0027H     UNIT         ?CO?CARD
            CODE    8FFFH     0027H     UNIT         ?PR?_TX1_WRITE2BUFF?UART
            CODE    9026H     0026H     UNIT         ?PR?_DELAY?DRIVER
            CODE    904CH     0026H     UNIT         ?PR?_STRLEN?DRIVER
            CODE    9072H     0025H     UNIT         ?PR?DELETENAMECON?NAMELIST
            CODE    9097H     0025H     UNIT         ?PR?IIC_ACK?EEPROM
            CODE    90BCH     0025H     UNIT         ?PR?_DELPSWBYROOM?UNLOCKPASSWORD
            CODE    90E1H     0025H     UNIT         ?PR?EDITPSWCON?UNLOCKPASSWORD
            CODE    9106H     0025H     UNIT         ?PR?DELETEPSWCON?UNLOCKPASSWORD
            CODE    912BH     0025H     UNIT         ?PR?EDITSYSPSWCON?UNLOCKPASSWORD
            CODE    9150H     0025H     UNIT         ?PR?_DELCARDBYROOM?CARD
            CODE    9175H     0025H     UNIT         ?PR?EDITCARDCON?CARD
            CODE    919AH     0024H     UNIT         ?CO?MAIN
            CODE    91BEH     0024H     UNIT         ?PR?INIT_12864?LCD12864
            CODE    91E2H     0024H     UNIT         ?PR?GSM_REPOWER?GSM
            CODE    9206H     0024H     UNIT         ?PR?INPUTPSWCON?UNLOCKPASSWORD
            CODE    922AH     0023H     UNIT         ?PR?SAVENAMECOUNT?NAMELIST
            CODE    924DH     0023H     UNIT         ?PR?SAVEPSWCOUNT?UNLOCKPASSWORD
            CODE    9270H     0023H     UNIT         ?PR?SAVECARDCOUNT?CARD
BL51 BANKED LINKER/LOCATER V6.22.2.0                                                  08/04/2022  16:30:25  PAGE 6


            CODE    9293H     0022H     UNIT         ?PR?_LCD_WDAT?LCD12864
            CODE    92B5H     0022H     UNIT         ?PR?GSM_STARTINIT?GSM
            CODE    92D7H     0022H     UNIT         ?PR?_SHOWNAMEBYIDX?NAMELIST
            CODE    92F9H     0021H     UNIT         ?PR?_NAMESETKEY?NAMELIST
            CODE    931AH     0021H     UNIT         ?PR?_PSWSETKEY?UNLOCKPASSWORD
            CODE    933BH     0021H     UNIT         ?PR?_CARDSETKEY?CARD
            CODE    935CH     0020H     UNIT         ?PR?_UNLOCK?DRIVER
            CODE    937CH     0020H     UNIT         ?CO?CARDREAD
            CODE    939CH     001DH     UNIT         ?PR?LCD_BUSY?LCD12864
            CODE    93B9H     001DH     UNIT         ?PR?_CHECKUNICODE?LCD12864
            CODE    93D6H     001DH     UNIT         ?PR?INPUTSYSPSWCON?SYSSTATUS
            CODE    93F3H     001DH     UNIT         ?PR?_READPSWBYIDX?UNLOCKPASSWORD
            CODE    9410H     001DH     UNIT         ?PR?SAVESYSPSW?UNLOCKPASSWORD
            CODE    942DH     001BH     UNIT         ?PR?LCDCLEAR?LCD12864
            CODE    9448H     001BH     UNIT         ?PR?_SPI_READWRITEBYTE?SPI
            CODE    9463H     001AH     UNIT         ?PR?CARDREADINIT?CARDREAD
            CODE    947DH     0019H     UNIT         ?PR?EXTI_CONFIG?DRIVER
            CODE    9496H     0019H     UNIT         ?PR?RELAYTASK?DRIVER
            CODE    94AFH     0019H     UNIT         ?PR?GSM_HUANGUP?GSM
            CODE    94C8H     0019H     UNIT         ?PR?SHOWUNLOCK?SYSSTRING
            CODE    94E1H     0019H     UNIT         ?PR?UART1CLEAR?UART
            CODE    94FAH     0019H     UNIT         ?PR?UART3CLEAR?UART
            CODE    9513H     0018H     UNIT         ?PR?_LCD_WCMD?LCD12864
            CODE    952BH     0017H     UNIT         ?PR?_NAMEDELALLKEY?NAMELIST
            CODE    9542H     0017H     UNIT         ?PR?_PSWDELALLKEY?UNLOCKPASSWORD
            CODE    9559H     0017H     UNIT         ?PR?_CARDDELALLKEY?CARD
            CODE    9570H     0016H     UNIT         ?PR?_HBSTRLEN?DRIVER
            CODE    9586H     0016H     UNIT         ?PR?_DISPLAYSTRING?LCD12864
            CODE    959CH     0016H     UNIT         ?PR?DELETEALLNAMECON?NAMELIST
            CODE    95B2H     0016H     UNIT         ?PR?IIC_START?EEPROM
            CODE    95C8H     0016H     UNIT         ?PR?IIC_STOP?EEPROM
            CODE    95DEH     0016H     UNIT         ?PR?DELETEALLPSWCON?UNLOCKPASSWORD
            CODE    95F4H     0016H     UNIT         ?PR?DELETEALLCARDCON?CARD
            CODE    960AH     0015H     UNIT         ?PR?SHOWSAVEOK?SYSSTRING
            CODE    961FH     0015H     UNIT         ?PR?SHOWERR?SYSSTRING
            CODE    9634H     0015H     UNIT         ?PR?SHOWDELETEOK?SYSSTRING
            CODE    9649H     0015H     UNIT         ?PR?SHOWCARDERR?SYSSTRING
            CODE    965EH     0015H     UNIT         ?PR?SHOWGSMERR?SYSSTRING
            CODE    9673H     0014H     UNIT         ?PR?GETCHAR?GETCHAR
            CODE    9687H     0014H     UNIT         ?PR?_ISSPACE?ISSPACE
            CODE    969BH     0013H     UNIT         ?PR?INITNAMELIST?NAMELIST
            CODE    96AEH     0013H     UNIT         ?PR?IIC_AACK?EEPROM
            CODE    96C1H     0013H     UNIT         ?PR?INITPSW?UNLOCKPASSWORD
            CODE    96D4H     0013H     UNIT         ?PR?INITCARD?CARD
            CODE    96E7H     0012H     UNIT         ?PR?_DISPLAYICO?LCD12864
            CODE    96F9H     0012H     UNIT         ?PR?_IIC_DELAYMS?EEPROM
            CODE    970BH     0011H     UNIT         ?PR?_DELNAMEITEMBYROOM?NAMELIST
            CODE    971CH     0010H     UNIT         ?PR?LCDADDROW?LCD12864
            CODE    972CH     0010H     UNIT         ?PR?SHOWCONFIRMSAVE?SYSSTRING
            CODE    973CH     0010H     UNIT         ?PR?SHOWCONFIRMDEL?SYSSTRING
            CODE    974CH     0010H     UNIT         ?PR?SHOWROOMERR?SYSSTRING
            CODE    975CH     0010H     UNIT         ?PR?SHOWRESET?SYSSTRING
            CODE    976CH     000EH     UNIT         ?PR?_PUTCHAR?DRIVER
            CODE    977AH     000AH     UNIT         ?PR?CLEARPSW?UNLOCKPASSWORD
            CODE    9784H     000AH     UNIT         ?PR?CLEARCARD?CARD
            CODE    978EH     000AH     UNIT         ?PR?_GETKEY?_GETKEY
            CODE    9798H     0009H     UNIT         ?PR?_SETFLASH?LCD12864
BL51 BANKED LINKER/LOCATER V6.22.2.0                                                  08/04/2022  16:30:25  PAGE 7


            CODE    97A1H     0008H     UNIT         ?PR?GETCHAR?UNGETCHAR



OVERLAY MAP OF MODULE:   .\Objects\GSM (?C_STARTUP)


SEGMENT                                       BIT_GROUP          DATA_GROUP          XDATA_GROUP
  +--> CALLED SEGMENT                      START    LENGTH     START    LENGTH     START    LENGTH
--------------------------------------------------------------------------------------------------
?C_C51STARTUP                              -----    -----      -----    -----      -----    -----
  +--> ?PR?MAIN?MAIN
  +--> ?C_INITSEG

?PR?MAIN?MAIN                              -----    -----      -----    -----      -----    -----
  +--> ?PR?_DELAY?DRIVER
  +--> ?PR?GPIO_CONFIG?DRIVER
  +--> ?PR?TIMER_CONFIG?DRIVER
  +--> ?PR?UART_CONFIG?DRIVER
  +--> ?PR?EXTI_CONFIG?DRIVER
  +--> ?PR?SPI_CONFIG?AUDIO
  +--> ?PR?PWM_CONFIG?AUDIO
  +--> ?PR?INIT_12864?LCD12864
  +--> ?PR?INITSYSPARA?SYSSTATUS
  +--> ?PR?INITUSERPARA?SYSSTATUS
  +--> ?PR?GSM_STARTINIT?GSM
  +--> ?PR?CARDREADINIT?CARDREAD
  +--> ?PR?SYSIDLECON?SYSSTATUS
  +--> ?PR?_MP3_STARTPLAY?AUDIO
  +--> ?PR?_REVNAMELIST?NAMELIST
  +--> ?PR?UART1CLEAR?UART
  +--> ?CO?MAIN
  +--> ?PR?PRINTF?PRINTF
  +--> ?PR?_GSMUARTCMD?GSM
  +--> ?PR?UART3CLEAR?UART
  +--> ?PR?WAVREADTASK?AUDIO
  +--> ?PR?_UNLOCK?DRIVER
  +--> ?PR?UARTTASK?UART
  +--> ?PR?KEYSCAN?DRIVER
  +--> ?PR?_BEEP_STARTPLAY?AUDIO
  +--> ?PR?_SYSKEY?SYSSTATUS
  +--> ?PR?SKEYSCAN?DRIVER
  +--> ?PR?CARDMSTASK?CARDREAD
  +--> ?PR?GSM_INITTASK?GSM
  +--> ?PR?FLASHTASK?LCD12864
  +--> ?PR?RELAYTASK?DRIVER
  +--> ?PR?SHOWTALKTIME?SYSSTRING
  +--> ?PR?GSM_HUANGUP?GSM
  +--> ?PR?_SHOWMAIN?SYSSTRING
  +--> ?PR?_NAMEEDITKEY?NAMELIST
  +--> ?PR?CHECKRFIDCARD?CARDREAD
  +--> ?PR?_SYSCARD?SYSSTATUS

?PR?GPIO_CONFIG?DRIVER                     -----    -----      -----    -----      107CH    0002H
  +--> ?PR?_GPIO_INILIZE?GPIO

?PR?TIMER_CONFIG?DRIVER                    -----    -----      -----    -----      107CH    0008H
BL51 BANKED LINKER/LOCATER V6.22.2.0                                                  08/04/2022  16:30:25  PAGE 8


  +--> ?PR?_TIMER_INILIZE?TIMER

?PR?UART_CONFIG?DRIVER                     -----    -----      -----    -----      107CH    000CH
  +--> ?PR?_UART_CONFIGURATION?UART
  +--> ?CO?DRIVER
  +--> ?PR?PRINTF?PRINTF
  +--> ?PR?_TX3_WRITE2BUFF?UART

?PR?_UART_CONFIGURATION?UART               -----    -----      -----    -----      1088H    000AH

?PR?PRINTF?PRINTF                          0020H.1  0001H.1    0008H    0005H      1124H    0028H
  +--> ?PR?_PUTCHAR?DRIVER

?PR?_PUTCHAR?DRIVER                        -----    -----      -----    -----      114CH    0001H
  +--> ?PR?_TX1_WRITE2BUFF?UART

?PR?EXTI_CONFIG?DRIVER                     -----    -----      -----    -----      107CH    0003H
  +--> ?PR?_EXT_INILIZE?EXTI

?PR?SPI_CONFIG?AUDIO                       -----    -----      -----    -----      107CH    0009H
  +--> ?PR?_SPI_INIT?SPI

?PR?INIT_12864?LCD12864                    -----    -----      -----    -----      -----    -----
  +--> ?PR?_LCD_WCMD?LCD12864

?PR?_LCD_WCMD?LCD12864                     -----    -----      -----    -----      -----    -----
  +--> ?PR?LCD_BUSY?LCD12864

?PR?LCD_BUSY?LCD12864                      0020H.2  0000H.1    -----    -----      -----    -----

?PR?INITSYSPARA?SYSSTATUS                  0020H.0  0000H.1    -----    -----      -----    -----
  +--> ?PR?_READBUF_AT24C02?EEPROM
  +--> ?PR?_CLEARBUF?DRIVER
  +--> ?PR?_WRITEBUF_AT24C02?EEPROM
  +--> ?CO?SYSSTATUS
  +--> ?PR?PRINTF?PRINTF

?PR?_READBUF_AT24C02?EEPROM                -----    -----      -----    -----      1125H    0008H
  +--> ?PR?IIC_ACK?EEPROM
  +--> ?PR?_IIC_SEND_BYTE?EEPROM
  +--> ?PR?IIC_START?EEPROM
  +--> ?PR?IIC_READ_BYTE?EEPROM
  +--> ?PR?IIC_AACK?EEPROM
  +--> ?PR?IIC_NACK?EEPROM
  +--> ?PR?IIC_STOP?EEPROM

?PR?IIC_ACK?EEPROM                         -----    -----      -----    -----      -----    -----
  +--> ?PR?IIC_START?EEPROM
  +--> ?PR?_IIC_SEND_BYTE?EEPROM

?PR?_CLEARBUF?DRIVER                       -----    -----      -----    -----      1124H    0003H

?PR?_WRITEBUF_AT24C02?EEPROM               -----    -----      -----    -----      1125H    0007H
  +--> ?PR?_IIC_SEND_BYTE?EEPROM
  +--> ?PR?IIC_ACK?EEPROM
  +--> ?PR?IIC_STOP?EEPROM
  +--> ?PR?_IIC_DELAYMS?EEPROM
BL51 BANKED LINKER/LOCATER V6.22.2.0                                                  08/04/2022  16:30:25  PAGE 9



?PR?INITUSERPARA?SYSSTATUS                 -----    -----      -----    -----      -----    -----
  +--> ?PR?_READBUF_AT24C02?EEPROM
  +--> ?PR?_WRITEBUF_AT24C02?EEPROM
  +--> ?CO?SYSSTATUS
  +--> ?PR?PRINTF?PRINTF
  +--> ?PR?INITNAMELIST?NAMELIST
  +--> ?PR?INITPSW?UNLOCKPASSWORD
  +--> ?PR?INITCARD?CARD

?PR?INITNAMELIST?NAMELIST                  -----    -----      -----    -----      -----    -----
  +--> ?PR?CLEARNAMELIST?NAMELIST

?PR?CLEARNAMELIST?NAMELIST                 -----    -----      -----    -----      -----    -----
  +--> ?PR?SAVENAMECOUNT?NAMELIST

?PR?SAVENAMECOUNT?NAMELIST                 -----    -----      -----    -----      -----    -----
  +--> ?PR?_WRITEBUF_AT24C02?EEPROM

?PR?INITPSW?UNLOCKPASSWORD                 -----    -----      -----    -----      -----    -----
  +--> ?PR?CLEARPSW?UNLOCKPASSWORD

?PR?CLEARPSW?UNLOCKPASSWORD                -----    -----      -----    -----      -----    -----
  +--> ?PR?SAVEPSWCOUNT?UNLOCKPASSWORD

?PR?SAVEPSWCOUNT?UNLOCKPASSWORD            -----    -----      -----    -----      -----    -----
  +--> ?PR?_WRITEBUF_AT24C02?EEPROM

?PR?INITCARD?CARD                          -----    -----      -----    -----      -----    -----
  +--> ?PR?CLEARCARD?CARD

?PR?CLEARCARD?CARD                         -----    -----      -----    -----      -----    -----
  +--> ?PR?SAVECARDCOUNT?CARD

?PR?SAVECARDCOUNT?CARD                     -----    -----      -----    -----      -----    -----
  +--> ?PR?_WRITEBUF_AT24C02?EEPROM

?PR?GSM_STARTINIT?GSM                      -----    -----      -----    -----      -----    -----
  +--> ?CO?GSM
  +--> ?PR?PRINTF?PRINTF

?PR?SYSIDLECON?SYSSTATUS                   -----    -----      -----    -----      -----    -----
  +--> ?PR?_SHOWMAIN?SYSSTRING

?PR?_SHOWMAIN?SYSSTRING                    -----    -----      -----    -----      1088H    0001H
  +--> ?PR?LCDCLEAR?LCD12864
  +--> ?CO?SYSSTRING
  +--> ?PR?_DISPLAYSTRING?LCD12864
  +--> ?PR?_DISPLAYICO?LCD12864
  +--> ?PR?SHOWGSMCSQ?SYSSTRING

?PR?LCDCLEAR?LCD12864                      -----    -----      -----    -----      -----    -----
  +--> ?PR?_LCD_WCMD?LCD12864
  +--> ?PR?_CLEARBUF?DRIVER
  +--> ?PR?_SETFLASH?LCD12864

?PR?_DISPLAYSTRING?LCD12864                -----    -----      -----    -----      -----    -----
BL51 BANKED LINKER/LOCATER V6.22.2.0                                                  08/04/2022  16:30:25  PAGE 10


  +--> ?PR?_WRITELCD?LCD12864
  +--> ?PR?_BITBLT?LCD12864

?PR?_WRITELCD?LCD12864                     -----    -----      -----    -----      1124H    0008H
  +--> ?PR?_CHECKUNICODE?LCD12864
  +--> ?PR?LCDADDROW?LCD12864
  +--> ?CO?LCD12864

?PR?_BITBLT?LCD12864                       -----    -----      -----    -----      1124H    0007H
  +--> ?PR?_LCD_WCMD?LCD12864
  +--> ?PR?WAVREADTASK?AUDIO
  +--> ?PR?_LCD_WDAT?LCD12864

?PR?WAVREADTASK?AUDIO                      -----    -----      -----    -----      112BH    0001H
  +--> ?PR?MP3_STOP?AUDIO
  +--> ?PR?_SPI_FLASH_READ?SPI

?PR?_SPI_FLASH_READ?SPI                    -----    -----      -----    -----      112CH    000DH
  +--> ?PR?_DELAY?DRIVER
  +--> ?PR?_SPI_READWRITEBYTE?SPI

?PR?_LCD_WDAT?LCD12864                     -----    -----      -----    -----      -----    -----
  +--> ?PR?LCD_BUSY?LCD12864

?PR?_DISPLAYICO?LCD12864                   -----    -----      -----    -----      -----    -----
  +--> ?PR?_WRITELCDICO?LCD12864
  +--> ?PR?_BITBLT?LCD12864

?PR?_WRITELCDICO?LCD12864                  -----    -----      -----    -----      1089H    0007H
  +--> ?CO?LCD12864

?PR?SHOWGSMCSQ?SYSSTRING                   -----    -----      -----    -----      -----    -----
  +--> ?CO?SYSSTRING
  +--> ?PR?_DISPLAYSTRING?LCD12864

?PR?_MP3_STARTPLAY?AUDIO                   -----    -----      -----    -----      10D0H    0001H
  +--> ?PR?_DELAY?DRIVER
  +--> ?PR?WAVREADTASK?AUDIO

?PR?_REVNAMELIST?NAMELIST                  -----    -----      -----    -----      107CH    0059H
  +--> ?CO?NAMELIST
  +--> ?PR?PRINTF?PRINTF
  +--> ?PR?_LOOKFORSTR?DRIVER
  +--> ?PR?SCANF?SCANF
  +--> ?PR?_CLEARBUF?DRIVER
  +--> ?PR?_ADDNAMEITEM?NAMELIST

?PR?_LOOKFORSTR?DRIVER                     -----    -----      -----    -----      10D5H    000AH

?PR?SCANF?SCANF                            0020H.0  0000H.6    0008H    0005H      10D5H    002EH
  +--> ?PR?GETCHAR?UNGETCHAR
  +--> ?PR?_ISSPACE?ISSPACE
  +--> ?PR?GETCHAR?GETCHAR

?PR?GETCHAR?GETCHAR                        -----    -----      -----    -----      -----    -----
  +--> ?PR?_GETKEY?_GETKEY
  +--> ?PR?_PUTCHAR?DRIVER
BL51 BANKED LINKER/LOCATER V6.22.2.0                                                  08/04/2022  16:30:25  PAGE 11



?PR?_ADDNAMEITEM?NAMELIST                  -----    -----      -----    -----      10D5H    0005H
  +--> ?PR?_GETIDXBYROOM?SYSSTATUS
  +--> ?PR?_WRITENAMEITEMBYIDX?NAMELIST
  +--> ?PR?SAVENAMECOUNT?NAMELIST

?PR?_GETIDXBYROOM?SYSSTATUS                -----    -----      -----    -----      10DAH    0007H
  +--> ?PR?_READROOMBYIDX?SYSSTATUS

?PR?_READROOMBYIDX?SYSSTATUS               -----    -----      -----    -----      10E1H    0002H
  +--> ?PR?_READBUF_AT24C02?EEPROM

?PR?_WRITENAMEITEMBYIDX?NAMELIST           -----    -----      -----    -----      1122H    0003H
  +--> ?PR?_WRITEBUF_AT24C02?EEPROM

?PR?UART1CLEAR?UART                        -----    -----      -----    -----      -----    -----
  +--> ?PR?_CLEARBUF?DRIVER

?PR?_GSMUARTCMD?GSM                        -----    -----      -----    -----      107CH    0003H
  +--> ?PR?_PRINTSTRING3?UART
  +--> ?CO?GSM
  +--> ?PR?PRINTF?PRINTF
  +--> ?PR?GSM_REPOWER?GSM
  +--> ?PR?_MODEMRECEIVEHANDLE?GSM

?PR?_PRINTSTRING3?UART                     -----    -----      -----    -----      10B7H    0003H
  +--> ?PR?_TX3_WRITE2BUFF?UART

?PR?GSM_REPOWER?GSM                        -----    -----      -----    -----      -----    -----
  +--> ?CO?GSM
  +--> ?PR?_PRINTSTRING3?UART
  +--> ?PR?PRINTF?PRINTF

?PR?_MODEMRECEIVEHANDLE?GSM                -----    -----      -----    -----      107FH    0009H
  +--> ?CO?GSM
  +--> ?PR?_LOOKFORSTR?DRIVER
  +--> ?PR?PRINTF?PRINTF
  +--> ?PR?SHOWGSMERR?SYSSTRING
  +--> ?PR?GSM_REPOWER?GSM
  +--> ?PR?_STRLEN?DRIVER
  +--> ?PR?GSM_HUANGUP?GSM
  +--> ?PR?_MP3_STARTPLAY?AUDIO
  +--> ?PR?SCANF?SCANF
  +--> ?PR?_GSM_SETVOLUM?GSM
  +--> ?PR?SYSIDLECON?SYSSTATUS

?PR?SHOWGSMERR?SYSSTRING                   -----    -----      -----    -----      -----    -----
  +--> ?PR?LCDCLEAR?LCD12864
  +--> ?CO?SYSSTRING
  +--> ?PR?_DISPLAYSTRING?LCD12864
  +--> ?PR?_MP3_STARTPLAY?AUDIO

?PR?_STRLEN?DRIVER                         -----    -----      -----    -----      1124H    0003H

?PR?GSM_HUANGUP?GSM                        -----    -----      -----    -----      -----    -----
  +--> ?CO?GSM
  +--> ?PR?_PRINTSTRING3?UART
BL51 BANKED LINKER/LOCATER V6.22.2.0                                                  08/04/2022  16:30:25  PAGE 12



?PR?_GSM_SETVOLUM?GSM                      -----    -----      -----    -----      1088H    0001H
  +--> ?CO?GSM
  +--> ?PR?PRINTF?PRINTF

?PR?UART3CLEAR?UART                        -----    -----      -----    -----      -----    -----
  +--> ?PR?_CLEARBUF?DRIVER

?PR?_UNLOCK?DRIVER                         0020H.0  0000H.1    -----    -----      -----    -----
  +--> ?PR?SHOWUNLOCK?SYSSTRING

?PR?SHOWUNLOCK?SYSSTRING                   0020H.1  0000H.1    -----    -----      -----    -----
  +--> ?PR?LCDCLEAR?LCD12864
  +--> ?CO?SYSSTRING
  +--> ?PR?_DISPLAYSTRING?LCD12864
  +--> ?PR?_MP3_STARTPLAY?AUDIO

?PR?UARTTASK?UART                          -----    -----      -----    -----      -----    -----
  +--> ?PR?UART1CLEAR?UART
  +--> ?PR?UART3CLEAR?UART

?PR?KEYSCAN?DRIVER                         -----    -----      -----    -----      107CH    0001H

?PR?_BEEP_STARTPLAY?AUDIO                  -----    -----      -----    -----      -----    -----
  +--> ?PR?KEYBEEPTASK?AUDIO

?PR?KEYBEEPTASK?AUDIO                      -----    -----      -----    -----      -----    -----
  +--> ?CO?AUDIO

?PR?_SYSKEY?SYSSTATUS                      -----    -----      -----    -----      107CH    0001H
  +--> ?PR?_SYSIDLEKEY?SYSSTATUS
  +--> ?PR?_SYSSETTINGKEY?SYSSTATUS
  +--> ?PR?_NAMESETKEY?NAMELIST
  +--> ?PR?_NAMEEDITKEY?NAMELIST
  +--> ?PR?_NAMEDELETEKEY?NAMELIST
  +--> ?PR?_NAMEDELALLKEY?NAMELIST
  +--> ?PR?_PSWSETKEY?UNLOCKPASSWORD
  +--> ?PR?_PSWEDITKEY?UNLOCKPASSWORD
  +--> ?PR?_PSWDELETEKEY?UNLOCKPASSWORD
  +--> ?PR?_PSWDELALLKEY?UNLOCKPASSWORD
  +--> ?PR?_PSWINPUTKEY?UNLOCKPASSWORD
  +--> ?PR?_SYSINPUTROOM?SYSSTATUS
  +--> ?PR?_INPUTSYSPSW?SYSSTATUS
  +--> ?PR?_SYSPSWEDITKEY?UNLOCKPASSWORD
  +--> ?PR?_CARDSETKEY?CARD
  +--> ?PR?_CARDEDITKEY?CARD
  +--> ?PR?_CARDDELETEKEY?CARD
  +--> ?PR?_CARDDELALLKEY?CARD
  +--> ?PR?_SYSTALKKEY?SYSSTATUS
  +--> ?PR?_SYSSUBSETKEY?SYSSTATUS

?PR?_SYSIDLEKEY?SYSSTATUS                  -----    -----      -----    -----      107DH    0001H
  +--> ?PR?SYSIDLECON?SYSSTATUS
  +--> ?PR?INPUTPSWCON?UNLOCKPASSWORD
  +--> ?PR?INPUTSYSPSWCON?SYSSTATUS
  +--> ?PR?_SHOWNAMEBYIDX?NAMELIST
  +--> ?PR?_READNAMEITEMBYIDX?NAMELIST
BL51 BANKED LINKER/LOCATER V6.22.2.0                                                  08/04/2022  16:30:25  PAGE 13


  +--> ?PR?_CALLBYNAMEITEM?NAMELIST
  +--> ?PR?_MP3_STARTPLAY?AUDIO
  +--> ?PR?_STRLEN?DRIVER
  +--> ?PR?SHOWERR?SYSSTRING
  +--> ?PR?SHOWGSMERR?SYSSTRING
  +--> ?PR?_INPUTROOMCON?SYSSTATUS

?PR?INPUTPSWCON?UNLOCKPASSWORD             -----    -----      -----    -----      -----    -----
  +--> ?PR?_CLEARBUF?DRIVER
  +--> ?PR?_SHOWPSW?UNLOCKPASSWORD
  +--> ?PR?_MP3_STARTPLAY?AUDIO

?PR?_SHOWPSW?UNLOCKPASSWORD                0020H.0  0000H.1    -----    -----      1084H    0028H
  +--> ?PR?LCDCLEAR?LCD12864
  +--> ?CO?SYSSTRING
  +--> ?PR?_DISPLAYSTRING?LCD12864
  +--> ?CO?UNLOCKPASSWORD
  +--> ?PR?PRINTF?PRINTF
  +--> ?PR?_STRLEN?DRIVER
  +--> ?PR?_SETFLASH?LCD12864

?PR?INPUTSYSPSWCON?SYSSTATUS               -----    -----      -----    -----      -----    -----
  +--> ?PR?SHOWINPUTPSW?SYSSTATUS
  +--> ?PR?_MP3_STARTPLAY?AUDIO

?PR?SHOWINPUTPSW?SYSSTATUS                 -----    -----      -----    -----      107EH    001EH
  +--> ?PR?LCDCLEAR?LCD12864
  +--> ?CO?SYSSTRING
  +--> ?PR?_DISPLAYSTRING?LCD12864
  +--> ?PR?_HS_STRCPY?DRIVER
  +--> ?PR?_STRLEN?DRIVER
  +--> ?PR?_SETFLASH?LCD12864

?PR?_HS_STRCPY?DRIVER                      -----    -----      -----    -----      109CH    0006H

?PR?_SHOWNAMEBYIDX?NAMELIST                -----    -----      -----    -----      107EH    0050H
  +--> ?PR?_READNAMEITEMBYIDX?NAMELIST
  +--> ?PR?_SHOWNAME?NAMELIST

?PR?_READNAMEITEMBYIDX?NAMELIST            -----    -----      -----    -----      1122H    0003H
  +--> ?PR?_READBUF_AT24C02?EEPROM

?PR?_SHOWNAME?NAMELIST                     0020H.0  0000H.1    -----    -----      10D0H    0054H
  +--> ?PR?LCDCLEAR?LCD12864
  +--> ?CO?NAMELIST
  +--> ?CO?SYSSTRING
  +--> ?PR?PRINTF?PRINTF
  +--> ?PR?_DISPLAYSTRING?LCD12864
  +--> ?PR?_STRLEN?DRIVER
  +--> ?PR?_SETFLASH?LCD12864

?PR?_CALLBYNAMEITEM?NAMELIST               -----    -----      -----    -----      107EH    0036H
  +--> ?PR?_STRLEN?DRIVER
  +--> ?PR?_GSM_CALL?GSM
  +--> ?PR?LCDCLEAR?LCD12864
  +--> ?CO?NAMELIST
  +--> ?CO?SYSSTRING
BL51 BANKED LINKER/LOCATER V6.22.2.0                                                  08/04/2022  16:30:25  PAGE 14


  +--> ?PR?PRINTF?PRINTF
  +--> ?PR?_DISPLAYSTRING?LCD12864

?PR?_GSM_CALL?GSM                          -----    -----      -----    -----      10B4H    0003H
  +--> ?CO?GSM
  +--> ?PR?_PRINTSTRING3?UART

?PR?SHOWERR?SYSSTRING                      -----    -----      -----    -----      -----    -----
  +--> ?PR?LCDCLEAR?LCD12864
  +--> ?CO?SYSSTRING
  +--> ?PR?_DISPLAYSTRING?LCD12864
  +--> ?PR?_MP3_STARTPLAY?AUDIO

?PR?_INPUTROOMCON?SYSSTATUS                -----    -----      -----    -----      -----    -----
  +--> ?PR?SHOWINPUTROOM?SYSSTATUS
  +--> ?PR?_CLEARBUF?DRIVER
  +--> ?PR?_MP3_STARTPLAY?AUDIO

?PR?SHOWINPUTROOM?SYSSTATUS                -----    -----      -----    -----      107EH    0018H
  +--> ?PR?LCDCLEAR?LCD12864
  +--> ?CO?SYSSTRING
  +--> ?PR?_DISPLAYSTRING?LCD12864
  +--> ?CO?SYSSTATUS
  +--> ?PR?PRINTF?PRINTF

?PR?_SYSSETTINGKEY?SYSSTATUS               -----    -----      -----    -----      107DH    0001H
  +--> ?PR?SYSIDLECON?SYSSTATUS
  +--> ?PR?NAMESETCON?NAMELIST
  +--> ?PR?PSWSETCON?UNLOCKPASSWORD
  +--> ?PR?CARDSETCON?CARD
  +--> ?PR?EDITSYSPSWCON?UNLOCKPASSWORD
  +--> ?PR?_SUBSETCON?SYSSTATUS

?PR?NAMESETCON?NAMELIST                    -----    -----      -----    -----      10D0H    000AH
  +--> ?PR?LCDCLEAR?LCD12864
  +--> ?CO?SYSSTRING
  +--> ?PR?_DISPLAYSTRING?LCD12864
  +--> ?CO?NAMELIST
  +--> ?PR?PRINTF?PRINTF

?PR?PSWSETCON?UNLOCKPASSWORD               -----    -----      -----    -----      1084H    000AH
  +--> ?PR?LCDCLEAR?LCD12864
  +--> ?CO?SYSSTRING
  +--> ?PR?_DISPLAYSTRING?LCD12864
  +--> ?CO?UNLOCKPASSWORD
  +--> ?PR?PRINTF?PRINTF

?PR?CARDSETCON?CARD                        -----    -----      -----    -----      1080H    000AH
  +--> ?PR?LCDCLEAR?LCD12864
  +--> ?CO?SYSSTRING
  +--> ?PR?_DISPLAYSTRING?LCD12864
  +--> ?CO?CARD
  +--> ?PR?PRINTF?PRINTF

?PR?EDITSYSPSWCON?UNLOCKPASSWORD           -----    -----      -----    -----      -----    -----
  +--> ?PR?_CLEARBUF?DRIVER
  +--> ?PR?_SHOWPSW?UNLOCKPASSWORD
BL51 BANKED LINKER/LOCATER V6.22.2.0                                                  08/04/2022  16:30:25  PAGE 15



?PR?_SUBSETCON?SYSSTATUS                   -----    -----      -----    -----      -----    -----
  +--> ?PR?SHOWSUBPARA?SYSSTATUS

?PR?SHOWSUBPARA?SYSSTATUS                  -----    -----      -----    -----      107EH    0018H
  +--> ?PR?LCDCLEAR?LCD12864
  +--> ?CO?SYSSTATUS
  +--> ?CO?SYSSTRING
  +--> ?PR?PRINTF?PRINTF
  +--> ?PR?_DISPLAYSTRING?LCD12864
  +--> ?PR?_STRLEN?DRIVER

?PR?_NAMESETKEY?NAMELIST                   -----    -----      -----    -----      -----    -----
  +--> ?PR?EDITNAMEITEMCON?NAMELIST
  +--> ?PR?DELETENAMECON?NAMELIST
  +--> ?PR?DELETEALLNAMECON?NAMELIST
  +--> ?PR?SYSSETTINGCON?SYSSTATUS

?PR?EDITNAMEITEMCON?NAMELIST               -----    -----      -----    -----      -----    -----
  +--> ?PR?_CLEARBUF?DRIVER
  +--> ?PR?_SHOWNAME?NAMELIST

?PR?DELETENAMECON?NAMELIST                 -----    -----      -----    -----      -----    -----
  +--> ?PR?_CLEARBUF?DRIVER
  +--> ?PR?_SHOWNAME?NAMELIST

?PR?DELETEALLNAMECON?NAMELIST              -----    -----      -----    -----      -----    -----
  +--> ?PR?LCDCLEAR?LCD12864
  +--> ?CO?SYSSTRING
  +--> ?PR?_DISPLAYSTRING?LCD12864

?PR?SYSSETTINGCON?SYSSTATUS                -----    -----      -----    -----      -----    -----
  +--> ?PR?LCDCLEAR?LCD12864
  +--> ?CO?SYSSTRING
  +--> ?PR?_DISPLAYSTRING?LCD12864
  +--> ?PR?_DISPLAYICO?LCD12864

?PR?_NAMEEDITKEY?NAMELIST                  -----    -----      -----    -----      107DH    0001H
  +--> ?PR?_CLEARBUF?DRIVER
  +--> ?PR?_STRLEN?DRIVER
  +--> ?PR?_ADDNAMEITEM?NAMELIST
  +--> ?PR?SHOWSAVEOK?SYSSTRING
  +--> ?PR?SHOWERR?SYSSTRING
  +--> ?PR?NAMEEDITCHAGETYPE?NAMELIST
  +--> ?PR?NAMESETCON?NAMELIST
  +--> ?CO?SYSSTRING
  +--> ?PR?_SHOWNAME?NAMELIST

?PR?SHOWSAVEOK?SYSSTRING                   -----    -----      -----    -----      -----    -----
  +--> ?PR?LCDCLEAR?LCD12864
  +--> ?CO?SYSSTRING
  +--> ?PR?_DISPLAYSTRING?LCD12864
  +--> ?PR?_MP3_STARTPLAY?AUDIO

?PR?NAMEEDITCHAGETYPE?NAMELIST             -----    -----      -----    -----      107EH    0052H
  +--> ?PR?_GETNAMEITEMBYROOM?NAMELIST
  +--> ?PR?_HS_MEMCPY?DRIVER
BL51 BANKED LINKER/LOCATER V6.22.2.0                                                  08/04/2022  16:30:25  PAGE 16


  +--> ?PR?_STRLEN?DRIVER
  +--> ?PR?SHOWCONFIRMSAVE?SYSSTRING

?PR?_GETNAMEITEMBYROOM?NAMELIST            -----    -----      -----    -----      10D0H    0005H
  +--> ?PR?_GETIDXBYROOM?SYSSTATUS
  +--> ?PR?_READNAMEITEMBYIDX?NAMELIST

?PR?_HS_MEMCPY?DRIVER                      -----    -----      -----    -----      10D0H    0008H

?PR?SHOWCONFIRMSAVE?SYSSTRING              -----    -----      -----    -----      -----    -----
  +--> ?PR?LCDCLEAR?LCD12864
  +--> ?CO?SYSSTRING
  +--> ?PR?_DISPLAYSTRING?LCD12864

?PR?_NAMEDELETEKEY?NAMELIST                -----    -----      -----    -----      107DH    0053H
  +--> ?PR?_CLEARBUF?DRIVER
  +--> ?PR?_DELNAMEITEMBYROOM?NAMELIST
  +--> ?PR?SHOWDELETEOK?SYSSTRING
  +--> ?PR?_GETNAMEITEMBYROOM?NAMELIST
  +--> ?PR?_HS_MEMCPY?DRIVER
  +--> ?PR?_STRLEN?DRIVER
  +--> ?PR?SHOWCONFIRMDEL?SYSSTRING
  +--> ?PR?NAMESETCON?NAMELIST
  +--> ?PR?_SHOWNAME?NAMELIST

?PR?_DELNAMEITEMBYROOM?NAMELIST            -----    -----      -----    -----      -----    -----
  +--> ?PR?_GETIDXBYROOM?SYSSTATUS
  +--> ?PR?_DELNAMEITEMBYIDX?NAMELIST

?PR?_DELNAMEITEMBYIDX?NAMELIST             -----    -----      -----    -----      10D0H    0052H
  +--> ?PR?SAVENAMECOUNT?NAMELIST
  +--> ?PR?_READNAMEITEMBYIDX?NAMELIST
  +--> ?PR?_WRITENAMEITEMBYIDX?NAMELIST

?PR?SHOWDELETEOK?SYSSTRING                 -----    -----      -----    -----      -----    -----
  +--> ?PR?LCDCLEAR?LCD12864
  +--> ?CO?SYSSTRING
  +--> ?PR?_DISPLAYSTRING?LCD12864
  +--> ?PR?_MP3_STARTPLAY?AUDIO

?PR?SHOWCONFIRMDEL?SYSSTRING               -----    -----      -----    -----      -----    -----
  +--> ?PR?LCDCLEAR?LCD12864
  +--> ?CO?SYSSTRING
  +--> ?PR?_DISPLAYSTRING?LCD12864

?PR?_NAMEDELALLKEY?NAMELIST                -----    -----      -----    -----      -----    -----
  +--> ?PR?CLEARNAMELIST?NAMELIST
  +--> ?PR?SHOWDELETEOK?SYSSTRING
  +--> ?PR?NAMESETCON?NAMELIST

?PR?_PSWSETKEY?UNLOCKPASSWORD              -----    -----      -----    -----      -----    -----
  +--> ?PR?EDITPSWCON?UNLOCKPASSWORD
  +--> ?PR?DELETEPSWCON?UNLOCKPASSWORD
  +--> ?PR?DELETEALLPSWCON?UNLOCKPASSWORD
  +--> ?PR?SYSSETTINGCON?SYSSTATUS

?PR?EDITPSWCON?UNLOCKPASSWORD              -----    -----      -----    -----      -----    -----
BL51 BANKED LINKER/LOCATER V6.22.2.0                                                  08/04/2022  16:30:25  PAGE 17


  +--> ?PR?_CLEARBUF?DRIVER
  +--> ?PR?_SHOWPSW?UNLOCKPASSWORD

?PR?DELETEPSWCON?UNLOCKPASSWORD            -----    -----      -----    -----      -----    -----
  +--> ?PR?_CLEARBUF?DRIVER
  +--> ?PR?_SHOWPSW?UNLOCKPASSWORD

?PR?DELETEALLPSWCON?UNLOCKPASSWORD         -----    -----      -----    -----      -----    -----
  +--> ?PR?LCDCLEAR?LCD12864
  +--> ?CO?SYSSTRING
  +--> ?PR?_DISPLAYSTRING?LCD12864

?PR?_PSWEDITKEY?UNLOCKPASSWORD             -----    -----      -----    -----      107DH    0007H
  +--> ?PR?_CLEARBUF?DRIVER
  +--> ?PR?_ADDPSWITEM?UNLOCKPASSWORD
  +--> ?PR?SHOWSAVEOK?SYSSTRING
  +--> ?PR?SHOWERR?SYSSTRING
  +--> ?PR?SHOWCONFIRMSAVE?SYSSTRING
  +--> ?PR?PSWSETCON?UNLOCKPASSWORD
  +--> ?PR?_SHOWPSW?UNLOCKPASSWORD

?PR?_ADDPSWITEM?UNLOCKPASSWORD             -----    -----      -----    -----      1084H    0005H
  +--> ?PR?_GETIDXBYROOM?SYSSTATUS
  +--> ?CO?UNLOCKPASSWORD
  +--> ?PR?PRINTF?PRINTF
  +--> ?PR?_WRITEPSWBYIDX?UNLOCKPASSWORD
  +--> ?PR?SAVEPSWCOUNT?UNLOCKPASSWORD

?PR?_WRITEPSWBYIDX?UNLOCKPASSWORD          -----    -----      -----    -----      -----    -----
  +--> ?PR?_WRITEBUF_AT24C02?EEPROM

?PR?_PSWDELETEKEY?UNLOCKPASSWORD           -----    -----      -----    -----      107DH    0003H
  +--> ?PR?_CLEARBUF?DRIVER
  +--> ?PR?_DELPSWBYROOM?UNLOCKPASSWORD
  +--> ?PR?SHOWDELETEOK?SYSSTRING
  +--> ?PR?SHOWCONFIRMDEL?SYSSTRING
  +--> ?PR?PSWSETCON?UNLOCKPASSWORD
  +--> ?PR?_SHOWPSW?UNLOCKPASSWORD

?PR?_DELPSWBYROOM?UNLOCKPASSWORD           -----    -----      -----    -----      1080H    0002H
  +--> ?PR?_DELPSWBYIDX?UNLOCKPASSWORD
  +--> ?PR?_GETIDXBYROOM?SYSSTATUS

?PR?_DELPSWBYIDX?UNLOCKPASSWORD            -----    -----      -----    -----      1082H    0006H
  +--> ?PR?SAVEPSWCOUNT?UNLOCKPASSWORD
  +--> ?PR?_READPSWBYIDX?UNLOCKPASSWORD
  +--> ?PR?_WRITEPSWBYIDX?UNLOCKPASSWORD

?PR?_READPSWBYIDX?UNLOCKPASSWORD           -----    -----      -----    -----      -----    -----
  +--> ?PR?_READBUF_AT24C02?EEPROM

?PR?_PSWDELALLKEY?UNLOCKPASSWORD           -----    -----      -----    -----      -----    -----
  +--> ?PR?CLEARPSW?UNLOCKPASSWORD
  +--> ?PR?SHOWDELETEOK?SYSSTRING
  +--> ?PR?PSWSETCON?UNLOCKPASSWORD

?PR?_PSWINPUTKEY?UNLOCKPASSWORD            -----    -----      -----    -----      107DH    0001H
BL51 BANKED LINKER/LOCATER V6.22.2.0                                                  08/04/2022  16:30:25  PAGE 18


  +--> ?PR?SYSIDLECON?SYSSTATUS
  +--> ?PR?_CHECKPSW?UNLOCKPASSWORD
  +--> ?PR?_UNLOCK?DRIVER
  +--> ?PR?SHOWERR?SYSSTRING
  +--> ?PR?_MP3_STARTPLAY?AUDIO
  +--> ?PR?_SHOWPSW?UNLOCKPASSWORD

?PR?_CHECKPSW?UNLOCKPASSWORD               -----    -----      -----    -----      107EH    0008H
  +--> ?CO?UNLOCKPASSWORD
  +--> ?PR?PRINTF?PRINTF
  +--> ?PR?_READPSWBYIDX?UNLOCKPASSWORD

?PR?_SYSINPUTROOM?SYSSTATUS                -----    -----      -----    -----      107DH    0001H
  +--> ?PR?_GETNAMEITEMBYROOM?NAMELIST
  +--> ?PR?_CALLBYNAMEITEM?NAMELIST
  +--> ?PR?_MP3_STARTPLAY?AUDIO
  +--> ?PR?_STRLEN?DRIVER
  +--> ?PR?SHOWERR?SYSSTRING
  +--> ?PR?SHOWGSMERR?SYSSTRING
  +--> ?PR?SHOWROOMERR?SYSSTRING
  +--> ?PR?SHOWINPUTROOM?SYSSTATUS
  +--> ?PR?MP3_STOP?AUDIO
  +--> ?PR?SYSIDLECON?SYSSTATUS

?PR?SHOWROOMERR?SYSSTRING                  -----    -----      -----    -----      -----    -----
  +--> ?PR?LCDCLEAR?LCD12864
  +--> ?CO?SYSSTRING
  +--> ?PR?_DISPLAYSTRING?LCD12864

?PR?_INPUTSYSPSW?SYSSTATUS                 -----    -----      -----    -----      107DH    0001H
  +--> ?PR?SYSSETTINGCON?SYSSTATUS
  +--> ?PR?SHOWERR?SYSSTRING
  +--> ?PR?_MP3_STARTPLAY?AUDIO
  +--> ?PR?SHOWINPUTPSW?SYSSTATUS
  +--> ?PR?MP3_STOP?AUDIO
  +--> ?PR?SYSIDLECON?SYSSTATUS

?PR?_SYSPSWEDITKEY?UNLOCKPASSWORD          -----    -----      -----    -----      107DH    0001H
  +--> ?PR?_CLEARBUF?DRIVER
  +--> ?PR?SAVESYSPSW?UNLOCKPASSWORD
  +--> ?PR?SHOWSAVEOK?SYSSTRING
  +--> ?PR?SHOWERR?SYSSTRING
  +--> ?PR?SHOWCONFIRMSAVE?SYSSTRING
  +--> ?PR?SYSSETTINGCON?SYSSTATUS
  +--> ?PR?_SHOWPSW?UNLOCKPASSWORD

?PR?SAVESYSPSW?UNLOCKPASSWORD              -----    -----      -----    -----      -----    -----
  +--> ?PR?_WRITEBUF_AT24C02?EEPROM

?PR?_CARDSETKEY?CARD                       -----    -----      -----    -----      -----    -----
  +--> ?PR?EDITCARDCON?CARD
  +--> ?PR?DELETECARDCON?CARD
  +--> ?PR?DELETEALLCARDCON?CARD
  +--> ?PR?SYSSETTINGCON?SYSSTATUS

?PR?EDITCARDCON?CARD                       -----    -----      -----    -----      -----    -----
  +--> ?PR?_CLEARBUF?DRIVER
BL51 BANKED LINKER/LOCATER V6.22.2.0                                                  08/04/2022  16:30:25  PAGE 19


  +--> ?PR?_SHOWCARD?CARD

?PR?_SHOWCARD?CARD                         0020H.0  0000H.1    -----    -----      1082H    0043H
  +--> ?PR?LCDCLEAR?LCD12864
  +--> ?CO?CARD
  +--> ?CO?SYSSTRING
  +--> ?PR?PRINTF?PRINTF
  +--> ?PR?_DISPLAYSTRING?LCD12864
  +--> ?PR?_STRLEN?DRIVER
  +--> ?PR?_SETFLASH?LCD12864
  +--> ?PR?_MEMISEMPTY?DRIVER
  +--> ?PR?_HBSTRLEN?DRIVER

?PR?_MEMISEMPTY?DRIVER                     -----    -----      -----    -----      10C5H    0003H

?PR?DELETECARDCON?CARD                     -----    -----      -----    -----      -----    -----
  +--> ?PR?_CLEARBUF?DRIVER
  +--> ?PR?_MEMISEMPTY?DRIVER
  +--> ?PR?_SHOWCARD?CARD

?PR?DELETEALLCARDCON?CARD                  -----    -----      -----    -----      -----    -----
  +--> ?PR?LCDCLEAR?LCD12864
  +--> ?CO?SYSSTRING
  +--> ?PR?_DISPLAYSTRING?LCD12864

?PR?_CARDEDITKEY?CARD                      -----    -----      -----    -----      107DH    0003H
  +--> ?PR?_CLEARBUF?DRIVER
  +--> ?PR?_MEMISEMPTY?DRIVER
  +--> ?PR?_ADDCARDITEM?CARD
  +--> ?PR?SHOWSAVEOK?SYSSTRING
  +--> ?PR?SHOWERR?SYSSTRING
  +--> ?PR?SHOWCONFIRMSAVE?SYSSTRING
  +--> ?PR?CARDSETCON?CARD
  +--> ?PR?_SHOWCARD?CARD

?PR?_ADDCARDITEM?CARD                      -----    -----      -----    -----      1080H    000BH
  +--> ?PR?_READCARDBYIDX?CARD
  +--> ?PR?_WRITECARDBYIDX?CARD
  +--> ?PR?SAVECARDCOUNT?CARD

?PR?_READCARDBYIDX?CARD                    -----    -----      -----    -----      108EH    0003H
  +--> ?PR?_READBUF_AT24C02?EEPROM

?PR?_WRITECARDBYIDX?CARD                   -----    -----      -----    -----      108BH    0003H
  +--> ?PR?_WRITEBUF_AT24C02?EEPROM

?PR?_CARDDELETEKEY?CARD                    -----    -----      -----    -----      107DH    0003H
  +--> ?PR?_CLEARBUF?DRIVER
  +--> ?PR?_MEMISEMPTY?DRIVER
  +--> ?PR?_DELCARDBYCARD?CARD
  +--> ?PR?_DELCARDBYROOM?CARD
  +--> ?PR?SHOWDELETEOK?SYSSTRING
  +--> ?PR?SHOWCONFIRMDEL?SYSSTRING
  +--> ?PR?CARDSETCON?CARD
  +--> ?PR?_SHOWCARD?CARD

?PR?_DELCARDBYCARD?CARD                    -----    -----      -----    -----      1080H    0003H
BL51 BANKED LINKER/LOCATER V6.22.2.0                                                  08/04/2022  16:30:25  PAGE 20


  +--> ?PR?_DELCARDBYIDX?CARD
  +--> ?PR?_CHECKCARD?CARD

?PR?_DELCARDBYIDX?CARD                     -----    -----      -----    -----      1083H    0008H
  +--> ?PR?SAVECARDCOUNT?CARD
  +--> ?PR?_READCARDBYIDX?CARD
  +--> ?PR?_WRITECARDBYIDX?CARD

?PR?_CHECKCARD?CARD                        -----    -----      -----    -----      1083H    000BH
  +--> ?PR?_READCARDBYIDX?CARD
  +--> ?CO?CARD
  +--> ?PR?PRINTF?PRINTF

?PR?_DELCARDBYROOM?CARD                    -----    -----      -----    -----      1080H    0002H
  +--> ?PR?_DELCARDBYIDX?CARD
  +--> ?PR?_GETIDXBYROOM?SYSSTATUS

?PR?_CARDDELALLKEY?CARD                    -----    -----      -----    -----      -----    -----
  +--> ?PR?CLEARCARD?CARD
  +--> ?PR?SHOWDELETEOK?SYSSTRING
  +--> ?PR?CARDSETCON?CARD

?PR?_SYSTALKKEY?SYSSTATUS                  -----    -----      -----    -----      107DH    0001H
  +--> ?PR?_GSM_SEND_DTMF?GSM
  +--> ?PR?GSM_HUANGUP?GSM
  +--> ?PR?SYSIDLECON?SYSSTATUS
  +--> ?PR?_GSM_SETVOLUM?GSM

?PR?_GSM_SEND_DTMF?GSM                     -----    -----      -----    -----      107EH    000EH
  +--> ?CO?GSM
  +--> ?PR?_PRINTSTRING3?UART

?PR?_SYSSUBSETKEY?SYSSTATUS                -----    -----      -----    -----      107DH    0001H
  +--> ?PR?SHOWSUBPARA?SYSSTATUS
  +--> ?PR?_SAVESUBPARA?SYSSTATUS
  +--> ?PR?SYSSETTINGCON?SYSSTATUS

?PR?_SAVESUBPARA?SYSSTATUS                 -----    -----      -----    -----      107EH    0002H
  +--> ?PR?_WRITEBUF_AT24C02?EEPROM
  +--> ?PR?SHOWSAVEOK?SYSSTRING

?PR?SKEYSCAN?DRIVER                        -----    -----      -----    -----      -----    -----
  +--> ?PR?_UNLOCK?DRIVER
  +--> ?CO?DRIVER
  +--> ?PR?PRINTF?PRINTF
  +--> ?PR?INITSYSPARA?SYSSTATUS
  +--> ?PR?SHOWRESET?SYSSTRING

?PR?SHOWRESET?SYSSTRING                    -----    -----      -----    -----      -----    -----
  +--> ?PR?LCDCLEAR?LCD12864
  +--> ?CO?SYSSTRING
  +--> ?PR?_DISPLAYSTRING?LCD12864

?PR?GSM_INITTASK?GSM                       -----    -----      -----    -----      -----    -----
  +--> ?PR?GSM_STARTINIT?GSM
  +--> ?CO?GSM
  +--> ?PR?PRINTF?PRINTF
BL51 BANKED LINKER/LOCATER V6.22.2.0                                                  08/04/2022  16:30:25  PAGE 21


  +--> ?PR?_PRINTSTRING3?UART
  +--> ?PR?GSM_REPOWER?GSM
  +--> ?PR?GSM_GETCSQ?GSM
  +--> ?PR?GSM_HUANGUP?GSM
  +--> ?PR?_STRLEN?DRIVER
  +--> ?PR?SHOWERR?SYSSTRING
  +--> ?PR?_GSM_SETVOLUM?GSM
  +--> ?PR?_CALLBYNAMEITEM?NAMELIST
  +--> ?PR?_MP3_STARTPLAY?AUDIO
  +--> ?PR?SYSIDLECON?SYSSTATUS

?PR?GSM_GETCSQ?GSM                         -----    -----      -----    -----      -----    -----
  +--> ?CO?GSM
  +--> ?PR?PRINTF?PRINTF

?PR?FLASHTASK?LCD12864                     -----    -----      -----    -----      -----    -----
  +--> ?PR?_DISPLAYFL?LCD12864

?PR?_DISPLAYFL?LCD12864                    0020H.0  0000H.1    -----    -----      -----    -----
  +--> ?PR?_LCD_WCMD?LCD12864
  +--> ?PR?_LCD_WDAT?LCD12864

?PR?SHOWTALKTIME?SYSSTRING                 -----    -----      -----    -----      -----    -----
  +--> ?PR?LCDCLEAR?LCD12864
  +--> ?CO?SYSSTRING
  +--> ?PR?PRINTF?PRINTF
  +--> ?PR?_DISPLAYSTRING?LCD12864

?PR?CHECKRFIDCARD?CARDREAD                 -----    -----      -----    -----      107CH    0008H
  +--> ?CO?CARDREAD
  +--> ?PR?PRINTF?PRINTF

?PR?_SYSCARD?SYSSTATUS                     -----    -----      -----    -----      107CH    0003H
  +--> ?PR?_CARDEDITCARDIN?CARD
  +--> ?PR?_CHECKCARD?CARD
  +--> ?PR?_UNLOCK?DRIVER
  +--> ?PR?SHOWCARDERR?SYSSTRING

?PR?_CARDEDITCARDIN?CARD                   -----    -----      -----    -----      107FH    0003H
  +--> ?PR?_HS_MEMCPY?DRIVER
  +--> ?PR?_SHOWCARD?CARD

?PR?SHOWCARDERR?SYSSTRING                  -----    -----      -----    -----      -----    -----
  +--> ?PR?LCDCLEAR?LCD12864
  +--> ?CO?SYSSTRING
  +--> ?PR?_DISPLAYSTRING?LCD12864
  +--> ?PR?_MP3_STARTPLAY?AUDIO

?C_INITSEG                                 -----    -----      -----    -----      -----    -----
  +--> ?CO?GSM
  +--> ?PR?_ATCMDCB_AT?GSM
  +--> ?PR?_ATCMDCB_CPIN?GSM
  +--> ?PR?_ATCMDCB_CREG?GSM
  +--> ?PR?_ATCMDCB_CLCC?GSM
  +--> ?PR?_ATCMDCB_CSQ?GSM

?PR?_ATCMDCB_AT?GSM                        -----    -----      -----    -----      -----    -----
BL51 BANKED LINKER/LOCATER V6.22.2.0                                                  08/04/2022  16:30:25  PAGE 22


  +--> ?CO?GSM
  +--> ?PR?_LOOKFORSTR?DRIVER

?PR?_ATCMDCB_CPIN?GSM                      -----    -----      -----    -----      107CH    0009H
  +--> ?CO?GSM
  +--> ?PR?_LOOKFORSTR?DRIVER
  +--> ?PR?_STRLEN?DRIVER
  +--> ?PR?SCANF?SCANF
  +--> ?PR?PRINTF?PRINTF

?PR?_ATCMDCB_CREG?GSM                      -----    -----      -----    -----      107CH    0009H
  +--> ?CO?GSM
  +--> ?PR?_LOOKFORSTR?DRIVER
  +--> ?PR?_STRLEN?DRIVER
  +--> ?PR?SCANF?SCANF
  +--> ?PR?PRINTF?PRINTF

?PR?_ATCMDCB_CLCC?GSM                      -----    -----      -----    -----      -----    -----
  +--> ?CO?GSM
  +--> ?PR?_LOOKFORSTR?DRIVER

?PR?_ATCMDCB_CSQ?GSM                       -----    -----      -----    -----      107CH    0009H
  +--> ?CO?GSM
  +--> ?PR?_LOOKFORSTR?DRIVER
  +--> ?PR?_STRLEN?DRIVER
  +--> ?PR?SCANF?SCANF
  +--> ?PR?PRINTF?PRINTF

*** NEW ROOT ***************************************************

?PR?TIMER0_INT?TIMER                       -----    -----      -----    -----      -----    -----
  +--> ?PR?KEYBEEPTASK?AUDIO

*** NEW ROOT ***************************************************

?PR?TIMER4_INT?TIMER                       -----    -----      -----    -----      -----    -----
  +--> ?PR?PWMTASK?AUDIO

*** NEW ROOT ***************************************************

?PR?EXT_INT0?EXTI                          -----    -----      -----    -----      -----    -----
  +--> ?PR?CARDIRQ?CARDREAD



SYMBOL TABLE OF MODULE:  .\Objects\GSM (?C_STARTUP)

  VALUE           TYPE          NAME
  ----------------------------------

  -------         MODULE        ?C_STARTUP
  C:7A8BH         SEGMENT       ?C_C51STARTUP
  I:0024H         SEGMENT       ?STACK
  C:0000H         PUBLIC        ?C_STARTUP
  D:00E0H         SYMBOL        ACC
  D:00F0H         SYMBOL        B
  D:0083H         SYMBOL        DPH
BL51 BANKED LINKER/LOCATER V6.22.2.0                                                  08/04/2022  16:30:25  PAGE 23


  D:0082H         SYMBOL        DPL
  N:0000H         SYMBOL        IBPSTACK
  N:0100H         SYMBOL        IBPSTACKTOP
  N:0080H         SYMBOL        IDATALEN
  C:7A8EH         SYMBOL        IDATALOOP
  N:0000H         SYMBOL        PBPSTACK
  N:0100H         SYMBOL        PBPSTACKTOP
  N:0000H         SYMBOL        PDATALEN
  N:0000H         SYMBOL        PDATASTART
  N:0000H         SYMBOL        PPAGE
  N:0000H         SYMBOL        PPAGEENABLE
  D:00A0H         SYMBOL        PPAGE_SFR
  D:0081H         SYMBOL        SP
  C:7A8BH         SYMBOL        STARTUP1
  N:0000H         SYMBOL        XBPSTACK
  N:0000H         SYMBOL        XBPSTACKTOP
  N:0000H         SYMBOL        XDATALEN
  N:0000H         SYMBOL        XDATASTART
  C:0000H         LINE#         126
  C:7A8BH         LINE#         133
  C:7A8DH         LINE#         134
  C:7A8EH         LINE#         135
  C:7A8FH         LINE#         136
  C:7A91H         LINE#         185
  C:7A94H         LINE#         196
  -------         ENDMOD        ?C_STARTUP

  -------         MODULE        MAIN
  C:0000H         SYMBOL        _ICE_DUMMY_
  D:0080H         PUBLIC        P0
  D:0090H         PUBLIC        P1
  D:00A0H         PUBLIC        P2
  D:00B0H         PUBLIC        P3
  D:00C0H         PUBLIC        P4
  D:00C8H         PUBLIC        P5
  B:00A8H.7       PUBLIC        EA
  D:00E8H         PUBLIC        P6
  D:00F8H         PUBLIC        P7
  D:00A8H         PUBLIC        IE
  X:1386H         PUBLIC        MainTime
  D:00B8H         PUBLIC        IP
  D:00D8H         PUBLIC        CCON
  C:4207H         PUBLIC        main
  B:0080H.1       PUBLIC        P01
  B:00C0H.0       PUBLIC        P40
  D:0098H         PUBLIC        SCON
  D:0088H         PUBLIC        TCON
  D:00F0H         PUBLIC        B
  D:00E0H         PUBLIC        ACC
  X:1388H         PUBLIC        UsrKey
  D:00D0H         PUBLIC        PSW
  -------         PROC          MAIN
  C:4207H         LINE#         18
  C:4207H         LINE#         19
  C:4207H         LINE#         20
  C:420EH         LINE#         21
  C:4210H         LINE#         22
BL51 BANKED LINKER/LOCATER V6.22.2.0                                                  08/04/2022  16:30:25  PAGE 24


  C:4213H         LINE#         23
  C:4216H         LINE#         24
  C:4219H         LINE#         25
  C:421CH         LINE#         26
  C:421FH         LINE#         28
  C:4222H         LINE#         29
  C:4225H         LINE#         31
  C:422CH         LINE#         32
  C:422FH         LINE#         33
  C:4231H         LINE#         34
  C:4238H         LINE#         35
  C:423DH         LINE#         36
  C:4240H         LINE#         37
  C:4247H         LINE#         38
  C:424AH         LINE#         39
  C:424DH         LINE#         40
  C:4250H         LINE#         41
  C:4255H         LINE#         45
  C:4255H         LINE#         46
  C:4255H         LINE#         47
  C:425BH         LINE#         48
  C:425BH         LINE#         50
  C:4264H         LINE#         51
  C:4267H         LINE#         52
  C:4267H         LINE#         53
  C:426DH         LINE#         54
  C:426DH         LINE#         55
  C:4284H         LINE#         56
  C:4295H         LINE#         57
  C:4298H         LINE#         58
  C:4298H         LINE#         67
  C:429BH         LINE#         69
  C:42A2H         LINE#         70
  C:42A2H         LINE#         71
  C:42AFH         LINE#         72
  C:42BBH         LINE#         73
  C:42BBH         LINE#         74
  C:42C7H         LINE#         75
  C:42C7H         LINE#         76
  C:42D3H         LINE#         77
  C:42D3H         LINE#         78
  C:42DFH         LINE#         79
  C:42DFH         LINE#         80
  C:42E4H         LINE#         81
  C:42E4H         LINE#         82
  C:42EAH         LINE#         83
  C:42EAH         LINE#         84
  C:42ECH         LINE#         86
  C:42EFH         LINE#         87
  C:42F7H         LINE#         88
  C:42FAH         LINE#         89
  C:42FAH         LINE#         92
  C:42FFH         LINE#         96
  C:4310H         LINE#         97
  C:4318H         LINE#         98
  C:4318H         LINE#         99
  C:431BH         LINE#         101
BL51 BANKED LINKER/LOCATER V6.22.2.0                                                  08/04/2022  16:30:25  PAGE 25


  C:431EH         LINE#         102
  C:4321H         LINE#         103
  C:4324H         LINE#         107
  C:433CH         LINE#         108
  C:433CH         LINE#         109
  C:4343H         LINE#         110
  C:4345H         LINE#         111
  C:4348H         LINE#         112
  C:4366H         LINE#         113
  C:4366H         LINE#         114
  C:4374H         LINE#         115
  C:4374H         LINE#         116
  C:4377H         LINE#         117
  C:4377H         LINE#         118
  C:4377H         LINE#         119
  C:437FH         LINE#         120
  C:437FH         LINE#         121
  C:4382H         LINE#         124
  C:439DH         LINE#         125
  C:439DH         LINE#         126
  C:43A2H         LINE#         127
  C:43A2H         LINE#         128
  C:43BAH         LINE#         129
  C:43BAH         LINE#         130
  C:43BDH         LINE#         131
  C:43C2H         LINE#         132
  C:43C5H         LINE#         133
  C:43C5H         LINE#         134
  C:43C5H         LINE#         143
  C:43CBH         LINE#         144
  C:43D3H         LINE#         145
  C:4401H         LINE#         146
  C:4401H         LINE#         147
  C:4419H         LINE#         148
  C:4419H         LINE#         158
  C:4419H         LINE#         160
  C:442FH         LINE#         161
  C:442FH         LINE#         162
  C:443DH         LINE#         163
  C:4444H         LINE#         164
  C:4444H         LINE#         165
  C:4449H         LINE#         166
  C:4449H         LINE#         167
  C:4449H         LINE#         168
  C:4449H         LINE#         170
  C:4453H         LINE#         171
  C:4453H         LINE#         176
  C:4455H         LINE#         177
  C:4455H         LINE#         178
  C:445BH         LINE#         179
  C:445BH         LINE#         180
  C:445EH         LINE#         181
  C:4461H         LINE#         182
  C:4461H         LINE#         184
  C:4466H         LINE#         188
  C:446FH         LINE#         189
  C:446FH         LINE#         190
BL51 BANKED LINKER/LOCATER V6.22.2.0                                                  08/04/2022  16:30:25  PAGE 26


  C:4472H         LINE#         191
  C:4472H         LINE#         204
  -------         ENDPROC       MAIN
  -------         ENDMOD        MAIN

  -------         MODULE        DRIVER
  C:0000H         SYMBOL        _ICE_DUMMY_
  D:0080H         PUBLIC        P0
  D:0090H         PUBLIC        P1
  D:00A0H         PUBLIC        P2
  D:00B0H         PUBLIC        P3
  D:00C0H         PUBLIC        P4
  D:00C8H         PUBLIC        P5
  D:00E8H         PUBLIC        P6
  D:00F8H         PUBLIC        P7
  C:8E0FH         PUBLIC        _ClearBuf
  X:1377H         PUBLIC        DtmfData
  C:714AH         PUBLIC        GPIO_config
  C:8907H         PUBLIC        _HS_memcpy
  D:00A8H         PUBLIC        IE
  C:9026H         PUBLIC        _delay
  C:9496H         PUBLIC        RelayTask
  C:86E9H         PUBLIC        UART_config
  D:00B8H         PUBLIC        IP
  C:904CH         PUBLIC        _strlen
  D:00D8H         PUBLIC        CCON
  C:868FH         PUBLIC        _HS_strcpy
  C:67D7H         PUBLIC        SkeyScan
  X:1378H         PUBLIC        SkeyStatus
  C:9570H         PUBLIC        _HBstrlen
  C:6A3AH         PUBLIC        KeyScan
  B:00C0H.0       PUBLIC        P40
  B:0080H.4       PUBLIC        P04
  D:0098H         PUBLIC        SCON
  B:00C0H.1       PUBLIC        P41
  B:0080H.5       PUBLIC        P05
  D:0088H         PUBLIC        TCON
  B:0080H.6       PUBLIC        P06
  B:00F8H.0       PUBLIC        P70
  B:00C0H.3       PUBLIC        P43
  B:00F8H.1       PUBLIC        P71
  B:00F8H.2       PUBLIC        P72
  B:00C8H.4       PUBLIC        P54
  B:00F8H.3       PUBLIC        P73
  B:00C8H.5       PUBLIC        P55
  D:00F0H         PUBLIC        B
  X:1379H         PUBLIC        ResetKeyTime
  D:00E0H         PUBLIC        ACC
  X:137BH         PUBLIC        SkeyStatusOld
  C:6F66H         PUBLIC        _lookforstr
  C:8793H         PUBLIC        Timer_config
  C:935CH         PUBLIC        _Unlock
  C:8DB3H         PUBLIC        _MemIsEmpty
  C:947DH         PUBLIC        Exti_config
  D:00D0H         PUBLIC        PSW
  X:137CH         PUBLIC        Rly1Time
  C:976CH         PUBLIC        _putchar
BL51 BANKED LINKER/LOCATER V6.22.2.0                                                  08/04/2022  16:30:25  PAGE 27


  -------         PROC          _DELAY
  D:0006H         SYMBOL        t
  -------         DO            
  D:0004H         SYMBOL        i
  D:0002H         SYMBOL        j
  -------         ENDDO         
  C:9026H         LINE#         14
  C:9026H         LINE#         15
  C:9026H         LINE#         17
  C:902DH         LINE#         18
  C:9036H         LINE#         19
  C:904BH         LINE#         20
  -------         ENDPROC       _DELAY
  -------         PROC          _PUTCHAR
  X:114CH         SYMBOL        ch
  C:976CH         LINE#         22
  C:9771H         LINE#         23
  C:9771H         LINE#         24
  C:9774H         LINE#         25
  C:9779H         LINE#         26
  -------         ENDPROC       _PUTCHAR
  -------         PROC          _STRLEN
  X:1124H         SYMBOL        pch
  -------         DO            
  D:0007H         SYMBOL        len
  -------         ENDDO         
  C:904CH         LINE#         27
  C:9057H         LINE#         28
  C:9057H         LINE#         29
  C:9059H         LINE#         30
  C:9071H         LINE#         31
  C:9071H         LINE#         32
  -------         ENDPROC       _STRLEN
  -------         PROC          _HBSTRLEN
  D:0001H         SYMBOL        pch
  -------         DO            
  D:0007H         SYMBOL        len
  -------         ENDDO         
  C:9570H         LINE#         33
  C:9570H         LINE#         34
  C:9570H         LINE#         35
  C:9572H         LINE#         36
  C:9577H         LINE#         37
  C:9577H         LINE#         38
  C:9578H         LINE#         39
  C:957BH         LINE#         40
  C:957BH         LINE#         41
  C:957CH         LINE#         42
  C:957CH         LINE#         43
  C:9583H         LINE#         44
  C:9585H         LINE#         45
  C:9585H         LINE#         46
  -------         ENDPROC       _HBSTRLEN
  -------         PROC          _LOOKFORSTR
  X:10D5H         SYMBOL        srcBuf
  X:10D8H         SYMBOL        detBuf
  -------         DO            
BL51 BANKED LINKER/LOCATER V6.22.2.0                                                  08/04/2022  16:30:25  PAGE 28


  X:10DBH         SYMBOL        i
  X:10DDH         SYMBOL        j
  -------         ENDDO         
  C:6F66H         LINE#         48
  C:6F71H         LINE#         49
  C:6F71H         LINE#         51
  C:6F78H         LINE#         52
  C:6F7CH         LINE#         53
  C:6F9BH         LINE#         54
  C:6F9BH         LINE#         55
  C:6FAFH         LINE#         56
  C:6FAFH         LINE#         57
  C:6FD0H         LINE#         58
  C:6FD0H         LINE#         59
  C:7011H         LINE#         60
  C:7011H         LINE#         61
  C:7011H         LINE#         62
  C:7011H         LINE#         63
  C:7021H         LINE#         64
  C:703CH         LINE#         65
  C:703CH         LINE#         66
  C:7045H         LINE#         67
  C:7045H         LINE#         68
  C:7045H         LINE#         69
  C:7056H         LINE#         70
  C:7059H         LINE#         71
  C:705DH         LINE#         72
  -------         ENDPROC       _LOOKFORSTR
  -------         PROC          _CLEARBUF
  X:1124H         SYMBOL        buf
  D:0004H         SYMBOL        len
  C:8E0FH         LINE#         74
  C:8E1AH         LINE#         75
  C:8E1AH         LINE#         76
  C:8E24H         LINE#         77
  C:8E24H         LINE#         78
  C:8E38H         LINE#         79
  C:8E3AH         LINE#         80
  -------         ENDPROC       _CLEARBUF
  -------         PROC          _HS_MEMCPY
  X:10D0H         SYMBOL        dst
  X:10D3H         SYMBOL        src
  X:10D6H         SYMBOL        len
  C:8907H         LINE#         81
  C:8912H         LINE#         82
  C:8912H         LINE#         83
  C:8920H         LINE#         84
  C:8920H         LINE#         85
  C:8948H         LINE#         86
  C:894AH         LINE#         87
  -------         ENDPROC       _HS_MEMCPY
  -------         PROC          _HS_STRCPY
  X:109CH         SYMBOL        dst
  X:109FH         SYMBOL        src
  -------         DO            
  D:0006H         SYMBOL        i
  -------         ENDDO         
BL51 BANKED LINKER/LOCATER V6.22.2.0                                                  08/04/2022  16:30:25  PAGE 29


  C:868FH         LINE#         88
  C:869AH         LINE#         89
  C:869AH         LINE#         90
  C:869DH         LINE#         91
  C:86ADH         LINE#         92
  C:86ADH         LINE#         93
  C:86D3H         LINE#         94
  C:86D8H         LINE#         95
  C:86DAH         LINE#         96
  -------         ENDPROC       _HS_STRCPY
  -------         PROC          _MEMISEMPTY
  X:10C5H         SYMBOL        buf
  D:0004H         SYMBOL        len
  C:8DB3H         LINE#         99
  C:8DBEH         LINE#         100
  C:8DBEH         LINE#         101
  C:8DC8H         LINE#         102
  C:8DC8H         LINE#         103
  C:8DDDH         LINE#         104
  C:8DDDH         LINE#         105
  C:8DDFH         LINE#         106
  C:8DDFH         LINE#         107
  C:8DDFH         LINE#         108
  C:8DE0H         LINE#         109
  -------         ENDPROC       _MEMISEMPTY
  -------         PROC          GPIO_CONFIG
  -------         DO            
  X:107CH         SYMBOL        GPIO_InitStructure
  -------         ENDDO         
  C:714AH         LINE#         111
  C:714AH         LINE#         112
  C:714AH         LINE#         114
  C:7150H         LINE#         118
  C:7155H         LINE#         119
  C:7160H         LINE#         121
  C:716BH         LINE#         124
  C:7176H         LINE#         126
  C:717CH         LINE#         127
  C:7187H         LINE#         129
  C:718DH         LINE#         130
  C:7197H         LINE#         132
  C:719DH         LINE#         133
  C:71A8H         LINE#         135
  C:71AEH         LINE#         136
  C:71B9H         LINE#         138
  C:71BFH         LINE#         139
  C:71CAH         LINE#         142
  C:71D0H         LINE#         144
  C:71D4H         LINE#         145
  C:71DFH         LINE#         147
  C:71E5H         LINE#         148
  C:71F0H         LINE#         150
  C:71F6H         LINE#         151
  C:7201H         LINE#         153
  C:7207H         LINE#         154
  C:7212H         LINE#         156
  C:7218H         LINE#         157
BL51 BANKED LINKER/LOCATER V6.22.2.0                                                  08/04/2022  16:30:25  PAGE 30


  C:7223H         LINE#         159
  C:7225H         LINE#         160
  C:7227H         LINE#         162
  C:7229H         LINE#         163
  C:722BH         LINE#         164
  C:722DH         LINE#         166
  C:722FH         LINE#         167
  C:7231H         LINE#         170
  -------         ENDPROC       GPIO_CONFIG
  -------         PROC          UART_CONFIG
  -------         DO            
  X:107CH         SYMBOL        COMx_InitStructure
  -------         ENDDO         
  C:86E9H         LINE#         172
  C:86E9H         LINE#         173
  C:86E9H         LINE#         175
  C:86EFH         LINE#         176
  C:86F3H         LINE#         177
  C:86FBH         LINE#         178
  C:8701H         LINE#         179
  C:8704H         LINE#         180
  C:8707H         LINE#         181
  C:8709H         LINE#         182
  C:870CH         LINE#         183
  C:8717H         LINE#         184
  C:8720H         LINE#         187
  C:8726H         LINE#         188
  C:8731H         LINE#         189
  C:8736H         LINE#         190
  -------         ENDPROC       UART_CONFIG
  -------         PROC          TIMER_CONFIG
  -------         DO            
  X:107CH         SYMBOL        TIM_InitStructure
  -------         ENDDO         
  C:8793H         LINE#         203
  C:8793H         LINE#         204
  C:8793H         LINE#         206
  C:8798H         LINE#         207
  C:879AH         LINE#         208
  C:879DH         LINE#         209
  C:87A0H         LINE#         210
  C:87A2H         LINE#         211
  C:87AAH         LINE#         212
  C:87AEH         LINE#         214
  C:87B8H         LINE#         216
  C:87C2H         LINE#         217
  C:87CDH         LINE#         219
  C:87D7H         LINE#         220
  -------         ENDPROC       TIMER_CONFIG
  -------         PROC          EXTI_CONFIG
  -------         DO            
  X:107CH         SYMBOL        Exti_InitStructure
  -------         ENDDO         
  C:947DH         LINE#         224
  C:947DH         LINE#         225
  C:947DH         LINE#         228
  C:9483H         LINE#         229
BL51 BANKED LINKER/LOCATER V6.22.2.0                                                  08/04/2022  16:30:25  PAGE 31


  C:9488H         LINE#         230
  C:948CH         LINE#         231
  -------         ENDPROC       EXTI_CONFIG
  -------         PROC          KEYSCAN
  -------         DO            
  X:1373H         SYMBOL        KeyStep
  X:1374H         SYMBOL        KeyTime
  X:107CH         SYMBOL        key
  -------         ENDDO         
  C:6A3AH         LINE#         238
  C:6A3AH         LINE#         239
  C:6A3AH         LINE#         243
  C:6A5AH         LINE#         244
  C:6A5AH         LINE#         245
  C:6A5AH         LINE#         246
  C:6A5DH         LINE#         247
  C:6A68H         LINE#         248
  C:6A68H         LINE#         249
  C:6A6EH         LINE#         250
  C:6A74H         LINE#         251
  C:6A74H         LINE#         252
  C:6A77H         LINE#         253
  C:6A77H         LINE#         254
  C:6A7FH         LINE#         255
  C:6A7FH         LINE#         256
  C:6A80H         LINE#         257
  C:6A83H         LINE#         258
  C:6A8EH         LINE#         259
  C:6A8EH         LINE#         260
  C:6A94H         LINE#         261
  C:6A94H         LINE#         262
  C:6A97H         LINE#         263
  C:6A97H         LINE#         264
  C:6A9FH         LINE#         265
  C:6AA2H         LINE#         266
  C:6AA8H         LINE#         267
  C:6AABH         LINE#         268
  C:6AABH         LINE#         269
  C:6AB1H         LINE#         270
  C:6AB4H         LINE#         271
  C:6ABAH         LINE#         272
  C:6AF5H         LINE#         273
  C:6AF5H         LINE#         274
  C:6AF5H         LINE#         275
  C:6AF8H         LINE#         276
  C:6AF8H         LINE#         277
  C:6AFBH         LINE#         278
  C:6AFBH         LINE#         279
  C:6AFEH         LINE#         280
  C:6AFEH         LINE#         281
  C:6B01H         LINE#         282
  C:6B01H         LINE#         283
  C:6B04H         LINE#         284
  C:6B04H         LINE#         285
  C:6B07H         LINE#         286
  C:6B07H         LINE#         287
  C:6B0AH         LINE#         288
BL51 BANKED LINKER/LOCATER V6.22.2.0                                                  08/04/2022  16:30:25  PAGE 32


  C:6B0AH         LINE#         289
  C:6B0DH         LINE#         290
  C:6B0DH         LINE#         291
  C:6B10H         LINE#         292
  C:6B10H         LINE#         293
  C:6B13H         LINE#         294
  C:6B13H         LINE#         295
  C:6B16H         LINE#         296
  C:6B16H         LINE#         297
  C:6B19H         LINE#         298
  C:6B19H         LINE#         299
  C:6B1CH         LINE#         300
  C:6B1CH         LINE#         301
  C:6B1FH         LINE#         302
  C:6B1FH         LINE#         303
  C:6B22H         LINE#         304
  C:6B22H         LINE#         305
  C:6B25H         LINE#         306
  C:6B25H         LINE#         307
  C:6B25H         LINE#         308
  C:6B25H         LINE#         309
  C:6B2DH         LINE#         310
  C:6B2DH         LINE#         311
  C:6B33H         LINE#         312
  C:6B37H         LINE#         313
  C:6B37H         LINE#         314
  C:6B39H         LINE#         315
  C:6B39H         LINE#         316
  C:6B41H         LINE#         317
  C:6B41H         LINE#         318
  C:6B47H         LINE#         319
  C:6B49H         LINE#         320
  C:6B51H         LINE#         321
  C:6B51H         LINE#         322
  C:6B55H         LINE#         323
  C:6B55H         LINE#         324
  C:6B55H         LINE#         326
  C:6B55H         LINE#         327
  C:6B57H         LINE#         328
  -------         ENDPROC       KEYSCAN
  -------         PROC          SKEYSCAN
  -------         DO            
  X:1375H         SYMBOL        SkeyStep
  X:1376H         SYMBOL        SkeyTime
  D:0007H         SYMBOL        key
  -------         ENDDO         
  C:67D7H         LINE#         333
  C:67D7H         LINE#         334
  C:67D7H         LINE#         338
  C:67D7H         LINE#         339
  C:67E4H         LINE#         340
  C:67E4H         LINE#         341
  C:67E4H         LINE#         342
  C:67EBH         LINE#         343
  C:67F3H         LINE#         344
  C:67FBH         LINE#         345
  C:6803H         LINE#         346
BL51 BANKED LINKER/LOCATER V6.22.2.0                                                  08/04/2022  16:30:25  PAGE 33


  C:6809H         LINE#         348
  C:6810H         LINE#         349
  C:6810H         LINE#         350
  C:6816H         LINE#         351
  C:681CH         LINE#         352
  C:681CH         LINE#         353
  C:681EH         LINE#         354
  C:681EH         LINE#         355
  C:6825H         LINE#         356
  C:682DH         LINE#         357
  C:6835H         LINE#         358
  C:683DH         LINE#         359
  C:6843H         LINE#         361
  C:684AH         LINE#         362
  C:684AH         LINE#         363
  C:684FH         LINE#         364
  C:6851H         LINE#         365
  C:6859H         LINE#         366
  C:6859H         LINE#         367
  C:685DH         LINE#         368
  C:6862H         LINE#         369
  C:6862H         LINE#         370
  C:6862H         LINE#         372
  C:6862H         LINE#         373
  C:686FH         LINE#         374
  C:686FH         LINE#         376
  C:6880H         LINE#         377
  C:6880H         LINE#         378
  C:688CH         LINE#         379
  C:6895H         LINE#         380
  C:6895H         LINE#         381
  C:68AAH         LINE#         382
  C:68AAH         LINE#         383
  C:68B6H         LINE#         384
  C:68BFH         LINE#         385
  C:68BFH         LINE#         386
  C:68CFH         LINE#         387
  C:68CFH         LINE#         388
  C:68D7H         LINE#         389
  C:68E0H         LINE#         390
  C:68E0H         LINE#         391
  C:68E0H         LINE#         392
  C:68E0H         LINE#         394
  C:68E0H         LINE#         395
  C:68E0H         LINE#         396
  C:68E0H         LINE#         398
  C:68E0H         LINE#         399
  C:68E8H         LINE#         400
  C:68E8H         LINE#         401
  C:68EFH         LINE#         402
  C:68EFH         LINE#         403
  C:68F9H         LINE#         404
  C:68F9H         LINE#         405
  C:6907H         LINE#         406
  C:6907H         LINE#         407
  C:690CH         LINE#         408
  C:690FH         LINE#         409
BL51 BANKED LINKER/LOCATER V6.22.2.0                                                  08/04/2022  16:30:25  PAGE 34


  C:6918H         LINE#         410
  C:6918H         LINE#         411
  C:6918H         LINE#         412
  C:6918H         LINE#         413
  -------         ENDPROC       SKEYSCAN
  -------         PROC          _UNLOCK
  D:0007H         SYMBOL        idx
  D:0005H         SYMBOL        time
  B:0020H.0       SYMBOL        sound
  C:935CH         LINE#         416
  C:935CH         LINE#         417
  C:935CH         LINE#         418
  C:9368H         LINE#         419
  C:936BH         LINE#         420
  C:936BH         LINE#         421
  C:936DH         LINE#         422
  C:936FH         LINE#         423
  C:9373H         LINE#         424
  C:9373H         LINE#         425
  C:9375H         LINE#         426
  C:9375H         LINE#         427
  -------         ENDPROC       _UNLOCK
  -------         PROC          RELAYTASK
  C:9496H         LINE#         429
  C:9496H         LINE#         430
  C:9496H         LINE#         431
  C:949CH         LINE#         432
  C:949CH         LINE#         433
  C:94A0H         LINE#         434
  C:94A0H         LINE#         435
  C:94A2H         LINE#         436
  C:94A2H         LINE#         437
  C:94A2H         LINE#         438
  C:94A8H         LINE#         439
  C:94A8H         LINE#         440
  C:94ACH         LINE#         441
  C:94ACH         LINE#         442
  C:94AEH         LINE#         443
  C:94AEH         LINE#         444
  C:94AEH         LINE#         445
  -------         ENDPROC       RELAYTASK
  -------         ENDMOD        DRIVER

  -------         MODULE        LCD12864
  C:0000H         SYMBOL        _ICE_DUMMY_
  C:942DH         PUBLIC        LcdClear
  D:0080H         PUBLIC        P0
  D:0090H         PUBLIC        P1
  D:00A0H         PUBLIC        P2
  X:089EH         PUBLIC        FlashTime
  D:00B0H         PUBLIC        P3
  C:848FH         PUBLIC        _DisplayCsq
  D:00C0H         PUBLIC        P4
  D:00C8H         PUBLIC        P5
  C:0136H         PUBLIC        AsciiFont
  D:00E8H         PUBLIC        P6
  C:8C01H         PUBLIC        FlashTask
BL51 BANKED LINKER/LOCATER V6.22.2.0                                                  08/04/2022  16:30:25  PAGE 35


  D:00F8H         PUBLIC        P7
  C:7B17H         PUBLIC        _DisplayFl
  D:00A8H         PUBLIC        IE
  C:971CH         PUBLIC        LCDAddRow
  D:00B8H         PUBLIC        IP
  C:9798H         PUBLIC        _SetFlash
  C:8119H         PUBLIC        _WriteLCDico
  B:0022H.6       PUBLIC        bRight2Left
  D:00D8H         PUBLIC        CCON
  C:93B9H         PUBLIC        _CheckUnicode
  X:08A0H         PUBLIC        mapGDRAM
  D:0098H         PUBLIC        SCON
  D:0088H         PUBLIC        TCON
  C:00A6H         PUBLIC        IcoFont
  B:00C8H.2       PUBLIC        P52
  B:00C8H.3       PUBLIC        P53
  B:00C0H.4       PUBLIC        P44
  B:0022H.7       PUBLIC        flg
  D:00F0H         PUBLIC        B
  C:9513H         PUBLIC        _lcd_wcmd
  C:7EBEH         PUBLIC        _BitBlt
  C:929FH         PUBLIC        _lcd_wdat
  D:00E0H         PUBLIC        ACC
  X:0CA0H         SYMBOL        lcdCol
  C:9586H         PUBLIC        _DisplayString
  C:939CH         PUBLIC        lcd_busy
  C:63F6H         PUBLIC        _WriteLCD
  X:0CA1H         PUBLIC        Fl_X
  X:0CA2H         PUBLIC        Fl_Y
  X:0CA3H         SYMBOL        lcdRow
  C:96E7H         PUBLIC        _DisplayIco
  C:0736H         PUBLIC        HebrewFont
  D:00D0H         PUBLIC        PSW
  C:91BEH         PUBLIC        Init_12864
  -------         PROC          LCD_BUSY
  -------         DO            
  B:0020H.2       SYMBOL        result
  -------         ENDDO         
  C:939CH         LINE#         8
  C:939CH         LINE#         9
  C:939CH         LINE#         12
  C:939FH         LINE#         13
  C:93A1H         LINE#         14
  C:93A3H         LINE#         15
  C:93A5H         LINE#         16
  C:93A7H         LINE#         17
  C:93B2H         LINE#         18
  C:93B6H         LINE#         20
  C:93B8H         LINE#         21
  -------         ENDPROC       LCD_BUSY
  -------         PROC          _LCD_WCMD
  D:0007H         SYMBOL        cmd
  C:9513H         LINE#         27
  C:9513H         LINE#         28
  C:9513H         LINE#         29
  C:9518H         LINE#         31
  C:951AH         LINE#         32
BL51 BANKED LINKER/LOCATER V6.22.2.0                                                  08/04/2022  16:30:25  PAGE 36


  C:951CH         LINE#         33
  C:951EH         LINE#         34
  C:951FH         LINE#         35
  C:9520H         LINE#         36
  C:9522H         LINE#         37
  C:9524H         LINE#         39
  C:9526H         LINE#         40
  C:9528H         LINE#         41
  C:952AH         LINE#         42
  -------         ENDPROC       _LCD_WCMD
  -------         PROC          L?0070
  -------         ENDPROC       L?0070
  -------         PROC          _LCD_WDAT
  D:0007H         SYMBOL        dat
  C:929FH         LINE#         49
  C:929FH         LINE#         50
  C:929FH         LINE#         51
  C:92A4H         LINE#         53
  C:92A6H         LINE#         54
  C:92A8H         LINE#         55
  C:92AAH         LINE#         56
  C:92ACH         LINE#         57
  C:92AEH         LINE#         59
  C:92B0H         LINE#         60
  C:92B2H         LINE#         61
  C:92B4H         LINE#         62
  -------         ENDPROC       _LCD_WDAT
  -------         PROC          INIT_12864
  C:91BEH         LINE#         63
  C:91BEH         LINE#         64
  C:91BEH         LINE#         65
  C:91C0H         LINE#         67
  C:91C5H         LINE#         69
  C:91C7H         LINE#         70
  C:91CAH         LINE#         71
  C:91CCH         LINE#         72
  C:91D1H         LINE#         73
  C:91D3H         LINE#         74
  C:91D8H         LINE#         75
  C:91DAH         LINE#         76
  C:91DFH         LINE#         77
  C:91E1H         LINE#         78
  -------         ENDPROC       INIT_12864
  -------         PROC          LCDCLEAR
  C:942DH         LINE#         80
  C:942DH         LINE#         81
  C:942DH         LINE#         82
  C:9432H         LINE#         83
  C:9434H         LINE#         85
  C:9441H         LINE#         87
  -------         ENDPROC       LCDCLEAR
  -------         PROC          _BITBLT
  X:1124H         SYMBOL        pBmp
  -------         DO            
  X:1127H         SYMBOL        i
  D:0006H         SYMBOL        j
  X:1128H         SYMBOL        pNextFrame
BL51 BANKED LINKER/LOCATER V6.22.2.0                                                  08/04/2022  16:30:25  PAGE 37


  -------         ENDDO         
  C:7EBEH         LINE#         158
  C:7EC9H         LINE#         159
  C:7EC9H         LINE#         161
  C:7EDBH         LINE#         163
  C:7EE0H         LINE#         164
  C:7EE0H         LINE#         165
  C:7EE5H         LINE#         166
  C:7EEFH         LINE#         167
  C:7EF4H         LINE#         168
  C:7EF9H         LINE#         170
  C:7EFFH         LINE#         172
  C:7F01H         LINE#         173
  C:7F01H         LINE#         174
  C:7F07H         LINE#         175
  C:7F11H         LINE#         176
  C:7F16H         LINE#         177
  C:7F18H         LINE#         178
  C:7F18H         LINE#         179
  C:7F1EH         LINE#         180
  C:7F28H         LINE#         181
  C:7F2DH         LINE#         183
  C:7F39H         LINE#         184
  -------         ENDPROC       _BITBLT
  -------         PROC          _DISPLAYFL
  D:0006H         SYMBOL        X
  D:0005H         SYMBOL        Y
  B:0020H.0       SYMBOL        e
  C:7B17H         LINE#         186
  C:7B19H         LINE#         187
  C:7B19H         LINE#         189
  C:7B1EH         LINE#         190
  C:7B38H         LINE#         191
  C:7B50H         LINE#         192
  C:7B55H         LINE#         193
  C:7B59H         LINE#         194
  C:7B59H         LINE#         195
  C:7B7AH         LINE#         196
  C:7B7AH         LINE#         197
  -------         ENDPROC       _DISPLAYFL
  -------         PROC          _CHECKUNICODE
  D:0001H         SYMBOL        pInfo
  C:93B9H         LINE#         204
  C:93B9H         LINE#         205
  C:93B9H         LINE#         206
  C:93C3H         LINE#         207
  C:93C3H         LINE#         208
  C:93C9H         LINE#         209
  C:93C9H         LINE#         210
  C:93CBH         LINE#         211
  C:93CBH         LINE#         212
  C:93D2H         LINE#         213
  C:93D4H         LINE#         214
  C:93D5H         LINE#         215
  -------         ENDPROC       _CHECKUNICODE
  -------         PROC          LCDADDROW
  C:971CH         LINE#         216
BL51 BANKED LINKER/LOCATER V6.22.2.0                                                  08/04/2022  16:30:25  PAGE 38


  C:971CH         LINE#         217
  C:971CH         LINE#         218
  C:9722H         LINE#         219
  C:9726H         LINE#         220
  C:972BH         LINE#         221
  -------         ENDPROC       LCDADDROW
  -------         PROC          _WRITELCD
  X:1124H         SYMBOL        pInfo
  -------         DO            
  X:1127H         SYMBOL        x
  D:0007H         SYMBOL        y
  X:1128H         SYMBOL        c
  X:1129H         SYMBOL        Font
  D:0006H         SYMBOL        iUnicode
  -------         ENDDO         
  C:63F6H         LINE#         222
  C:6401H         LINE#         223
  C:6401H         LINE#         230
  C:6406H         LINE#         232
  C:6414H         LINE#         234
  C:642FH         LINE#         235
  C:642FH         LINE#         237
  C:6434H         LINE#         239
  C:643AH         LINE#         240
  C:6440H         LINE#         246
  C:6443H         LINE#         247
  C:6443H         LINE#         249
  C:6451H         LINE#         250
  C:645BH         LINE#         251
  C:645BH         LINE#         252
  C:6461H         LINE#         253
  C:646FH         LINE#         254
  C:6471H         LINE#         256
  C:6471H         LINE#         257
  C:647BH         LINE#         261
  C:647BH         LINE#         266
  C:647FH         LINE#         267
  C:6482H         LINE#         268
  C:6482H         LINE#         269
  C:6495H         LINE#         270
  C:64A7H         LINE#         271
  C:64C9H         LINE#         272
  C:64C9H         LINE#         276
  C:64C9H         LINE#         277
  C:64C9H         LINE#         278
  C:64C9H         LINE#         279
  C:64CFH         LINE#         280
  C:64D6H         LINE#         281
  C:64D6H         LINE#         282
  C:64DBH         LINE#         283
  C:64E0H         LINE#         284
  C:64E0H         LINE#         286
  C:64E3H         LINE#         287
  C:64EDH         LINE#         288
  C:64EDH         LINE#         289
  C:64EFH         LINE#         290
  C:64EFH         LINE#         291
BL51 BANKED LINKER/LOCATER V6.22.2.0                                                  08/04/2022  16:30:25  PAGE 39


  C:6530H         LINE#         292
  C:6535H         LINE#         293
  C:653FH         LINE#         294
  C:6542H         LINE#         296
  -------         ENDPROC       _WRITELCD
  -------         PROC          _WRITELCDICO
  X:1089H         SYMBOL        Row
  X:108AH         SYMBOL        Col
  D:0003H         SYMBOL        ico
  X:108CH         SYMBOL        mask
  -------         DO            
  D:0007H         SYMBOL        y
  X:108DH         SYMBOL        Font
  -------         ENDDO         
  C:8119H         LINE#         298
  C:8121H         LINE#         299
  C:8121H         LINE#         303
  C:813AH         LINE#         304
  C:813CH         LINE#         305
  C:813CH         LINE#         306
  C:8183H         LINE#         307
  C:8188H         LINE#         308
  -------         ENDPROC       _WRITELCDICO
  -------         PROC          _DISPLAYSTRING
  D:0007H         SYMBOL        X
  D:0005H         SYMBOL        Y
  D:0001H         SYMBOL        ptr
  C:9586H         LINE#         310
  C:9586H         LINE#         311
  C:9586H         LINE#         312
  C:958BH         LINE#         313
  C:9590H         LINE#         314
  C:9593H         LINE#         315
  -------         ENDPROC       _DISPLAYSTRING
  -------         PROC          _DISPLAYICO
  D:0007H         SYMBOL        X
  D:0005H         SYMBOL        Y
  D:0003H         SYMBOL        ico
  C:96E7H         LINE#         318
  C:96E7H         LINE#         319
  C:96E7H         LINE#         320
  C:96F0H         LINE#         321
  -------         ENDPROC       _DISPLAYICO
  -------         PROC          _DISPLAYCSQ
  X:1389H         SYMBOL        X
  X:138AH         SYMBOL        Y
  D:0004H         SYMBOL        csq
  -------         DO            
  D:0006H         SYMBOL        i
  X:138BH         SYMBOL        msk
  -------         ENDDO         
  C:848FH         LINE#         323
  C:8499H         LINE#         324
  C:8499H         LINE#         326
  C:849CH         LINE#         327
  C:84A2H         LINE#         328
  C:84A7H         LINE#         329
BL51 BANKED LINKER/LOCATER V6.22.2.0                                                  08/04/2022  16:30:25  PAGE 40


  C:84A7H         LINE#         330
  C:84A9H         LINE#         331
  C:84A9H         LINE#         332
  C:84B0H         LINE#         333
  C:84B0H         LINE#         334
  C:84B9H         LINE#         335
  C:84BCH         LINE#         336
  C:84BFH         LINE#         337
  C:84DDH         LINE#         338
  C:84F1H         LINE#         339
  -------         ENDPROC       _DISPLAYCSQ
  -------         PROC          _SETFLASH
  D:0007H         SYMBOL        X
  D:0005H         SYMBOL        Y
  C:9798H         LINE#         346
  C:9798H         LINE#         347
  C:9798H         LINE#         348
  C:979DH         LINE#         349
  C:97A0H         LINE#         350
  -------         ENDPROC       _SETFLASH
  -------         PROC          FLASHTASK
  C:8C01H         LINE#         351
  C:8C01H         LINE#         352
  C:8C01H         LINE#         353
  C:8C0FH         LINE#         354
  C:8C0FH         LINE#         356
  C:8C0FH         LINE#         357
  C:8C22H         LINE#         358
  C:8C22H         LINE#         359
  C:8C29H         LINE#         360
  C:8C30H         LINE#         361
  C:8C32H         LINE#         362
  C:8C32H         LINE#         363
  -------         ENDPROC       FLASHTASK
  -------         ENDMOD        LCD12864

  -------         MODULE        GSM
  C:0000H         SYMBOL        _ICE_DUMMY_
  C:5CDEH         PUBLIC        _AtCmdCb_cpin
  X:125AH         PUBLIC        StrSetVolum
  D:0080H         PUBLIC        P0
  D:0090H         PUBLIC        P1
  D:00A0H         PUBLIC        P2
  C:8E67H         PUBLIC        _GSM_send_dtmf
  D:00B0H         PUBLIC        P3
  D:00C0H         PUBLIC        P4
  D:00C8H         PUBLIC        P5
  D:00E8H         PUBLIC        P6
  D:00F8H         PUBLIC        P7
  C:7DBBH         PUBLIC        _GSM_SetVolum
  C:1843H         PUBLIC        _ModemReceiveHandle
  D:00A8H         PUBLIC        IE
  C:8E92H         PUBLIC        GSM_GetCsq
  D:00B8H         PUBLIC        IP
  C:613AH         PUBLIC        _AtCmdCb_csq
  X:126EH         PUBLIC        TalkTime
  D:00D8H         PUBLIC        CCON
BL51 BANKED LINKER/LOCATER V6.22.2.0                                                  08/04/2022  16:30:25  PAGE 41


  C:94AFH         PUBLIC        GSM_Huangup
  C:8CF7H         PUBLIC        _AtCmdCb_at
  B:0080H.0       PUBLIC        P00
  C:91E2H         PUBLIC        GSM_Repower
  X:1270H         PUBLIC        GsmStatus
  D:0098H         PUBLIC        SCON
  B:00C0H.1       PUBLIC        P41
  D:0088H         PUBLIC        TCON
  B:00F8H.0       PUBLIC        P70
  B:0021H.2       PUBLIC        WaitCsq
  D:00F0H         PUBLIC        B
  C:3998H         SYMBOL        _?ix1000
  C:8565H         PUBLIC        _GSM_Call
  D:00E0H         PUBLIC        ACC
  X:1271H         PUBLIC        CallInTime
  X:1273H         PUBLIC        CallOutTime
  B:0021H.3       PUBLIC        GsmCsqFlag
  X:1275H         PUBLIC        GsmInitTime
  X:1277H         PUBLIC        GsmCsq
  X:1278H         PUBLIC        PaOpenTime
  B:0021H.4       PUBLIC        GsmCallOk
  C:8D26H         PUBLIC        _AtCmdCb_clcc
  X:1279H         PUBLIC        AtCmdBuf
  C:92B5H         PUBLIC        GSM_StartInit
  X:12A9H         PUBLIC        AtCmdIdx
  C:3013H         PUBLIC        GSM_InitTask
  C:5FCAH         PUBLIC        _AtCmdCb_creg
  X:12AAH         PUBLIC        AtCmdRetryTime
  D:00D0H         PUBLIC        PSW
  C:6919H         PUBLIC        _GsmUARTCmd
  -------         PROC          _ATCMDCB_AT
  D:0001H         SYMBOL        pRspStr
  -------         DO            
  D:0001H         SYMBOL        p
  X:1255H         SYMBOL        count
  -------         ENDDO         
  C:8CF7H         LINE#         22
  C:8CF7H         LINE#         23
  C:8CF7H         LINE#         27
  C:8CF7H         LINE#         35
  C:8D10H         LINE#         36
  C:8D10H         LINE#         37
  C:8D13H         LINE#         38
  C:8D13H         LINE#         41
  C:8D1EH         LINE#         42
  C:8D1EH         LINE#         43
  C:8D20H         LINE#         44
  C:8D23H         LINE#         45
  C:8D23H         LINE#         46
  C:8D25H         LINE#         47
  -------         ENDPROC       _ATCMDCB_AT
  -------         PROC          _ATCMDCB_CPIN
  D:0001H         SYMBOL        pRspStr
  -------         DO            
  X:107CH         SYMBOL        rspValue
  C:3959H         SYMBOL        rspStrTable
  X:107DH         SYMBOL        rspType
BL51 BANKED LINKER/LOCATER V6.22.2.0                                                  08/04/2022  16:30:25  PAGE 42


  X:107FH         SYMBOL        n
  X:1080H         SYMBOL        stat
  X:1081H         SYMBOL        i
  X:1082H         SYMBOL        p
  X:1256H         SYMBOL        count
  -------         ENDDO         
  C:5CDEH         LINE#         49
  C:5CDEH         LINE#         50
  C:5CDEH         LINE#         51
  C:5CE3H         LINE#         53
  C:5CE9H         LINE#         54
  C:5CECH         LINE#         55
  C:5CEEH         LINE#         56
  C:5CF0H         LINE#         57
  C:5CF9H         LINE#         66
  C:5D0BH         LINE#         67
  C:5D0BH         LINE#         68
  C:5D44H         LINE#         69
  C:5D44H         LINE#         70
  C:5D53H         LINE#         71
  C:5D57H         LINE#         72
  C:5DB8H         LINE#         73
  C:5DB8H         LINE#         74
  C:5DBAH         LINE#         75
  C:5DBAH         LINE#         76
  C:5DC3H         LINE#         80
  C:5DDCH         LINE#         81
  C:5DDCH         LINE#         82
  C:5DDCH         LINE#         83
  C:5DE2H         LINE#         84
  C:5DE7H         LINE#         86
  C:5DE9H         LINE#         87
  C:5DE9H         LINE#         88
  C:5DF2H         LINE#         89
  C:5DF2H         LINE#         90
  C:5DF8H         LINE#         91
  C:5DFDH         LINE#         92
  C:5DFFH         LINE#         93
  C:5DFFH         LINE#         94
  C:5E04H         LINE#         95
  C:5E0AH         LINE#         96
  C:5E0AH         LINE#         97
  C:5E10H         LINE#         99
  C:5E12H         LINE#         100
  C:5E12H         LINE#         101
  C:5E1BH         LINE#         102
  C:5E1BH         LINE#         103
  C:5E21H         LINE#         104
  C:5E26H         LINE#         105
  C:5E28H         LINE#         106
  C:5E28H         LINE#         107
  C:5E2DH         LINE#         108
  C:5E33H         LINE#         109
  C:5E33H         LINE#         110
  C:5E35H         LINE#         112
  C:5E35H         LINE#         113
  C:5E3BH         LINE#         115
BL51 BANKED LINKER/LOCATER V6.22.2.0                                                  08/04/2022  16:30:25  PAGE 43


  C:5E41H         LINE#         116
  C:5E41H         LINE#         117
  C:5E41H         LINE#         118
  C:5E41H         LINE#         119
  C:5E41H         LINE#         121
  C:5E52H         LINE#         122
  C:5E57H         LINE#         123
  -------         ENDPROC       _ATCMDCB_CPIN
  -------         PROC          _ATCMDCB_CREG
  D:0001H         SYMBOL        pRspStr
  -------         DO            
  X:107CH         SYMBOL        rspValue
  C:3965H         SYMBOL        rspStrTable
  X:107DH         SYMBOL        rspType
  X:107FH         SYMBOL        n
  X:1080H         SYMBOL        stat
  X:1081H         SYMBOL        i
  X:1082H         SYMBOL        p
  D:0006H         SYMBOL        tmp
  X:1257H         SYMBOL        count
  -------         ENDDO         
  C:5FCAH         LINE#         125
  C:5FCAH         LINE#         126
  C:5FCAH         LINE#         127
  C:5FCFH         LINE#         129
  C:5FD5H         LINE#         130
  C:5FD8H         LINE#         131
  C:5FDAH         LINE#         132
  C:5FDCH         LINE#         133
  C:5FE5H         LINE#         143
  C:5FF7H         LINE#         144
  C:5FF7H         LINE#         145
  C:6028H         LINE#         146
  C:6033H         LINE#         147
  C:6033H         LINE#         148
  C:603CH         LINE#         149
  C:604BH         LINE#         150
  C:6052H         LINE#         151
  C:60B3H         LINE#         152
  C:60CCH         LINE#         153
  C:60CCH         LINE#         154
  C:60CEH         LINE#         155
  C:60CEH         LINE#         156
  C:60D7H         LINE#         160
  C:60E9H         LINE#         161
  C:60E9H         LINE#         163
  C:60E9H         LINE#         164
  C:60F2H         LINE#         165
  C:60F2H         LINE#         166
  C:60F2H         LINE#         167
  C:60F4H         LINE#         174
  C:60F4H         LINE#         175
  C:60FBH         LINE#         176
  C:60FBH         LINE#         177
  C:6100H         LINE#         178
  C:6100H         LINE#         179
  C:6102H         LINE#         180
BL51 BANKED LINKER/LOCATER V6.22.2.0                                                  08/04/2022  16:30:25  PAGE 44


  C:6102H         LINE#         181
  C:610BH         LINE#         185
  C:6111H         LINE#         188
  C:6116H         LINE#         189
  C:6118H         LINE#         190
  C:6118H         LINE#         191
  C:611DH         LINE#         192
  C:6123H         LINE#         193
  C:6123H         LINE#         194
  C:6123H         LINE#         195
  C:6123H         LINE#         197
  C:6123H         LINE#         198
  C:6123H         LINE#         199
  C:6123H         LINE#         201
  C:6134H         LINE#         203
  C:6139H         LINE#         204
  -------         ENDPROC       _ATCMDCB_CREG
  -------         PROC          _ATCMDCB_CSQ
  D:0001H         SYMBOL        pRspStr
  -------         DO            
  X:107CH         SYMBOL        rspValue
  C:396BH         SYMBOL        rspStrTable
  X:107DH         SYMBOL        rspType
  X:107FH         SYMBOL        csq
  X:1080H         SYMBOL        stat
  X:1081H         SYMBOL        i
  X:1082H         SYMBOL        p
  D:0006H         SYMBOL        tmp
  X:1258H         SYMBOL        count
  -------         ENDDO         
  C:613AH         LINE#         268
  C:613AH         LINE#         269
  C:613AH         LINE#         270
  C:613FH         LINE#         272
  C:6145H         LINE#         273
  C:6148H         LINE#         274
  C:614AH         LINE#         275
  C:614CH         LINE#         276
  C:6155H         LINE#         280
  C:6157H         LINE#         288
  C:6169H         LINE#         289
  C:6169H         LINE#         290
  C:619AH         LINE#         291
  C:61A5H         LINE#         292
  C:61A5H         LINE#         293
  C:61AEH         LINE#         294
  C:61BDH         LINE#         295
  C:61C4H         LINE#         296
  C:6225H         LINE#         297
  C:623EH         LINE#         298
  C:623EH         LINE#         299
  C:6240H         LINE#         300
  C:6240H         LINE#         301
  C:6249H         LINE#         305
  C:625BH         LINE#         306
  C:625BH         LINE#         308
  C:625BH         LINE#         309
BL51 BANKED LINKER/LOCATER V6.22.2.0                                                  08/04/2022  16:30:25  PAGE 45


  C:6262H         LINE#         310
  C:6268H         LINE#         311
  C:626DH         LINE#         312
  C:626FH         LINE#         313
  C:626FH         LINE#         314
  C:6274H         LINE#         315
  C:627AH         LINE#         316
  C:627AH         LINE#         317
  C:627CH         LINE#         319
  C:627CH         LINE#         320
  C:6284H         LINE#         321
  C:6286H         LINE#         322
  C:628CH         LINE#         323
  C:628CH         LINE#         325
  C:628CH         LINE#         326
  C:628CH         LINE#         327
  C:628CH         LINE#         329
  C:629DH         LINE#         331
  C:62A2H         LINE#         332
  -------         ENDPROC       _ATCMDCB_CSQ
  -------         PROC          _ATCMDCB_CLCC
  D:0001H         SYMBOL        pRspStr
  -------         DO            
  D:0001H         SYMBOL        p
  X:1259H         SYMBOL        count
  -------         ENDDO         
  C:8D26H         LINE#         334
  C:8D26H         LINE#         335
  C:8D26H         LINE#         339
  C:8D26H         LINE#         341
  C:8D3FH         LINE#         342
  C:8D3FH         LINE#         343
  C:8D42H         LINE#         344
  C:8D42H         LINE#         345
  C:8D4DH         LINE#         346
  C:8D4DH         LINE#         347
  C:8D4FH         LINE#         348
  C:8D52H         LINE#         349
  C:8D52H         LINE#         350
  C:8D54H         LINE#         351
  -------         ENDPROC       _ATCMDCB_CLCC
  -------         PROC          GSM_REPOWER
  C:91E2H         LINE#         395
  C:91E2H         LINE#         396
  C:91E2H         LINE#         397
  C:91EBH         LINE#         398
  C:91F1H         LINE#         399
  C:91FBH         LINE#         402
  C:91FDH         LINE#         404
  -------         ENDPROC       GSM_REPOWER
  -------         PROC          GSM_STARTINIT
  C:92B5H         LINE#         406
  C:92B5H         LINE#         407
  C:92B5H         LINE#         411
  C:92B7H         LINE#         412
  C:92C1H         LINE#         413
  C:92C7H         LINE#         415
BL51 BANKED LINKER/LOCATER V6.22.2.0                                                  08/04/2022  16:30:25  PAGE 46


  C:92CDH         LINE#         416
  C:92CFH         LINE#         417
  -------         ENDPROC       GSM_STARTINIT
  -------         PROC          GSM_GETCSQ
  C:8E92H         LINE#         421
  C:8E92H         LINE#         422
  C:8E92H         LINE#         423
  C:8E9AH         LINE#         424
  C:8E9AH         LINE#         426
  C:8E9AH         LINE#         427
  C:8EA4H         LINE#         428
  C:8EAAH         LINE#         429
  C:8EB0H         LINE#         430
  C:8EB2H         LINE#         431
  C:8EBBH         LINE#         432
  -------         ENDPROC       GSM_GETCSQ
  -------         PROC          _GSM_SETVOLUM
  X:1088H         SYMBOL        volum
  C:7DBBH         LINE#         433
  C:7DC0H         LINE#         434
  C:7DC0H         LINE#         435
  C:7DCAH         LINE#         436
  C:7DD0H         LINE#         437
  C:7DD6H         LINE#         439
  C:7DF0H         LINE#         444
  C:7E0DH         LINE#         445
  -------         ENDPROC       _GSM_SETVOLUM
  -------         PROC          _GSM_CALL
  X:10B4H         SYMBOL        tel
  C:8565H         LINE#         451
  C:8570H         LINE#         452
  C:8570H         LINE#         453
  C:8581H         LINE#         454
  C:8581H         LINE#         455
  C:858AH         LINE#         456
  C:8598H         LINE#         457
  C:85A1H         LINE#         458
  C:85AEH         LINE#         459
  C:85B6H         LINE#         460
  C:85BCH         LINE#         461
  C:85BEH         LINE#         464
  C:85C3H         LINE#         465
  C:85C5H         LINE#         466
  C:85C7H         LINE#         467
  C:85C7H         LINE#         468
  C:85C8H         LINE#         469
  -------         ENDPROC       _GSM_CALL
  -------         PROC          GSM_HUANGUP
  C:94AFH         LINE#         470
  C:94AFH         LINE#         471
  C:94AFH         LINE#         472
  C:94B1H         LINE#         474
  C:94BAH         LINE#         478
  C:94C0H         LINE#         479
  C:94C7H         LINE#         481
  -------         ENDPROC       GSM_HUANGUP
  -------         PROC          GSM_INITTASK
BL51 BANKED LINKER/LOCATER V6.22.2.0                                                  08/04/2022  16:30:25  PAGE 47


  C:3013H         LINE#         483
  C:3013H         LINE#         484
  C:3013H         LINE#         485
  C:3047H         LINE#         486
  C:3047H         LINE#         487
  C:3047H         LINE#         488
  C:3058H         LINE#         489
  C:3058H         LINE#         490
  C:305AH         LINE#         491
  C:3064H         LINE#         492
  C:3069H         LINE#         493
  C:306DH         LINE#         494
  C:306DH         LINE#         495
  C:306EH         LINE#         496
  C:306EH         LINE#         497
  C:307FH         LINE#         498
  C:307FH         LINE#         499
  C:3082H         LINE#         500
  C:3082H         LINE#         501
  C:3082H         LINE#         502
  C:3082H         LINE#         503
  C:3093H         LINE#         504
  C:3093H         LINE#         505
  C:3095H         LINE#         506
  C:309FH         LINE#         507
  C:30A5H         LINE#         508
  C:30ABH         LINE#         509
  C:30ABH         LINE#         510
  C:30AEH         LINE#         511
  C:30AEH         LINE#         512
  C:30BFH         LINE#         513
  C:30BFH         LINE#         514
  C:30C1H         LINE#         515
  C:30CBH         LINE#         516
  C:30D1H         LINE#         517
  C:30D7H         LINE#         518
  C:30D7H         LINE#         519
  C:30DAH         LINE#         520
  C:30DAH         LINE#         521
  C:30EBH         LINE#         522
  C:30EBH         LINE#         524
  C:30F1H         LINE#         525
  C:30F6H         LINE#         526
  C:30F8H         LINE#         529
  C:3117H         LINE#         533
  C:3125H         LINE#         535
  C:3141H         LINE#         536
  C:314BH         LINE#         537
  C:3151H         LINE#         538
  C:3151H         LINE#         539
  C:3153H         LINE#         540
  C:3153H         LINE#         541
  C:3164H         LINE#         542
  C:3164H         LINE#         543
  C:3173H         LINE#         544
  C:3173H         LINE#         545
  C:318BH         LINE#         546
BL51 BANKED LINKER/LOCATER V6.22.2.0                                                  08/04/2022  16:30:25  PAGE 48


  C:3195H         LINE#         547
  C:31AEH         LINE#         548
  C:31AEH         LINE#         550
  C:31AEH         LINE#         551
  C:31DAH         LINE#         552
  C:31DDH         LINE#         553
  C:31DDH         LINE#         554
  C:31DDH         LINE#         555
  C:31DDH         LINE#         556
  C:31DDH         LINE#         557
  C:31EEH         LINE#         558
  C:31EEH         LINE#         559
  C:31F1H         LINE#         560
  C:31F1H         LINE#         561
  C:31F1H         LINE#         562
  C:31F1H         LINE#         563
  C:3202H         LINE#         564
  C:3202H         LINE#         565
  C:320CH         LINE#         566
  C:3224H         LINE#         567
  C:3232H         LINE#         568
  C:3232H         LINE#         569
  C:3235H         LINE#         571
  C:323CH         LINE#         581
  C:3257H         LINE#         582
  C:3257H         LINE#         583
  C:325DH         LINE#         584
  C:3267H         LINE#         586
  C:3267H         LINE#         588
  C:326AH         LINE#         589
  C:3273H         LINE#         590
  C:3273H         LINE#         592
  C:3273H         LINE#         593
  C:327CH         LINE#         596
  C:327CH         LINE#         597
  C:327CH         LINE#         598
  C:327CH         LINE#         599
  C:327CH         LINE#         600
  C:328DH         LINE#         601
  C:328DH         LINE#         602
  C:3297H         LINE#         603
  C:32A8H         LINE#         604
  C:32A8H         LINE#         605
  C:32B1H         LINE#         606
  C:32B7H         LINE#         607
  C:32BDH         LINE#         609
  C:32BFH         LINE#         611
  C:32CEH         LINE#         612
  C:32D7H         LINE#         613
  C:32DAH         LINE#         614
  C:32DAH         LINE#         616
  C:32DAH         LINE#         620
  C:32DAH         LINE#         621
  C:32DAH         LINE#         622
  C:32DAH         LINE#         623
  C:32DAH         LINE#         624
  C:32E8H         LINE#         625
BL51 BANKED LINKER/LOCATER V6.22.2.0                                                  08/04/2022  16:30:25  PAGE 49


  C:32E8H         LINE#         626
  C:32F2H         LINE#         632
  C:32F2H         LINE#         633
  C:32F3H         LINE#         634
  C:32F3H         LINE#         635
  C:3301H         LINE#         636
  C:3301H         LINE#         637
  C:330BH         LINE#         638
  C:3319H         LINE#         639
  C:3319H         LINE#         640
  C:3322H         LINE#         641
  C:3322H         LINE#         642
  C:3325H         LINE#         643
  C:3332H         LINE#         644
  C:3332H         LINE#         645
  C:3338H         LINE#         646
  C:333DH         LINE#         648
  C:333DH         LINE#         649
  C:333DH         LINE#         650
  C:3340H         LINE#         651
  C:3345H         LINE#         652
  C:3348H         LINE#         653
  C:3348H         LINE#         654
  C:3348H         LINE#         655
  C:3348H         LINE#         656
  C:3348H         LINE#         657
  C:3348H         LINE#         658
  C:3348H         LINE#         659
  -------         ENDPROC       GSM_INITTASK
  -------         PROC          _MODEMRECEIVEHANDLE
  D:0001H         SYMBOL        buf
  -------         DO            
  C:3971H         SYMBOL        rspStrTable
  X:107FH         SYMBOL        rspType
  X:1081H         SYMBOL        i
  X:1083H         SYMBOL        p
  X:1086H         SYMBOL        j
  X:1087H         SYMBOL        stat
  -------         ENDDO         
  C:1843H         LINE#         661
  C:1843H         LINE#         662
  C:1843H         LINE#         677
  C:184BH         LINE#         678
  C:1850H         LINE#         679
  C:1859H         LINE#         682
  C:1872H         LINE#         683
  C:1872H         LINE#         684
  C:18B0H         LINE#         685
  C:18B0H         LINE#         686
  C:18BFH         LINE#         687
  C:18C1H         LINE#         688
  C:18C1H         LINE#         689
  C:18D1H         LINE#         690
  C:18F1H         LINE#         691
  C:192DH         LINE#         692
  C:192DH         LINE#         693
  C:192DH         LINE#         694
BL51 BANKED LINKER/LOCATER V6.22.2.0                                                  08/04/2022  16:30:25  PAGE 50


  C:192DH         LINE#         695
  C:192DH         LINE#         696
  C:193FH         LINE#         697
  C:193FH         LINE#         699
  C:1942H         LINE#         700
  C:194BH         LINE#         701
  C:194BH         LINE#         702
  C:194EH         LINE#         703
  C:194EH         LINE#         704
  C:194EH         LINE#         706
  C:1970H         LINE#         707
  C:1970H         LINE#         708
  C:1976H         LINE#         709
  C:197BH         LINE#         711
  C:197BH         LINE#         712
  C:1986H         LINE#         713
  C:1986H         LINE#         715
  C:1986H         LINE#         716
  C:1986H         LINE#         717
  C:1986H         LINE#         718
  C:1986H         LINE#         719
  C:1989H         LINE#         720
  C:1989H         LINE#         723
  C:1994H         LINE#         724
  C:1994H         LINE#         725
  C:1997H         LINE#         727
  C:199EH         LINE#         728
  C:199EH         LINE#         729
  C:19A7H         LINE#         730
  C:19A8H         LINE#         732
  C:19A8H         LINE#         733
  C:19ABH         LINE#         734
  C:19B0H         LINE#         735
  C:19B0H         LINE#         736
  C:19B0H         LINE#         748
  C:19B0H         LINE#         749
  C:19B0H         LINE#         750
  C:19B0H         LINE#         751
  C:19DEH         LINE#         752
  C:19EDH         LINE#         753
  C:19EDH         LINE#         754
  C:1A12H         LINE#         755
  C:1A52H         LINE#         756
  C:1A63H         LINE#         758
  C:1A69H         LINE#         759
  C:1A69H         LINE#         760
  C:1A6FH         LINE#         761
  C:1A75H         LINE#         763
  C:1A7CH         LINE#         764
  C:1A8BH         LINE#         765
  C:1A94H         LINE#         766
  C:1A97H         LINE#         767
  C:1A99H         LINE#         768
  C:1A9AH         LINE#         769
  C:1AA2H         LINE#         770
  C:1AA2H         LINE#         771
  C:1AA5H         LINE#         772
BL51 BANKED LINKER/LOCATER V6.22.2.0                                                  08/04/2022  16:30:25  PAGE 51


  C:1AA5H         LINE#         773
  C:1AA7H         LINE#         774
  C:1AB4H         LINE#         775
  C:1AB4H         LINE#         777
  C:1AC1H         LINE#         778
  C:1AC1H         LINE#         779
  C:1ACAH         LINE#         780
  C:1ACCH         LINE#         781
  C:1ACCH         LINE#         783
  C:1ACDH         LINE#         784
  C:1AD8H         LINE#         785
  C:1AD8H         LINE#         786
  C:1AE3H         LINE#         787
  C:1AE3H         LINE#         789
  C:1AE3H         LINE#         790
  C:1AE6H         LINE#         791
  C:1AEBH         LINE#         792
  C:1AEEH         LINE#         794
  C:1AEEH         LINE#         795
  C:1AEEH         LINE#         796
  C:1AEEH         LINE#         797
  C:1AEEH         LINE#         798
  C:1AEEH         LINE#         799
  C:1AEEH         LINE#         807
  C:1AEEH         LINE#         808
  C:1AEEH         LINE#         809
  C:1AEEH         LINE#         810
  C:1B1CH         LINE#         811
  C:1B2BH         LINE#         812
  C:1B2BH         LINE#         813
  C:1B50H         LINE#         814
  C:1B78H         LINE#         815
  C:1B83H         LINE#         816
  C:1B8DH         LINE#         817
  C:1B90H         LINE#         818
  C:1B90H         LINE#         819
  C:1B90H         LINE#         820
  C:1B90H         LINE#         821
  C:1B90H         LINE#         822
  C:1B90H         LINE#         823
  C:1BBEH         LINE#         824
  C:1BCDH         LINE#         825
  C:1BCDH         LINE#         826
  C:1BF2H         LINE#         827
  C:1C1AH         LINE#         828
  C:1C22H         LINE#         829
  C:1C2BH         LINE#         830
  C:1C2EH         LINE#         831
  C:1C2EH         LINE#         832
  C:1C2EH         LINE#         833
  C:1C2EH         LINE#         834
  C:1C2EH         LINE#         835
  C:1C2EH         LINE#         836
  C:1C5CH         LINE#         837
  C:1C68H         LINE#         838
  C:1C68H         LINE#         839
  C:1C8DH         LINE#         840
BL51 BANKED LINKER/LOCATER V6.22.2.0                                                  08/04/2022  16:30:25  PAGE 52


  C:1CB5H         LINE#         841
  C:1CBFH         LINE#         842
  C:1CCCH         LINE#         843
  C:1CCCH         LINE#         844
  C:1CCCH         LINE#         845
  C:1CCCH         LINE#         846
  C:1CCCH         LINE#         881
  C:1CCCH         LINE#         882
  -------         ENDPROC       _MODEMRECEIVEHANDLE
  -------         PROC          _GSMUARTCMD
  X:107CH         SYMBOL        buf
  D:0004H         SYMBOL        len
  -------         DO            
  D:0007H         SYMBOL        CmdRes
  -------         ENDDO         
  C:6919H         LINE#         884
  C:6924H         LINE#         885
  C:6924H         LINE#         887
  C:693BH         LINE#         888
  C:6953H         LINE#         889
  C:6953H         LINE#         890
  C:696CH         LINE#         891
  C:696CH         LINE#         892
  C:6998H         LINE#         893
  C:69A8H         LINE#         894
  C:69A8H         LINE#         895
  C:69A8H         LINE#         896
  C:69A8H         LINE#         897
  C:69ADH         LINE#         898
  C:69B7H         LINE#         899
  C:69B7H         LINE#         900
  C:69BAH         LINE#         901
  C:69D3H         LINE#         902
  C:69DDH         LINE#         903
  C:69F6H         LINE#         904
  C:69F6H         LINE#         906
  C:69F6H         LINE#         907
  C:6A00H         LINE#         908
  C:6A06H         LINE#         909
  C:6A0EH         LINE#         910
  C:6A0EH         LINE#         911
  C:6A0EH         LINE#         912
  C:6A0EH         LINE#         913
  C:6A0EH         LINE#         914
  C:6A0EH         LINE#         921
  C:6A10H         LINE#         922
  C:6A10H         LINE#         924
  C:6A10H         LINE#         925
  C:6A10H         LINE#         926
  C:6A17H         LINE#         927
  C:6A17H         LINE#         928
  C:6A21H         LINE#         929
  C:6A27H         LINE#         930
  C:6A28H         LINE#         932
  C:6A28H         LINE#         933
  C:6A2BH         LINE#         934
  C:6A2BH         LINE#         935
BL51 BANKED LINKER/LOCATER V6.22.2.0                                                  08/04/2022  16:30:25  PAGE 53


  C:6A2BH         LINE#         936
  C:6A2BH         LINE#         937
  C:6A2BH         LINE#         938
  C:6A2BH         LINE#         940
  C:6A2BH         LINE#         941
  C:6A39H         LINE#         942
  C:6A39H         LINE#         943
  -------         ENDPROC       _GSMUARTCMD
  -------         PROC          _GSM_SEND_DTMF
  X:107EH         SYMBOL        k
  -------         DO            
  X:107FH         SYMBOL        dtmf_cmd
  -------         ENDDO         
  C:8E67H         LINE#         945
  C:8E6CH         LINE#         946
  C:8E6CH         LINE#         947
  C:8E7FH         LINE#         948
  C:8E89H         LINE#         951
  -------         ENDPROC       _GSM_SEND_DTMF
  -------         ENDMOD        GSM

  -------         MODULE        NAMELIST
  C:0000H         SYMBOL        _ICE_DUMMY_
  D:0080H         PUBLIC        P0
  D:0090H         PUBLIC        P1
  D:00A0H         PUBLIC        P2
  B:0023H.2       SYMBOL        NameEditSaved
  D:00B0H         PUBLIC        P3
  D:00C0H         PUBLIC        P4
  D:00C8H         PUBLIC        P5
  C:491FH         PUBLIC        _NameDeleteKey
  D:00E8H         PUBLIC        P6
  D:00F8H         PUBLIC        P7
  C:8A18H         PUBLIC        _WriteNameItemByIdx
  X:12ACH         PUBLIC        EditChar
  C:970BH         PUBLIC        _DelNameItemByRoom
  C:92D7H         PUBLIC        _ShowNameByIdx
  C:759CH         PUBLIC        NameEditChageType
  C:000EH         PUBLIC        ClearNameList
  D:00A8H         PUBLIC        IE
  C:8189H         PUBLIC        _DelNameItemByIdx
  C:882DH         PUBLIC        _GetNameItemByRoom
  C:959CH         PUBLIC        DeleteAllNameCon
  D:00B8H         PUBLIC        IP
  X:12ADH         PUBLIC        EditTime
  X:12AFH         PUBLIC        NameEditItem
  C:802BH         PUBLIC        _AddNameItem
  C:922AH         PUBLIC        SaveNameCount
  D:00D8H         PUBLIC        CCON
  C:4475H         PUBLIC        _ShowName
  X:12FFH         SYMBOL        NameEditType
  X:1300H         SYMBOL        NameEditIdx
  D:0098H         PUBLIC        SCON
  D:0088H         PUBLIC        TCON
  C:253EH         PUBLIC        _NameEditKey
  C:969BH         PUBLIC        InitNameList
  C:0026H         PUBLIC        EditNameItemCon
BL51 BANKED LINKER/LOCATER V6.22.2.0                                                  08/04/2022  16:30:25  PAGE 54


  D:00F0H         PUBLIC        B
  C:6F4BH         PUBLIC        HBtab
  D:00E0H         PUBLIC        ACC
  C:705EH         PUBLIC        _CallByNameItem
  C:81F8H         PUBLIC        NameSetCon
  C:92F9H         PUBLIC        _NameSetKey
  C:952BH         PUBLIC        _NameDelAllKey
  C:0E7EH         PUBLIC        _RevNamelist
  C:8CC7H         PUBLIC        _ReadNameItemByIdx
  D:00D0H         PUBLIC        PSW
  C:9072H         PUBLIC        DeleteNameCon
  -------         PROC          SAVENAMECOUNT
  C:922AH         LINE#         11
  C:922AH         LINE#         12
  C:922AH         LINE#         13
  -------         ENDPROC       SAVENAMECOUNT
  -------         PROC          CLEARNAMELIST
  C:000EH         LINE#         16
  C:000EH         LINE#         17
  C:000EH         LINE#         18
  C:0015H         LINE#         19
  -------         ENDPROC       CLEARNAMELIST
  -------         PROC          INITNAMELIST
  C:969BH         LINE#         22
  C:969BH         LINE#         23
  C:969BH         LINE#         24
  C:96AAH         LINE#         25
  C:96AAH         LINE#         26
  C:96ADH         LINE#         27
  C:96ADH         LINE#         28
  -------         ENDPROC       INITNAMELIST
  -------         PROC          L?0235
  -------         ENDPROC       L?0235
  -------         PROC          _WRITENAMEITEMBYIDX
  D:0006H         SYMBOL        idx
  X:1122H         SYMBOL        pItem
  -------         DO            
  D:0006H         SYMBOL        addr
  -------         ENDDO         
  C:8A18H         LINE#         31
  C:8A23H         LINE#         32
  C:8A23H         LINE#         33
  C:8A23H         LINE#         34
  C:8A2AH         LINE#         35
  -------         ENDPROC       _WRITENAMEITEMBYIDX
  -------         PROC          _READNAMEITEMBYIDX
  D:0006H         SYMBOL        idx
  X:1122H         SYMBOL        pItem
  -------         DO            
  D:0006H         SYMBOL        addr
  -------         ENDDO         
  C:8CC7H         LINE#         40
  C:8CD2H         LINE#         41
  C:8CD2H         LINE#         42
  C:8CD2H         LINE#         43
  C:8CD9H         LINE#         44
  -------         ENDPROC       _READNAMEITEMBYIDX
BL51 BANKED LINKER/LOCATER V6.22.2.0                                                  08/04/2022  16:30:25  PAGE 55


  -------         PROC          _GETNAMEITEMBYROOM
  D:0006H         SYMBOL        room
  X:10D0H         SYMBOL        pItem
  -------         DO            
  X:10D3H         SYMBOL        idx
  -------         ENDDO         
  C:882DH         LINE#         48
  C:8838H         LINE#         49
  C:8838H         LINE#         50
  C:883EH         LINE#         51
  C:884BH         LINE#         52
  C:8852H         LINE#         53
  C:8852H         LINE#         54
  C:8868H         LINE#         55
  C:8871H         LINE#         56
  C:8871H         LINE#         57
  C:8875H         LINE#         58
  -------         ENDPROC       _GETNAMEITEMBYROOM
  -------         PROC          _ADDNAMEITEM
  X:10D5H         SYMBOL        pItem
  -------         DO            
  X:10D8H         SYMBOL        idx
  -------         ENDDO         
  C:802BH         LINE#         59
  C:8036H         LINE#         60
  C:8036H         LINE#         61
  C:803CH         LINE#         62
  C:804FH         LINE#         63
  C:8056H         LINE#         64
  C:8056H         LINE#         65
  C:8061H         LINE#         66
  C:806AH         LINE#         67
  C:806AH         LINE#         68
  C:807AH         LINE#         69
  C:807AH         LINE#         70
  C:807DH         LINE#         71
  C:808BH         LINE#         72
  C:808EH         LINE#         73
  C:809DH         LINE#         74
  C:809DH         LINE#         75
  C:80A1H         LINE#         76
  -------         ENDPROC       _ADDNAMEITEM
  -------         PROC          _DELNAMEITEMBYIDX
  X:10D0H         SYMBOL        idx
  -------         DO            
  X:10D2H         SYMBOL        tmpItem
  -------         ENDDO         
  C:8189H         LINE#         77
  C:8191H         LINE#         78
  C:8191H         LINE#         80
  C:819FH         LINE#         81
  C:819FH         LINE#         82
  C:81B3H         LINE#         83
  C:81B3H         LINE#         84
  C:81C1H         LINE#         85
  C:81C4H         LINE#         86
  C:81C4H         LINE#         88
BL51 BANKED LINKER/LOCATER V6.22.2.0                                                  08/04/2022  16:30:25  PAGE 56


  C:81C4H         LINE#         89
  C:81D2H         LINE#         90
  C:81D5H         LINE#         91
  C:81E6H         LINE#         92
  C:81F7H         LINE#         93
  C:81F7H         LINE#         94
  C:81F7H         LINE#         95
  -------         ENDPROC       _DELNAMEITEMBYIDX
  -------         PROC          _DELNAMEITEMBYROOM
  D:0006H         SYMBOL        room
  -------         DO            
  D:0006H         SYMBOL        idx
  -------         ENDDO         
  C:970BH         LINE#         96
  C:970BH         LINE#         97
  C:970BH         LINE#         98
  C:9710H         LINE#         99
  C:9718H         LINE#         100
  C:9718H         LINE#         101
  C:971BH         LINE#         102
  C:971BH         LINE#         103
  -------         ENDPROC       _DELNAMEITEMBYROOM
  -------         PROC          _SHOWNAME
  X:10D0H         SYMBOL        pItem
  B:0020H.0       SYMBOL        tel
  -------         DO            
  X:10D3H         SYMBOL        Disbuf
  X:1123H         SYMBOL        i
  -------         ENDDO         
  C:4475H         LINE#         110
  C:4480H         LINE#         111
  C:4480H         LINE#         114
  C:4483H         LINE#         116
  C:4489H         LINE#         117
  C:4489H         LINE#         118
  C:44B1H         LINE#         119
  C:44B1H         LINE#         120
  C:44C0H         LINE#         121
  C:44C0H         LINE#         122
  C:44E7H         LINE#         123
  C:44F8H         LINE#         127
  C:451EH         LINE#         129
  C:453BH         LINE#         130
  C:453BH         LINE#         134
  C:4566H         LINE#         135
  C:458FH         LINE#         136
  C:458FH         LINE#         137
  C:459AH         LINE#         138
  C:459AH         LINE#         140
  C:459AH         LINE#         141
  C:45A3H         LINE#         142
  C:45A3H         LINE#         143
  C:45A3H         LINE#         145
  C:45A3H         LINE#         146
  C:45BAH         LINE#         147
  C:45BAH         LINE#         149
  C:45C7H         LINE#         156
BL51 BANKED LINKER/LOCATER V6.22.2.0                                                  08/04/2022  16:30:25  PAGE 57


  C:4602H         LINE#         157
  C:460FH         LINE#         160
  C:4623H         LINE#         161
  C:4623H         LINE#         165
  C:4629H         LINE#         167
  C:4629H         LINE#         168
  C:462BH         LINE#         170
  C:462BH         LINE#         171
  C:4638H         LINE#         172
  C:464BH         LINE#         173
  C:464BH         LINE#         177
  C:465BH         LINE#         179
  C:465BH         LINE#         180
  C:465BH         LINE#         182
  C:4699H         LINE#         183
  C:46A6H         LINE#         184
  C:46BAH         LINE#         185
  C:46BAH         LINE#         198
  C:46CAH         LINE#         200
  C:46CAH         LINE#         201
  C:46CAH         LINE#         202
  -------         ENDPROC       _SHOWNAME
  -------         PROC          EDITNAMEITEMCON
  C:0026H         LINE#         204
  C:0026H         LINE#         205
  C:0026H         LINE#         206
  C:0033H         LINE#         207
  C:0038H         LINE#         208
  C:003AH         LINE#         209
  C:0040H         LINE#         210
  -------         ENDPROC       EDITNAMEITEMCON
  -------         PROC          NAMEEDITCHAGETYPE
  -------         DO            
  X:107EH         SYMBOL        tmp
  X:1080H         SYMBOL        tmpItem
  -------         ENDDO         
  C:759CH         LINE#         212
  C:759CH         LINE#         213
  C:759CH         LINE#         216
  C:75B6H         LINE#         217
  C:75B6H         LINE#         218
  C:75B6H         LINE#         219
  C:75BBH         LINE#         220
  C:75BDH         LINE#         221
  C:75CAH         LINE#         222
  C:75DDH         LINE#         223
  C:75DDH         LINE#         224
  C:75E3H         LINE#         225
  C:75F2H         LINE#         226
  C:75F4H         LINE#         227
  C:75F4H         LINE#         228
  C:75F4H         LINE#         229
  C:7604H         LINE#         230
  C:7615H         LINE#         231
  C:7615H         LINE#         232
  C:7633H         LINE#         233
  C:7633H         LINE#         234
BL51 BANKED LINKER/LOCATER V6.22.2.0                                                  08/04/2022  16:30:25  PAGE 58


  C:7639H         LINE#         235
  C:763BH         LINE#         236
  C:763BH         LINE#         237
  C:763BH         LINE#         238
  C:763BH         LINE#         239
  C:7655H         LINE#         240
  C:7656H         LINE#         241
  C:7656H         LINE#         242
  C:7659H         LINE#         243
  C:765BH         LINE#         244
  C:765BH         LINE#         245
  C:765BH         LINE#         246
  -------         ENDPROC       NAMEEDITCHAGETYPE
  -------         PROC          _NAMEEDITKEY
  X:107DH         SYMBOL        key
  -------         DO            
  X:12ABH         SYMBOL        OldKey
  D:0005H         SYMBOL        HBtmp
  -------         ENDDO         
  C:253EH         LINE#         248
  C:2543H         LINE#         249
  C:2543H         LINE#         255
  C:254AH         LINE#         256
  C:254AH         LINE#         257
  C:2552H         LINE#         258
  C:2552H         LINE#         259
  C:2555H         LINE#         260
  C:2555H         LINE#         261
  C:2561H         LINE#         262
  C:2566H         LINE#         263
  C:2568H         LINE#         265
  C:2568H         LINE#         266
  C:2586H         LINE#         269
  C:2586H         LINE#         270
  C:2597H         LINE#         271
  C:2597H         LINE#         272
  C:259AH         LINE#         273
  C:259CH         LINE#         275
  C:259CH         LINE#         276
  C:259FH         LINE#         277
  C:259FH         LINE#         278
  C:25ACH         LINE#         279
  C:25AEH         LINE#         281
  C:25AEH         LINE#         282
  C:25B1H         LINE#         283
  C:25B1H         LINE#         284
  C:25B4H         LINE#         286
  C:25B4H         LINE#         287
  C:25B4H         LINE#         288
  C:25BAH         LINE#         289
  C:25C2H         LINE#         290
  C:25C5H         LINE#         291
  C:25CAH         LINE#         292
  C:25CEH         LINE#         293
  C:25D9H         LINE#         294
  C:25DAH         LINE#         296
  C:25DAH         LINE#         297
BL51 BANKED LINKER/LOCATER V6.22.2.0                                                  08/04/2022  16:30:25  PAGE 59


  C:25DAH         LINE#         298
  C:25E1H         LINE#         299
  C:25E1H         LINE#         300
  C:25EAH         LINE#         301
  C:25EAH         LINE#         302
  C:25EDH         LINE#         303
  C:25EFH         LINE#         305
  C:25EFH         LINE#         306
  C:25F4H         LINE#         307
  C:25F4H         LINE#         308
  C:25F4H         LINE#         309
  C:25F4H         LINE#         310
  C:25F4H         LINE#         311
  C:25F6H         LINE#         312
  C:25FDH         LINE#         313
  C:25FDH         LINE#         314
  C:2606H         LINE#         315
  C:2606H         LINE#         316
  C:2609H         LINE#         317
  C:260BH         LINE#         319
  C:260BH         LINE#         320
  C:2611H         LINE#         321
  C:2611H         LINE#         322
  C:2614H         LINE#         323
  C:2614H         LINE#         324
  C:2614H         LINE#         325
  C:2617H         LINE#         326
  C:2622H         LINE#         327
  C:2622H         LINE#         328
  C:263CH         LINE#         329
  C:263CH         LINE#         330
  C:263CH         LINE#         331
  C:2645H         LINE#         332
  C:2645H         LINE#         333
  C:2648H         LINE#         334
  C:265FH         LINE#         335
  C:2662H         LINE#         337
  C:2662H         LINE#         338
  C:2665H         LINE#         340
  C:2665H         LINE#         341
  C:2665H         LINE#         342
  C:2665H         LINE#         343
  C:2680H         LINE#         344
  C:2680H         LINE#         345
  C:2686H         LINE#         346
  C:2686H         LINE#         347
  C:2695H         LINE#         348
  C:269BH         LINE#         349
  C:26ACH         LINE#         350
  C:26ACH         LINE#         351
  C:26B8H         LINE#         352
  C:26BEH         LINE#         353
  C:26BEH         LINE#         354
  C:26C0H         LINE#         356
  C:26C0H         LINE#         357
  C:26C5H         LINE#         358
  C:26C8H         LINE#         359
BL51 BANKED LINKER/LOCATER V6.22.2.0                                                  08/04/2022  16:30:25  PAGE 60


  C:26C8H         LINE#         360
  C:26C8H         LINE#         361
  C:26D8H         LINE#         362
  C:26E0H         LINE#         363
  C:26E2H         LINE#         364
  C:26E2H         LINE#         365
  C:26E2H         LINE#         366
  C:26E2H         LINE#         367
  C:26EBH         LINE#         368
  C:26EBH         LINE#         369
  C:26EEH         LINE#         370
  C:270DH         LINE#         371
  C:270FH         LINE#         373
  C:270FH         LINE#         374
  C:2714H         LINE#         375
  C:2714H         LINE#         376
  C:2714H         LINE#         377
  C:2716H         LINE#         378
  C:2716H         LINE#         379
  C:271BH         LINE#         380
  C:271EH         LINE#         381
  C:271EH         LINE#         382
  C:271EH         LINE#         383
  C:271EH         LINE#         384
  C:271EH         LINE#         385
  C:2720H         LINE#         386
  C:2727H         LINE#         387
  C:2727H         LINE#         388
  C:272AH         LINE#         390
  C:272AH         LINE#         391
  C:2747H         LINE#         392
  C:2747H         LINE#         393
  C:274CH         LINE#         394
  C:274CH         LINE#         395
  C:2752H         LINE#         396
  C:2752H         LINE#         397
  C:2758H         LINE#         398
  C:275DH         LINE#         399
  C:2761H         LINE#         400
  C:2761H         LINE#         401
  C:2777H         LINE#         402
  C:2777H         LINE#         403
  C:278DH         LINE#         404
  C:278DH         LINE#         405
  C:278DH         LINE#         406
  C:2796H         LINE#         407
  C:2796H         LINE#         408
  C:27ADH         LINE#         409
  C:27BFH         LINE#         410
  C:27C5H         LINE#         411
  C:27C5H         LINE#         412
  C:27D2H         LINE#         413
  C:27D2H         LINE#         414
  C:27D6H         LINE#         415
  C:27D6H         LINE#         416
  C:27D9H         LINE#         417
  C:27D9H         LINE#         573
BL51 BANKED LINKER/LOCATER V6.22.2.0                                                  08/04/2022  16:30:25  PAGE 61


  C:27F5H         LINE#         574
  C:27F5H         LINE#         575
  C:27FAH         LINE#         576
  C:27FAH         LINE#         577
  C:2800H         LINE#         578
  C:2800H         LINE#         579
  C:2806H         LINE#         580
  C:280BH         LINE#         581
  C:280BH         LINE#         582
  C:2812H         LINE#         583
  C:2812H         LINE#         584
  C:282AH         LINE#         585
  C:282DH         LINE#         592
  C:282DH         LINE#         593
  C:283DH         LINE#         594
  C:2842H         LINE#         595
  C:2847H         LINE#         596
  C:2847H         LINE#         597
  C:284DH         LINE#         598
  C:2856H         LINE#         599
  C:285FH         LINE#         600
  C:2874H         LINE#         601
  C:2878H         LINE#         602
  C:288AH         LINE#         605
  C:288FH         LINE#         606
  C:289FH         LINE#         607
  C:28A1H         LINE#         609
  C:28A1H         LINE#         610
  C:28CAH         LINE#         611
  C:28CAH         LINE#         612
  C:28CAH         LINE#         613
  C:28D0H         LINE#         614
  C:28D8H         LINE#         615
  C:28E0H         LINE#         617
  C:28E2H         LINE#         618
  C:28E2H         LINE#         619
  C:28E2H         LINE#         620
  C:28E2H         LINE#         621
  C:28EBH         LINE#         622
  C:28EBH         LINE#         623
  C:2913H         LINE#         624
  C:2913H         LINE#         625
  C:2913H         LINE#         626
  C:2913H         LINE#         627
  C:2913H         LINE#         629
  C:291BH         LINE#         630
  C:2933H         LINE#         631
  -------         ENDPROC       _NAMEEDITKEY
  -------         PROC          DELETENAMECON
  C:9072H         LINE#         633
  C:9072H         LINE#         634
  C:9072H         LINE#         635
  C:907FH         LINE#         636
  C:9084H         LINE#         637
  C:9086H         LINE#         638
  C:908CH         LINE#         639
  -------         ENDPROC       DELETENAMECON
BL51 BANKED LINKER/LOCATER V6.22.2.0                                                  08/04/2022  16:30:25  PAGE 62


  -------         PROC          _NAMEDELETEKEY
  X:107DH         SYMBOL        key
  -------         DO            
  X:107EH         SYMBOL        tmp
  X:1080H         SYMBOL        tmpItem
  -------         ENDDO         
  C:491FH         LINE#         642
  C:4924H         LINE#         643
  C:4924H         LINE#         646
  C:492BH         LINE#         647
  C:492BH         LINE#         648
  C:4933H         LINE#         649
  C:4933H         LINE#         650
  C:4936H         LINE#         651
  C:4936H         LINE#         652
  C:4942H         LINE#         653
  C:4947H         LINE#         654
  C:494BH         LINE#         655
  C:494DH         LINE#         657
  C:494DH         LINE#         658
  C:4958H         LINE#         659
  C:495AH         LINE#         660
  C:495DH         LINE#         662
  C:495DH         LINE#         663
  C:495DH         LINE#         664
  C:4963H         LINE#         665
  C:496CH         LINE#         666
  C:497CH         LINE#         667
  C:497CH         LINE#         668
  C:497CH         LINE#         669
  C:4981H         LINE#         670
  C:498EH         LINE#         671
  C:499EH         LINE#         672
  C:499EH         LINE#         673
  C:49A4H         LINE#         674
  C:49B3H         LINE#         675
  C:49B5H         LINE#         676
  C:49B5H         LINE#         677
  C:49B5H         LINE#         678
  C:49CEH         LINE#         679
  C:49CEH         LINE#         680
  C:49ECH         LINE#         681
  C:49ECH         LINE#         682
  C:49FAH         LINE#         683
  C:49FDH         LINE#         684
  C:49FDH         LINE#         685
  C:4A00H         LINE#         686
  C:4A03H         LINE#         688
  C:4A03H         LINE#         689
  C:4A03H         LINE#         690
  C:4A03H         LINE#         691
  C:4A06H         LINE#         692
  C:4A11H         LINE#         693
  C:4A11H         LINE#         694
  C:4A22H         LINE#         695
  C:4A22H         LINE#         696
  C:4A22H         LINE#         697
BL51 BANKED LINKER/LOCATER V6.22.2.0                                                  08/04/2022  16:30:25  PAGE 63


  C:4A2BH         LINE#         698
  C:4A2BH         LINE#         699
  C:4A2EH         LINE#         700
  C:4A45H         LINE#         701
  C:4A48H         LINE#         703
  C:4A48H         LINE#         704
  C:4A4BH         LINE#         706
  C:4A4BH         LINE#         707
  C:4A4BH         LINE#         708
  C:4A4BH         LINE#         709
  C:4A50H         LINE#         710
  C:4A54H         LINE#         711
  C:4A63H         LINE#         712
  C:4A68H         LINE#         713
  C:4A78H         LINE#         714
  C:4A78H         LINE#         715
  C:4A7EH         LINE#         716
  C:4A8DH         LINE#         717
  C:4A8FH         LINE#         718
  C:4A8FH         LINE#         719
  C:4A8FH         LINE#         720
  C:4A94H         LINE#         721
  C:4A98H         LINE#         722
  C:4AA7H         LINE#         723
  C:4AACH         LINE#         724
  C:4ABCH         LINE#         725
  C:4ABCH         LINE#         726
  C:4AC2H         LINE#         727
  C:4AD1H         LINE#         728
  C:4AD3H         LINE#         729
  C:4AD3H         LINE#         730
  C:4AD3H         LINE#         731
  C:4AD8H         LINE#         732
  C:4ADCH         LINE#         733
  C:4ADEH         LINE#         734
  C:4AE5H         LINE#         735
  C:4AE5H         LINE#         736
  C:4AE8H         LINE#         738
  C:4AE8H         LINE#         739
  C:4AFEH         LINE#         740
  C:4AFEH         LINE#         741
  C:4B05H         LINE#         742
  C:4B05H         LINE#         743
  C:4B1CH         LINE#         744
  C:4B2EH         LINE#         745
  C:4B34H         LINE#         746
  C:4B34H         LINE#         747
  C:4B3EH         LINE#         748
  C:4B3EH         LINE#         749
  C:4B42H         LINE#         750
  C:4B42H         LINE#         751
  C:4B42H         LINE#         752
  C:4B4DH         LINE#         753
  -------         ENDPROC       _NAMEDELETEKEY
  -------         PROC          DELETEALLNAMECON
  C:959CH         LINE#         755
  C:959CH         LINE#         756
BL51 BANKED LINKER/LOCATER V6.22.2.0                                                  08/04/2022  16:30:25  PAGE 64


  C:959CH         LINE#         757
  C:95A2H         LINE#         758
  C:95A5H         LINE#         759
  -------         ENDPROC       DELETEALLNAMECON
  -------         PROC          _NAMEDELALLKEY
  D:0007H         SYMBOL        key
  C:952BH         LINE#         761
  C:952BH         LINE#         762
  C:952BH         LINE#         763
  C:9538H         LINE#         764
  C:9538H         LINE#         765
  C:9538H         LINE#         766
  C:953BH         LINE#         767
  C:953EH         LINE#         768
  C:953EH         LINE#         769
  C:953EH         LINE#         770
  C:953EH         LINE#         771
  C:9541H         LINE#         772
  C:9541H         LINE#         773
  C:9541H         LINE#         774
  -------         ENDPROC       _NAMEDELALLKEY
  -------         PROC          NAMESETCON
  -------         DO            
  X:10D0H         SYMBOL        Disbuf
  -------         ENDDO         
  C:81F8H         LINE#         776
  C:81F8H         LINE#         777
  C:81F8H         LINE#         779
  C:81FEH         LINE#         780
  C:8201H         LINE#         781
  C:820DH         LINE#         782
  C:821AH         LINE#         783
  C:8227H         LINE#         784
  C:8234H         LINE#         785
  C:825AH         LINE#         789
  -------         ENDPROC       NAMESETCON
  -------         PROC          _NAMESETKEY
  D:0007H         SYMBOL        key
  C:92F9H         LINE#         792
  C:92F9H         LINE#         793
  C:92F9H         LINE#         794
  C:930DH         LINE#         795
  C:930DH         LINE#         796
  C:930DH         LINE#         797
  C:9310H         LINE#         798
  C:9310H         LINE#         799
  C:9310H         LINE#         800
  C:9313H         LINE#         801
  C:9313H         LINE#         802
  C:9313H         LINE#         803
  C:9316H         LINE#         804
  C:9316H         LINE#         805
  C:9316H         LINE#         806
  C:9316H         LINE#         807
  C:9319H         LINE#         808
  C:9319H         LINE#         809
  C:9319H         LINE#         810
BL51 BANKED LINKER/LOCATER V6.22.2.0                                                  08/04/2022  16:30:25  PAGE 65


  -------         ENDPROC       _NAMESETKEY
  -------         PROC          _SHOWNAMEBYIDX
  D:0006H         SYMBOL        idx
  -------         DO            
  X:107EH         SYMBOL        tmpItem
  -------         ENDDO         
  C:92D7H         LINE#         812
  C:92D7H         LINE#         813
  C:92D7H         LINE#         815
  C:92E4H         LINE#         816
  C:92E4H         LINE#         817
  C:92EDH         LINE#         818
  C:92F8H         LINE#         819
  C:92F8H         LINE#         820
  -------         ENDPROC       _SHOWNAMEBYIDX
  -------         PROC          _CALLBYNAMEITEM
  X:107EH         SYMBOL        NameItem
  X:1081H         SYMBOL        telIdx
  -------         DO            
  X:1082H         SYMBOL        Disbuf
  -------         ENDDO         
  C:705EH         LINE#         859
  C:706EH         LINE#         860
  C:706EH         LINE#         863
  C:708CH         LINE#         864
  C:708CH         LINE#         865
  C:70B0H         LINE#         866
  C:70B0H         LINE#         867
  C:70B3H         LINE#         869
  C:70CCH         LINE#         870
  C:70CCH         LINE#         871
  C:70FAH         LINE#         872
  C:70FCH         LINE#         874
  C:70FCH         LINE#         875
  C:7137H         LINE#         877
  C:7137H         LINE#         879
  C:7144H         LINE#         885
  C:7146H         LINE#         886
  C:7146H         LINE#         887
  C:7148H         LINE#         888
  C:7148H         LINE#         889
  C:7149H         LINE#         890
  -------         ENDPROC       _CALLBYNAMEITEM
  -------         PROC          _REVNAMELIST
  D:0001H         SYMBOL        buf
  -------         DO            
  X:107CH         SYMBOL        i
  X:107EH         SYMBOL        cnt
  X:1080H         SYMBOL        j
  X:1082H         SYMBOL        tmpItem
  X:10D2H         SYMBOL        p
  -------         ENDDO         
  C:0E7EH         LINE#         892
  C:0E7EH         LINE#         893
  C:0E7EH         LINE#         897
  C:0E89H         LINE#         899
  C:0E91H         LINE#         900
BL51 BANKED LINKER/LOCATER V6.22.2.0                                                  08/04/2022  16:30:25  PAGE 66


  C:0E91H         LINE#         901
  C:0E9AH         LINE#         902
  C:0EA5H         LINE#         904
  C:0EA5H         LINE#         905
  C:0EAEH         LINE#         906
  C:0ED2H         LINE#         907
  C:0ED9H         LINE#         908
  C:0ED9H         LINE#         909
  C:0EEBH         LINE#         910
  C:0F13H         LINE#         911
  C:0F13H         LINE#         912
  C:0F2BH         LINE#         913
  C:0F50H         LINE#         914
  C:0F50H         LINE#         915
  C:0F74H         LINE#         916
  C:0F7EH         LINE#         917
  C:0F7EH         LINE#         918
  C:0F90H         LINE#         920
  C:0F9DH         LINE#         921
  C:0FC5H         LINE#         923
  C:0FE9H         LINE#         924
  C:0FF3H         LINE#         925
  C:0FF3H         LINE#         926
  C:1005H         LINE#         928
  C:100CH         LINE#         929
  C:1030H         LINE#         930
  C:1030H         LINE#         931
  C:104EH         LINE#         932
  C:105CH         LINE#         933
  C:105EH         LINE#         934
  C:1070H         LINE#         935
  C:1070H         LINE#         937
  C:1094H         LINE#         938
  C:109EH         LINE#         939
  C:109EH         LINE#         940
  C:10B0H         LINE#         942
  C:10B7H         LINE#         943
  C:10DBH         LINE#         944
  C:10DBH         LINE#         945
  C:10F9H         LINE#         946
  C:1107H         LINE#         947
  C:1109H         LINE#         948
  C:111BH         LINE#         949
  C:111BH         LINE#         951
  C:113FH         LINE#         952
  C:1149H         LINE#         953
  C:1149H         LINE#         954
  C:115BH         LINE#         956
  C:1162H         LINE#         957
  C:1186H         LINE#         958
  C:1186H         LINE#         959
  C:11A4H         LINE#         960
  C:11B2H         LINE#         961
  C:11B4H         LINE#         962
  C:11C6H         LINE#         963
  C:11C6H         LINE#         965
  C:11EAH         LINE#         966
BL51 BANKED LINKER/LOCATER V6.22.2.0                                                  08/04/2022  16:30:25  PAGE 67


  C:11F4H         LINE#         967
  C:11F4H         LINE#         968
  C:1206H         LINE#         970
  C:120DH         LINE#         971
  C:1231H         LINE#         972
  C:1231H         LINE#         973
  C:124FH         LINE#         974
  C:125DH         LINE#         975
  C:125FH         LINE#         976
  C:1271H         LINE#         977
  C:1271H         LINE#         978
  C:1284H         LINE#         979
  C:12EBH         LINE#         980
  C:12F1H         LINE#         981
  C:12F1H         LINE#         983
  C:12FDH         LINE#         984
  C:12FDH         LINE#         985
  C:12FDH         LINE#         986
  C:12FDH         LINE#         987
  C:130EH         LINE#         988
  C:1322H         LINE#         989
  C:1322H         LINE#         990
  C:1332H         LINE#         991
  C:1334H         LINE#         993
  C:1334H         LINE#         994
  C:135BH         LINE#         995
  C:135BH         LINE#         996
  C:1361H         LINE#         997
  -------         ENDPROC       _REVNAMELIST
  -------         ENDMOD        NAMELIST

  -------         MODULE        EEPROM
  C:0000H         SYMBOL        _ICE_DUMMY_
  C:95C8H         PUBLIC        IIC_stop
  D:0080H         PUBLIC        P0
  D:0090H         PUBLIC        P1
  D:00A0H         PUBLIC        P2
  D:00B0H         PUBLIC        P3
  D:00C0H         PUBLIC        P4
  D:00C8H         PUBLIC        P5
  D:00E8H         PUBLIC        P6
  D:00F8H         PUBLIC        P7
  D:00A8H         PUBLIC        IE
  D:00B8H         PUBLIC        IP
  C:85C9H         PUBLIC        _readBuf_at24c02
  D:00D8H         PUBLIC        CCON
  C:96AEH         PUBLIC        IIC_Aack
  C:96F9H         PUBLIC        _IIC_delayms
  C:7BA2H         PUBLIC        _writeBuf_at24c02
  D:0098H         PUBLIC        SCON
  D:0088H         PUBLIC        TCON
  B:00F8H.1       PUBLIC        P71
  B:00F8H.2       PUBLIC        P72
  B:00F8H.3       PUBLIC        P73
  D:00F0H         PUBLIC        B
  D:00E0H         PUBLIC        ACC
  C:008EH         PUBLIC        IIC_nack
BL51 BANKED LINKER/LOCATER V6.22.2.0                                                  08/04/2022  16:30:25  PAGE 68


  C:909FH         PUBLIC        IIC_ack
  C:95B2H         PUBLIC        IIC_start
  C:8DE1H         PUBLIC        IIC_read_byte
  C:8ABEH         PUBLIC        _IIC_send_byte
  D:00D0H         PUBLIC        PSW
  -------         PROC          _IIC_DELAYMS
  D:0007H         SYMBOL        t
  -------         DO            
  D:0006H         SYMBOL        j
  -------         ENDDO         
  C:96F9H         LINE#         13
  C:96F9H         LINE#         14
  C:96F9H         LINE#         16
  C:96FFH         LINE#         17
  C:970AH         LINE#         18
  -------         ENDPROC       _IIC_DELAYMS
  -------         PROC          IIC_START
  C:95B2H         LINE#         19
  C:95B2H         LINE#         20
  C:95B2H         LINE#         21
  C:95B4H         LINE#         22
  C:95B9H         LINE#         23
  C:95BBH         LINE#         24
  C:95C0H         LINE#         25
  C:95C2H         LINE#         26
  C:95C7H         LINE#         27
  -------         ENDPROC       IIC_START
  -------         PROC          IIC_STOP
  C:95C8H         LINE#         29
  C:95C8H         LINE#         30
  C:95C8H         LINE#         31
  C:95CAH         LINE#         32
  C:95CFH         LINE#         33
  C:95D1H         LINE#         34
  C:95D6H         LINE#         35
  C:95D8H         LINE#         36
  C:95DDH         LINE#         37
  -------         ENDPROC       IIC_STOP
  -------         PROC          L?0033
  -------         ENDPROC       L?0033
  -------         PROC          IIC_ACK
  -------         DO            
  D:0007H         SYMBOL        i
  -------         ENDDO         
  C:909FH         LINE#         39
  C:909FH         LINE#         40
  C:909FH         LINE#         41
  C:90A1H         LINE#         42
  C:90A3H         LINE#         43
  C:90A8H         LINE#         44
  C:90B4H         LINE#         45
  C:90B6H         LINE#         46
  C:90BBH         LINE#         47
  -------         ENDPROC       IIC_ACK
  -------         PROC          IIC_NACK
  C:008EH         LINE#         49
  C:008EH         LINE#         50
BL51 BANKED LINKER/LOCATER V6.22.2.0                                                  08/04/2022  16:30:25  PAGE 69


  C:008EH         LINE#         51
  C:0090H         LINE#         52
  C:0092H         LINE#         53
  C:0097H         LINE#         54
  C:0099H         LINE#         55
  C:009EH         LINE#         56
  C:00A0H         LINE#         57
  C:00A2H         LINE#         58
  -------         ENDPROC       IIC_NACK
  -------         PROC          IIC_AACK
  C:96AEH         LINE#         60
  C:96AEH         LINE#         61
  C:96AEH         LINE#         62
  C:96B0H         LINE#         63
  C:96B2H         LINE#         64
  C:96B7H         LINE#         65
  C:96B9H         LINE#         66
  C:96BEH         LINE#         67
  C:96C0H         LINE#         68
  -------         ENDPROC       IIC_AACK
  -------         PROC          _IIC_SEND_BYTE
  D:0007H         SYMBOL        date
  -------         DO            
  D:0006H         SYMBOL        i
  D:0007H         SYMBOL        temp
  -------         ENDDO         
  C:8ABEH         LINE#         72
  C:8ABEH         LINE#         73
  C:8ABEH         LINE#         75
  C:8ABEH         LINE#         76
  C:8AC0H         LINE#         77
  C:8AC0H         LINE#         78
  C:8AC2H         LINE#         79
  C:8AC7H         LINE#         80
  C:8AD1H         LINE#         81
  C:8AD5H         LINE#         82
  C:8ADAH         LINE#         83
  C:8ADCH         LINE#         84
  C:8AE1H         LINE#         85
  C:8AE3H         LINE#         86
  C:8AE8H         LINE#         87
  C:8AEAH         LINE#         88
  C:8AEFH         LINE#         89
  C:8AF1H         LINE#         90
  C:8AF6H         LINE#         93
  -------         ENDPROC       _IIC_SEND_BYTE
  -------         PROC          IIC_READ_BYTE
  -------         DO            
  D:0006H         SYMBOL        i
  D:0007H         SYMBOL        k
  -------         ENDDO         
  C:8DE1H         LINE#         95
  C:8DE1H         LINE#         96
  C:8DE1H         LINE#         97
  C:8DE1H         LINE#         98
  C:8DE3H         LINE#         99
  C:8DE8H         LINE#         100
BL51 BANKED LINKER/LOCATER V6.22.2.0                                                  08/04/2022  16:30:25  PAGE 70


  C:8DEAH         LINE#         101
  C:8DEFH         LINE#         102
  C:8DF1H         LINE#         103
  C:8DF1H         LINE#         104
  C:8DF3H         LINE#         105
  C:8DF8H         LINE#         106
  C:8DFCH         LINE#         107
  C:8E02H         LINE#         108
  C:8E04H         LINE#         109
  C:8E09H         LINE#         110
  C:8E0EH         LINE#         111
  C:8E0EH         LINE#         112
  -------         ENDPROC       IIC_READ_BYTE
  -------         PROC          _WRITEBUF_AT24C02
  X:1125H         SYMBOL        address
  X:1127H         SYMBOL        buf
  X:112AH         SYMBOL        len
  C:7BA2H         LINE#         150
  C:7BB3H         LINE#         151
  C:7BB3H         LINE#         152
  C:7BB5H         LINE#         153
  C:7BB5H         LINE#         154
  C:7BB5H         LINE#         155
  C:7BB5H         LINE#         156
  C:7BB5H         LINE#         157
  C:7BB5H         LINE#         158
  C:7BB5H         LINE#         159
  C:7BB7H         LINE#         160
  C:7BC5H         LINE#         161
  C:7BC5H         LINE#         162
  C:7BDCH         LINE#         163
  C:7BDFH         LINE#         164
  C:7BEDH         LINE#         165
  C:7C04H         LINE#         166
  C:7C04H         LINE#         167
  C:7C07H         LINE#         168
  C:7C0CH         LINE#         169
  C:7C0CH         LINE#         170
  C:7C0CH         LINE#         171
  C:7C0FH         LINE#         172
  C:7C17H         LINE#         173
  C:7C1AH         LINE#         174
  C:7C20H         LINE#         175
  C:7C23H         LINE#         176
  C:7C23H         LINE#         177
  C:7C25H         LINE#         178
  C:7C28H         LINE#         179
  -------         ENDPROC       _WRITEBUF_AT24C02
  -------         PROC          _READBUF_AT24C02
  D:0004H         SYMBOL        address
  D:0001H         SYMBOL        buf
  X:112AH         SYMBOL        len
  -------         DO            
  X:112CH         SYMBOL        dat
  -------         ENDDO         
  C:85C9H         LINE#         182
  C:85CDH         LINE#         183
BL51 BANKED LINKER/LOCATER V6.22.2.0                                                  08/04/2022  16:30:25  PAGE 71


  C:85CDH         LINE#         185
  C:85CDH         LINE#         186
  C:85CDH         LINE#         187
  C:85D0H         LINE#         188
  C:85D5H         LINE#         189
  C:85D8H         LINE#         190
  C:85DDH         LINE#         191
  C:85E0H         LINE#         192
  C:85E3H         LINE#         193
  C:85E8H         LINE#         194
  C:85EBH         LINE#         195
  C:85FAH         LINE#         196
  C:85FAH         LINE#         197
  C:8606H         LINE#         198
  C:860DH         LINE#         199
  C:8610H         LINE#         200
  C:8617H         LINE#         201
  C:8619H         LINE#         202
  C:8620H         LINE#         203
  C:8623H         LINE#         204
  C:8626H         LINE#         205
  C:862BH         LINE#         206
  -------         ENDPROC       _READBUF_AT24C02
  -------         ENDMOD        EEPROM

  -------         MODULE        SYSSTATUS
  C:0000H         SYMBOL        _ICE_DUMMY_
  D:0080H         PUBLIC        P0
  D:0090H         PUBLIC        P1
  C:873FH         PUBLIC        _ReadRoomByIdx
  D:00A0H         PUBLIC        P2
  D:00B0H         PUBLIC        P3
  D:00C0H         PUBLIC        P4
  D:00C8H         PUBLIC        P5
  D:00E8H         PUBLIC        P6
  D:00F8H         PUBLIC        P7
  D:00A8H         PUBLIC        IE
  C:6D69H         PUBLIC        _InputSysPsw
  X:114DH         PUBLIC        IdleTime
  X:114FH         PUBLIC        NameItemCall
  X:119FH         PUBLIC        Volum
  D:00B8H         PUBLIC        IP
  D:00D8H         PUBLIC        CCON
  C:7C2DH         PUBLIC        _GetIdxByRoom
  X:11A0H         PUBLIC        MainShow
  C:93D6H         PUBLIC        InputSysPswCon
  X:11A1H         PUBLIC        InputRoom
  X:11A3H         PUBLIC        InputLen
  D:0098H         PUBLIC        SCON
  D:0088H         PUBLIC        TCON
  B:00E8H.1       PUBLIC        P61
  X:11A4H         PUBLIC        InputIdx
  X:11A5H         PUBLIC        InputMax
  C:84FAH         PUBLIC        _SysCard
  C:765CH         PUBLIC        InitUserPara
  D:00F0H         PUBLIC        B
  X:11A7H         PUBLIC        UsrPara
BL51 BANKED LINKER/LOCATER V6.22.2.0                                                  08/04/2022  16:30:25  PAGE 72


  C:5171H         PUBLIC        _SaveSubPara
  C:5853H         PUBLIC        _SysSubSetKey
  C:8AF7H         PUBLIC        SysSettingCon
  X:11AFH         PUBLIC        SysPara
  D:00E0H         PUBLIC        ACC
  X:11CBH         PUBLIC        NameListIdx
  X:11CDH         PUBLIC        SysStatus
  X:11CEH         PUBLIC        CallTleIdx
  C:74CBH         PUBLIC        _SysSettingKey
  X:11CFH         PUBLIC        InputPsw
  C:8D55H         PUBLIC        _InputRoomCon
  C:4D6CH         PUBLIC        ShowSubPara
  C:8423H         PUBLIC        ShowInputRoom
  C:62A3H         PUBLIC        InitSysPara
  C:8EBCH         PUBLIC        SysIdleCon
  C:5B5EH         PUBLIC        _SysKey
  C:6543H         PUBLIC        _SysIdleKey
  C:7D3DH         PUBLIC        ShowInputPsw
  C:6C65H         PUBLIC        _SysInputRoom
  C:87E2H         PUBLIC        _SysTalkKey
  D:00D0H         PUBLIC        PSW
  C:5E58H         PUBLIC        _SubSetCon
  -------         PROC          INITSYSPARA
  B:0020H.0       SYMBOL        rst
  C:62A3H         LINE#         22
  C:62A3H         LINE#         23
  C:62A3H         LINE#         24
  C:62B8H         LINE#         25
  C:62C7H         LINE#         26
  C:62C7H         LINE#         27
  C:62D1H         LINE#         28
  C:62D8H         LINE#         29
  C:62DCH         LINE#         30
  C:62E0H         LINE#         31
  C:62E4H         LINE#         32
  C:62E6H         LINE#         33
  C:62EAH         LINE#         34
  C:62EEH         LINE#         35
  C:62F1H         LINE#         36
  C:62F5H         LINE#         37
  C:62FDH         LINE#         38
  C:630AH         LINE#         39
  C:631FH         LINE#         40
  C:631FH         LINE#         42
  C:6337H         LINE#         43
  C:6348H         LINE#         44
  C:6359H         LINE#         45
  C:636AH         LINE#         46
  C:637BH         LINE#         47
  C:638CH         LINE#         48
  C:639DH         LINE#         49
  C:63AEH         LINE#         50
  C:63BFH         LINE#         51
  C:63D6H         LINE#         53
  C:63DFH         LINE#         54
  C:63DFH         LINE#         55
  C:63E2H         LINE#         56
BL51 BANKED LINKER/LOCATER V6.22.2.0                                                  08/04/2022  16:30:25  PAGE 73


  C:63E2H         LINE#         57
  C:63EAH         LINE#         61
  C:63F0H         LINE#         62
  C:63F0H         LINE#         63
  C:63F2H         LINE#         64
  C:63F3H         LINE#         66
  C:63F3H         LINE#         67
  C:63F5H         LINE#         68
  C:63F5H         LINE#         69
  -------         ENDPROC       INITSYSPARA
  -------         PROC          INITUSERPARA
  C:765CH         LINE#         71
  C:765CH         LINE#         72
  C:765CH         LINE#         73
  C:7672H         LINE#         74
  C:7680H         LINE#         75
  C:7680H         LINE#         76
  C:768AH         LINE#         77
  C:768FH         LINE#         78
  C:7693H         LINE#         79
  C:7697H         LINE#         80
  C:76ACH         LINE#         81
  C:76ACH         LINE#         83
  C:76C4H         LINE#         84
  C:76DCH         LINE#         85
  C:76F4H         LINE#         87
  C:76F7H         LINE#         88
  C:76FAH         LINE#         89
  -------         ENDPROC       INITUSERPARA
  -------         PROC          _READROOMBYIDX
  D:0006H         SYMBOL        idx
  D:0005H         SYMBOL        type
  -------         DO            
  X:10E1H         SYMBOL        room
  D:0006H         SYMBOL        addr
  -------         ENDDO         
  C:873FH         LINE#         92
  C:873FH         LINE#         93
  C:873FH         LINE#         95
  C:873FH         LINE#         96
  C:874BH         LINE#         97
  C:874BH         LINE#         98
  C:874BH         LINE#         99
  C:8752H         LINE#         100
  C:8759H         LINE#         101
  C:875BH         LINE#         102
  C:875BH         LINE#         103
  C:8765H         LINE#         104
  C:8767H         LINE#         105
  C:8769H         LINE#         106
  C:8769H         LINE#         107
  C:8770H         LINE#         108
  C:8778H         LINE#         109
  C:8778H         LINE#         110
  C:8778H         LINE#         113
  C:878AH         LINE#         114
  C:8792H         LINE#         115
BL51 BANKED LINKER/LOCATER V6.22.2.0                                                  08/04/2022  16:30:25  PAGE 74


  -------         ENDPROC       _READROOMBYIDX
  -------         PROC          _GETIDXBYROOM
  X:10DAH         SYMBOL        room
  X:10DCH         SYMBOL        type
  -------         DO            
  X:10DDH         SYMBOL        i
  D:0006H         SYMBOL        DstRoom
  X:10DFH         SYMBOL        iMax
  -------         ENDDO         
  C:7C2DH         LINE#         117
  C:7C38H         LINE#         118
  C:7C38H         LINE#         119
  C:7C3DH         LINE#         122
  C:7C49H         LINE#         123
  C:7C49H         LINE#         124
  C:7C49H         LINE#         125
  C:7C4CH         LINE#         126
  C:7C4EH         LINE#         127
  C:7C4EH         LINE#         128
  C:7C51H         LINE#         129
  C:7C53H         LINE#         130
  C:7C53H         LINE#         131
  C:7C62H         LINE#         132
  C:7C62H         LINE#         133
  C:7C62H         LINE#         134
  C:7C78H         LINE#         135
  C:7C78H         LINE#         136
  C:7C80H         LINE#         137
  C:7C8CH         LINE#         138
  C:7C8CH         LINE#         139
  C:7C95H         LINE#         140
  C:7C95H         LINE#         141
  C:7C9DH         LINE#         142
  C:7C9DH         LINE#         143
  C:7C9DH         LINE#         144
  C:7C9DH         LINE#         145
  C:7CABH         LINE#         146
  C:7CADH         LINE#         147
  C:7CB1H         LINE#         148
  -------         ENDPROC       _GETIDXBYROOM
  -------         PROC          SYSIDLECON
  C:8EBCH         LINE#         153
  C:8EBCH         LINE#         154
  C:8EBCH         LINE#         155
  C:8EC2H         LINE#         156
  C:8ECAH         LINE#         157
  C:8ED1H         LINE#         158
  C:8ED5H         LINE#         159
  C:8EDBH         LINE#         160
  C:8EE1H         LINE#         161
  -------         ENDPROC       SYSIDLECON
  -------         PROC          SYSSETTINGCON
  C:8AF7H         LINE#         163
  C:8AF7H         LINE#         164
  C:8AF7H         LINE#         165
  C:8AFDH         LINE#         166
  C:8B00H         LINE#         167
BL51 BANKED LINKER/LOCATER V6.22.2.0                                                  08/04/2022  16:30:25  PAGE 75


  C:8B0DH         LINE#         168
  C:8B1AH         LINE#         169
  C:8B23H         LINE#         170
  C:8B2AH         LINE#         171
  C:8B2EH         LINE#         172
  -------         ENDPROC       SYSSETTINGCON
  -------         PROC          SHOWINPUTROOM
  -------         DO            
  X:107EH         SYMBOL        Disbuf
  -------         ENDDO         
  C:8423H         LINE#         174
  C:8423H         LINE#         175
  C:8423H         LINE#         177
  C:8426H         LINE#         178
  C:8433H         LINE#         186
  C:8448H         LINE#         187
  C:8448H         LINE#         188
  C:8462H         LINE#         189
  C:8464H         LINE#         191
  C:8464H         LINE#         192
  C:8482H         LINE#         193
  C:8482H         LINE#         194
  -------         ENDPROC       SHOWINPUTROOM
  -------         PROC          _INPUTROOMCON
  D:0007H         SYMBOL        key
  C:8D55H         LINE#         202
  C:8D55H         LINE#         203
  C:8D55H         LINE#         204
  C:8D5BH         LINE#         205
  C:8D65H         LINE#         206
  C:8D6BH         LINE#         207
  C:8D6EH         LINE#         208
  C:8D6EH         LINE#         209
  C:8D6FH         LINE#         210
  C:8D6FH         LINE#         211
  C:8D72H         LINE#         212
  C:8D7FH         LINE#         213
  -------         ENDPROC       _INPUTROOMCON
  -------         PROC          _SYSINPUTROOM
  X:107DH         SYMBOL        key
  C:6C65H         LINE#         216
  C:6C6AH         LINE#         217
  C:6C6AH         LINE#         218
  C:6C78H         LINE#         219
  C:6C78H         LINE#         220
  C:6C78H         LINE#         221
  C:6C88H         LINE#         222
  C:6C88H         LINE#         223
  C:6C99H         LINE#         224
  C:6C99H         LINE#         225
  C:6C9EH         LINE#         226
  C:6CAAH         LINE#         227
  C:6CAAH         LINE#         228
  C:6CAFH         LINE#         229
  C:6CB5H         LINE#         230
  C:6CB6H         LINE#         231
  C:6CC2H         LINE#         232
BL51 BANKED LINKER/LOCATER V6.22.2.0                                                  08/04/2022  16:30:25  PAGE 76


  C:6CC2H         LINE#         233
  C:6CC5H         LINE#         234
  C:6CC5H         LINE#         235
  C:6CC7H         LINE#         237
  C:6CC7H         LINE#         238
  C:6CCAH         LINE#         239
  C:6CD3H         LINE#         240
  C:6CD4H         LINE#         242
  C:6CD4H         LINE#         243
  C:6CD4H         LINE#         244
  C:6CD7H         LINE#         245
  C:6CDCH         LINE#         246
  C:6CE5H         LINE#         247
  C:6CECH         LINE#         248
  C:6CF0H         LINE#         249
  C:6CF2H         LINE#         250
  C:6CF2H         LINE#         251
  C:6CFBH         LINE#         252
  C:6CFBH         LINE#         253
  C:6CFEH         LINE#         254
  C:6D15H         LINE#         255
  C:6D18H         LINE#         256
  C:6D1AH         LINE#         258
  C:6D1AH         LINE#         260
  C:6D1DH         LINE#         262
  C:6D20H         LINE#         263
  C:6D20H         LINE#         264
  C:6D20H         LINE#         265
  C:6D20H         LINE#         266
  C:6D30H         LINE#         267
  C:6D30H         LINE#         268
  C:6D39H         LINE#         269
  C:6D39H         LINE#         270
  C:6D3CH         LINE#         271
  C:6D53H         LINE#         272
  C:6D65H         LINE#         273
  C:6D68H         LINE#         274
  C:6D68H         LINE#         275
  C:6D68H         LINE#         276
  -------         ENDPROC       _SYSINPUTROOM
  -------         PROC          L?0301
  -------         ENDPROC       L?0301
  -------         PROC          SHOWINPUTPSW
  -------         DO            
  X:107EH         SYMBOL        Disbuf
  D:0005H         SYMBOL        i
  D:0006H         SYMBOL        l
  -------         ENDDO         
  C:7D3DH         LINE#         279
  C:7D3DH         LINE#         280
  C:7D3DH         LINE#         283
  C:7D40H         LINE#         285
  C:7D47H         LINE#         286
  C:7D47H         LINE#         287
  C:7D54H         LINE#         288
  C:7D54H         LINE#         301
  C:7D6BH         LINE#         303
BL51 BANKED LINKER/LOCATER V6.22.2.0                                                  08/04/2022  16:30:25  PAGE 77


  C:7D77H         LINE#         304
  C:7D77H         LINE#         305
  C:7D8AH         LINE#         306
  C:7D8DH         LINE#         307
  C:7D9FH         LINE#         312
  C:7DABH         LINE#         316
  -------         ENDPROC       SHOWINPUTPSW
  -------         PROC          INPUTSYSPSWCON
  C:93D6H         LINE#         319
  C:93D6H         LINE#         320
  C:93D6H         LINE#         321
  C:93DCH         LINE#         322
  C:93E6H         LINE#         323
  C:93EBH         LINE#         324
  C:93EEH         LINE#         325
  -------         ENDPROC       INPUTSYSPSWCON
  -------         PROC          _INPUTSYSPSW
  X:107DH         SYMBOL        key
  C:6D69H         LINE#         328
  C:6D6EH         LINE#         329
  C:6D6EH         LINE#         330
  C:6D80H         LINE#         331
  C:6D80H         LINE#         332
  C:6D80H         LINE#         333
  C:6DA0H         LINE#         334
  C:6DA0H         LINE#         335
  C:6DBDH         LINE#         336
  C:6DBDH         LINE#         337
  C:6DC0H         LINE#         339
  C:6DC0H         LINE#         347
  C:6DC0H         LINE#         348
  C:6DC3H         LINE#         349
  C:6DC8H         LINE#         350
  C:6DD2H         LINE#         351
  C:6DD7H         LINE#         352
  C:6DD9H         LINE#         353
  C:6DD9H         LINE#         354
  C:6DE2H         LINE#         355
  C:6DE2H         LINE#         356
  C:6DE5H         LINE#         357
  C:6DFCH         LINE#         358
  C:6DFFH         LINE#         359
  C:6E01H         LINE#         361
  C:6E01H         LINE#         364
  C:6E04H         LINE#         366
  C:6E04H         LINE#         367
  C:6E04H         LINE#         368
  C:6E06H         LINE#         369
  C:6E06H         LINE#         370
  C:6E09H         LINE#         371
  C:6E09H         LINE#         372
  C:6E09H         LINE#         373
  C:6E19H         LINE#         374
  C:6E19H         LINE#         375
  C:6E22H         LINE#         376
  C:6E22H         LINE#         377
  C:6E25H         LINE#         378
BL51 BANKED LINKER/LOCATER V6.22.2.0                                                  08/04/2022  16:30:25  PAGE 78


  C:6E42H         LINE#         379
  C:6E65H         LINE#         380
  C:6E68H         LINE#         381
  C:6E68H         LINE#         382
  C:6E68H         LINE#         383
  -------         ENDPROC       _INPUTSYSPSW
  -------         PROC          _SYSIDLEKEY
  X:107DH         SYMBOL        key
  C:6543H         LINE#         385
  C:6548H         LINE#         386
  C:6548H         LINE#         387
  C:6562H         LINE#         388
  C:6562H         LINE#         389
  C:6562H         LINE#         395
  C:6562H         LINE#         396
  C:6565H         LINE#         397
  C:6565H         LINE#         398
  C:6568H         LINE#         399
  C:6568H         LINE#         400
  C:656BH         LINE#         401
  C:656EH         LINE#         402
  C:656EH         LINE#         403
  C:6571H         LINE#         404
  C:6574H         LINE#         405
  C:6574H         LINE#         406
  C:6587H         LINE#         407
  C:6587H         LINE#         408
  C:659CH         LINE#         409
  C:659CH         LINE#         410
  C:65A8H         LINE#         411
  C:65AAH         LINE#         413
  C:65AAH         LINE#         414
  C:65B1H         LINE#         415
  C:65B1H         LINE#         416
  C:65B1H         LINE#         417
  C:65B1H         LINE#         418
  C:65B3H         LINE#         419
  C:65B3H         LINE#         420
  C:65C6H         LINE#         421
  C:65C6H         LINE#         422
  C:65D3H         LINE#         423
  C:65D3H         LINE#         424
  C:65DBH         LINE#         425
  C:65DBH         LINE#         426
  C:65E6H         LINE#         427
  C:65E8H         LINE#         429
  C:65E8H         LINE#         430
  C:65F6H         LINE#         431
  C:65F6H         LINE#         432
  C:65F8H         LINE#         434
  C:65F8H         LINE#         435
  C:660CH         LINE#         436
  C:660CH         LINE#         437
  C:6617H         LINE#         438
  C:6617H         LINE#         439
  C:6619H         LINE#         440
  C:6619H         LINE#         441
BL51 BANKED LINKER/LOCATER V6.22.2.0                                                  08/04/2022  16:30:25  PAGE 79


  C:662FH         LINE#         442
  C:662FH         LINE#         443
  C:6634H         LINE#         444
  C:663DH         LINE#         445
  C:664AH         LINE#         446
  C:664AH         LINE#         447
  C:6650H         LINE#         448
  C:6655H         LINE#         449
  C:6657H         LINE#         450
  C:6663H         LINE#         451
  C:6663H         LINE#         452
  C:6666H         LINE#         453
  C:6666H         LINE#         454
  C:6668H         LINE#         456
  C:6668H         LINE#         457
  C:666BH         LINE#         458
  C:6674H         LINE#         459
  C:6674H         LINE#         460
  C:6676H         LINE#         462
  C:6676H         LINE#         463
  C:667BH         LINE#         464
  C:667BH         LINE#         465
  C:667BH         LINE#         466
  C:667BH         LINE#         467
  C:668BH         LINE#         468
  C:668BH         LINE#         469
  C:668EH         LINE#         470
  C:668EH         LINE#         471
  -------         ENDPROC       _SYSIDLEKEY
  -------         PROC          _SYSSETTINGKEY
  X:107DH         SYMBOL        key
  C:74CBH         LINE#         473
  C:74D0H         LINE#         474
  C:74D0H         LINE#         475
  C:74DCH         LINE#         476
  C:74DCH         LINE#         477
  C:74E5H         LINE#         478
  C:74E5H         LINE#         479
  C:74E8H         LINE#         480
  C:74FFH         LINE#         481
  C:750CH         LINE#         482
  C:751CH         LINE#         483
  C:751CH         LINE#         484
  C:751DH         LINE#         485
  C:751DH         LINE#         486
  C:751DH         LINE#         487
  C:751FH         LINE#         489
  C:751FH         LINE#         490
  C:752CH         LINE#         491
  C:7532H         LINE#         492
  C:7532H         LINE#         493
  C:7533H         LINE#         494
  C:753AH         LINE#         495
  C:753AH         LINE#         496
  C:753AH         LINE#         497
  C:753CH         LINE#         498
  C:7543H         LINE#         499
BL51 BANKED LINKER/LOCATER V6.22.2.0                                                  08/04/2022  16:30:25  PAGE 80


  C:7543H         LINE#         500
  C:7546H         LINE#         501
  C:7546H         LINE#         502
  C:754EH         LINE#         503
  C:754EH         LINE#         504
  C:7566H         LINE#         505
  C:7566H         LINE#         506
  C:756CH         LINE#         508
  C:756CH         LINE#         509
  C:758AH         LINE#         510
  C:758AH         LINE#         511
  C:758AH         LINE#         512
  C:758DH         LINE#         513
  C:758DH         LINE#         514
  C:758DH         LINE#         515
  C:7590H         LINE#         516
  C:7590H         LINE#         517
  C:7590H         LINE#         518
  C:7593H         LINE#         519
  C:7593H         LINE#         520
  C:7593H         LINE#         521
  C:7596H         LINE#         522
  C:7596H         LINE#         523
  C:7596H         LINE#         524
  C:759BH         LINE#         525
  C:759BH         LINE#         541
  C:759BH         LINE#         542
  C:759BH         LINE#         570
  -------         ENDPROC       _SYSSETTINGKEY
  -------         PROC          _SYSTALKKEY
  X:107DH         SYMBOL        key
  C:87E2H         LINE#         572
  C:87E7H         LINE#         573
  C:87E7H         LINE#         575
  C:87F3H         LINE#         576
  C:87F3H         LINE#         577
  C:87F6H         LINE#         579
  C:87F6H         LINE#         580
  C:8808H         LINE#         581
  C:8808H         LINE#         582
  C:8808H         LINE#         583
  C:8808H         LINE#         584
  C:880BH         LINE#         585
  C:880EH         LINE#         586
  C:880EH         LINE#         587
  C:880EH         LINE#         588
  C:8817H         LINE#         589
  C:8817H         LINE#         590
  C:8819H         LINE#         591
  C:8819H         LINE#         592
  C:8819H         LINE#         593
  C:881BH         LINE#         594
  C:881BH         LINE#         595
  C:8824H         LINE#         596
  C:8824H         LINE#         597
  C:8827H         LINE#         598
  C:882CH         LINE#         599
BL51 BANKED LINKER/LOCATER V6.22.2.0                                                  08/04/2022  16:30:25  PAGE 81


  C:882CH         LINE#         600
  C:882CH         LINE#         601
  C:882CH         LINE#         602
  -------         ENDPROC       _SYSTALKKEY
  -------         PROC          SHOWSUBPARA
  -------         DO            
  X:107EH         SYMBOL        Disbuf
  -------         ENDDO         
  C:4D6CH         LINE#         606
  C:4D6CH         LINE#         607
  C:4D6CH         LINE#         609
  C:4D6FH         LINE#         610
  C:4DA6H         LINE#         611
  C:4DA6H         LINE#         612
  C:4DA6H         LINE#         613
  C:4DBFH         LINE#         614
  C:4DC2H         LINE#         615
  C:4DC2H         LINE#         616
  C:4DDBH         LINE#         617
  C:4DDEH         LINE#         618
  C:4DDEH         LINE#         619
  C:4DF7H         LINE#         620
  C:4DFAH         LINE#         621
  C:4DFAH         LINE#         622
  C:4E13H         LINE#         623
  C:4E16H         LINE#         624
  C:4E16H         LINE#         625
  C:4E39H         LINE#         626
  C:4E43H         LINE#         627
  C:4E43H         LINE#         628
  C:4E45H         LINE#         629
  C:4E47H         LINE#         631
  C:4E47H         LINE#         632
  C:4E49H         LINE#         633
  C:4E49H         LINE#         634
  C:4E4BH         LINE#         635
  C:4E4BH         LINE#         636
  C:4E64H         LINE#         637
  C:4E66H         LINE#         638
  C:4E66H         LINE#         639
  C:4E7FH         LINE#         640
  C:4E81H         LINE#         641
  C:4E81H         LINE#         642
  C:4E9AH         LINE#         643
  C:4E9CH         LINE#         644
  C:4E9CH         LINE#         645
  C:4EBFH         LINE#         646
  C:4EBFH         LINE#         647
  C:4EBFH         LINE#         648
  C:4EC7H         LINE#         649
  C:4EC7H         LINE#         651
  C:4ED3H         LINE#         652
  C:4EF2H         LINE#         654
  C:4EF2H         LINE#         655
  C:4F00H         LINE#         656
  C:4F00H         LINE#         657
  C:4F0DH         LINE#         658
BL51 BANKED LINKER/LOCATER V6.22.2.0                                                  08/04/2022  16:30:25  PAGE 82


  C:4F2BH         LINE#         660
  C:4F2BH         LINE#         665
  C:4F38H         LINE#         666
  C:4F48H         LINE#         667
  C:4F48H         LINE#         668
  C:4F65H         LINE#         669
  C:4F80H         LINE#         670
  C:4F80H         LINE#         672
  -------         ENDPROC       SHOWSUBPARA
  -------         PROC          _SUBSETCON
  D:0007H         SYMBOL        type
  -------         DO            
  D:0006H         SYMBOL        tmp
  -------         ENDDO         
  C:5E58H         LINE#         674
  C:5E58H         LINE#         675
  C:5E58H         LINE#         677
  C:5E5DH         LINE#         678
  C:5E90H         LINE#         679
  C:5E90H         LINE#         680
  C:5E90H         LINE#         681
  C:5E96H         LINE#         682
  C:5EA0H         LINE#         683
  C:5EABH         LINE#         684
  C:5EAEH         LINE#         685
  C:5EAEH         LINE#         686
  C:5EB4H         LINE#         687
  C:5EBCH         LINE#         688
  C:5EC5H         LINE#         689
  C:5EC8H         LINE#         690
  C:5EC8H         LINE#         691
  C:5ECEH         LINE#         692
  C:5ED7H         LINE#         693
  C:5EE0H         LINE#         694
  C:5EE3H         LINE#         695
  C:5EE3H         LINE#         696
  C:5EE9H         LINE#         697
  C:5EF1H         LINE#         698
  C:5EFAH         LINE#         699
  C:5EFDH         LINE#         700
  C:5EFDH         LINE#         701
  C:5F03H         LINE#         702
  C:5F0BH         LINE#         703
  C:5F14H         LINE#         704
  C:5F16H         LINE#         705
  C:5F16H         LINE#         706
  C:5F1CH         LINE#         707
  C:5F25H         LINE#         708
  C:5F2EH         LINE#         709
  C:5F30H         LINE#         710
  C:5F30H         LINE#         711
  C:5F36H         LINE#         712
  C:5F3FH         LINE#         713
  C:5F48H         LINE#         714
  C:5F4AH         LINE#         715
  C:5F4AH         LINE#         716
  C:5F50H         LINE#         717
BL51 BANKED LINKER/LOCATER V6.22.2.0                                                  08/04/2022  16:30:25  PAGE 83


  C:5F59H         LINE#         718
  C:5F62H         LINE#         719
  C:5F64H         LINE#         720
  C:5F64H         LINE#         721
  C:5F6AH         LINE#         722
  C:5F73H         LINE#         723
  C:5F80H         LINE#         724
  C:5F80H         LINE#         725
  C:5F80H         LINE#         726
  C:5F85H         LINE#         727
  C:5F8DH         LINE#         728
  C:5F96H         LINE#         729
  C:5F96H         LINE#         730
  C:5F9CH         LINE#         731
  C:5FA3H         LINE#         732
  C:5FA5H         LINE#         733
  C:5FC1H         LINE#         734
  C:5FC1H         LINE#         735
  C:5FC7H         LINE#         736
  C:5FC7H         LINE#         737
  -------         ENDPROC       _SUBSETCON
  -------         PROC          _SAVESUBPARA
  D:0007H         SYMBOL        type
  X:107EH         SYMBOL        dat
  C:5171H         LINE#         740
  C:5179H         LINE#         741
  C:5179H         LINE#         742
  C:51ADH         LINE#         743
  C:51ADH         LINE#         744
  C:51ADH         LINE#         745
  C:51BCH         LINE#         746
  C:51D5H         LINE#         747
  C:51D8H         LINE#         748
  C:51D8H         LINE#         749
  C:51E1H         LINE#         750
  C:51F9H         LINE#         751
  C:51FCH         LINE#         752
  C:51FCH         LINE#         753
  C:5205H         LINE#         754
  C:521DH         LINE#         755
  C:5220H         LINE#         756
  C:5220H         LINE#         757
  C:5234H         LINE#         758
  C:524CH         LINE#         759
  C:524FH         LINE#         760
  C:524FH         LINE#         761
  C:5263H         LINE#         762
  C:527BH         LINE#         763
  C:527EH         LINE#         764
  C:527EH         LINE#         765
  C:5287H         LINE#         766
  C:529FH         LINE#         767
  C:52A1H         LINE#         768
  C:52A1H         LINE#         769
  C:52B4H         LINE#         770
  C:52B4H         LINE#         771
  C:52B9H         LINE#         772
BL51 BANKED LINKER/LOCATER V6.22.2.0                                                  08/04/2022  16:30:25  PAGE 84


  C:52D0H         LINE#         773
  C:52D0H         LINE#         774
  C:52D2H         LINE#         775
  C:52D2H         LINE#         776
  C:52E2H         LINE#         777
  C:52E2H         LINE#         778
  C:52E7H         LINE#         779
  C:5302H         LINE#         780
  C:5302H         LINE#         781
  C:5304H         LINE#         782
  C:5304H         LINE#         783
  C:5314H         LINE#         784
  C:5314H         LINE#         785
  C:5319H         LINE#         786
  C:5334H         LINE#         787
  C:533CH         LINE#         788
  C:533CH         LINE#         789
  C:533CH         LINE#         790
  C:533CH         LINE#         791
  -------         ENDPROC       _SAVESUBPARA
  -------         PROC          _SYSSUBSETKEY
  X:107DH         SYMBOL        key
  C:5853H         LINE#         794
  C:5858H         LINE#         795
  C:5858H         LINE#         796
  C:585FH         LINE#         797
  C:585FH         LINE#         798
  C:5861H         LINE#         800
  C:5861H         LINE#         801
  C:5871H         LINE#         802
  C:5871H         LINE#         803
  C:5871H         LINE#         804
  C:588AH         LINE#         805
  C:588AH         LINE#         806
  C:5890H         LINE#         807
  C:5890H         LINE#         808
  C:5892H         LINE#         809
  C:5894H         LINE#         811
  C:5894H         LINE#         812
  C:5896H         LINE#         813
  C:5896H         LINE#         814
  C:5898H         LINE#         816
  C:5898H         LINE#         818
  C:589EH         LINE#         819
  C:58B5H         LINE#         820
  C:58B8H         LINE#         821
  C:58BAH         LINE#         822
  C:58BAH         LINE#         823
  C:58BCH         LINE#         825
  C:58BCH         LINE#         826
  C:58C5H         LINE#         827
  C:58C5H         LINE#         828
  C:58D5H         LINE#         829
  C:58DBH         LINE#         830
  C:58DCH         LINE#         832
  C:58DCH         LINE#         833
  C:58DFH         LINE#         834
BL51 BANKED LINKER/LOCATER V6.22.2.0                                                  08/04/2022  16:30:25  PAGE 85


  C:58DFH         LINE#         836
  C:58DFH         LINE#         837
  C:58F5H         LINE#         838
  C:58F5H         LINE#         839
  C:5907H         LINE#         840
  C:5907H         LINE#         841
  C:590DH         LINE#         842
  C:5916H         LINE#         843
  C:5919H         LINE#         844
  C:5926H         LINE#         845
  C:5926H         LINE#         846
  C:5933H         LINE#         847
  C:5933H         LINE#         848
  C:5939H         LINE#         849
  C:593FH         LINE#         850
  C:593FH         LINE#         851
  C:5942H         LINE#         852
  C:5949H         LINE#         853
  C:5949H         LINE#         854
  C:5964H         LINE#         855
  C:5964H         LINE#         856
  C:596AH         LINE#         857
  C:596EH         LINE#         858
  C:596EH         LINE#         859
  C:5970H         LINE#         860
  C:5998H         LINE#         861
  C:5998H         LINE#         862
  C:599EH         LINE#         863
  C:59A6H         LINE#         864
  C:59B7H         LINE#         865
  C:59B7H         LINE#         866
  C:59C6H         LINE#         867
  C:59C8H         LINE#         869
  C:59C8H         LINE#         870
  C:59D7H         LINE#         871
  C:59D7H         LINE#         872
  C:59D7H         LINE#         873
  C:59D7H         LINE#         874
  C:59DAH         LINE#         875
  -------         ENDPROC       _SYSSUBSETKEY
  -------         PROC          _SYSKEY
  X:107CH         SYMBOL        Key
  C:5B5EH         LINE#         877
  C:5B63H         LINE#         878
  C:5B63H         LINE#         879
  C:5B6CH         LINE#         880
  C:5BE1H         LINE#         881
  C:5BE1H         LINE#         882
  C:5BE1H         LINE#         883
  C:5BE9H         LINE#         884
  C:5BECH         LINE#         885
  C:5BECH         LINE#         886
  C:5BF4H         LINE#         887
  C:5BF7H         LINE#         888
  C:5BF7H         LINE#         889
  C:5BFFH         LINE#         890
  C:5C02H         LINE#         891
BL51 BANKED LINKER/LOCATER V6.22.2.0                                                  08/04/2022  16:30:25  PAGE 86


  C:5C02H         LINE#         892
  C:5C0AH         LINE#         893
  C:5C0DH         LINE#         894
  C:5C0DH         LINE#         895
  C:5C15H         LINE#         896
  C:5C18H         LINE#         897
  C:5C18H         LINE#         898
  C:5C20H         LINE#         899
  C:5C23H         LINE#         900
  C:5C23H         LINE#         901
  C:5C2BH         LINE#         902
  C:5C2EH         LINE#         903
  C:5C2EH         LINE#         904
  C:5C36H         LINE#         905
  C:5C38H         LINE#         906
  C:5C38H         LINE#         907
  C:5C40H         LINE#         908
  C:5C42H         LINE#         909
  C:5C42H         LINE#         910
  C:5C4AH         LINE#         911
  C:5C4CH         LINE#         912
  C:5C4CH         LINE#         913
  C:5C54H         LINE#         914
  C:5C56H         LINE#         915
  C:5C56H         LINE#         916
  C:5C5EH         LINE#         917
  C:5C60H         LINE#         918
  C:5C60H         LINE#         919
  C:5C68H         LINE#         920
  C:5C6AH         LINE#         921
  C:5C6AH         LINE#         922
  C:5C72H         LINE#         923
  C:5C74H         LINE#         924
  C:5C74H         LINE#         925
  C:5C7CH         LINE#         926
  C:5C7EH         LINE#         927
  C:5C7EH         LINE#         928
  C:5C86H         LINE#         929
  C:5C88H         LINE#         930
  C:5C88H         LINE#         931
  C:5C90H         LINE#         932
  C:5C92H         LINE#         933
  C:5C92H         LINE#         934
  C:5C9AH         LINE#         935
  C:5C9CH         LINE#         936
  C:5C9CH         LINE#         937
  C:5C9CH         LINE#         938
  C:5CA4H         LINE#         939
  C:5CA6H         LINE#         940
  C:5CA6H         LINE#         941
  C:5CA6H         LINE#         942
  C:5CA6H         LINE#         943
  C:5CA6H         LINE#         944
  C:5CA6H         LINE#         945
  C:5CA6H         LINE#         946
  C:5CA6H         LINE#         947
  C:5CA6H         LINE#         948
BL51 BANKED LINKER/LOCATER V6.22.2.0                                                  08/04/2022  16:30:25  PAGE 87


  C:5CA6H         LINE#         949
  C:5CAEH         LINE#         950
  C:5CAEH         LINE#         956
  C:5CAEH         LINE#         957
  C:5CD4H         LINE#         958
  C:5CD4H         LINE#         959
  C:5CDDH         LINE#         960
  C:5CDDH         LINE#         961
  -------         ENDPROC       _SYSKEY
  -------         PROC          _SYSCARD
  X:107CH         SYMBOL        card
  C:84FAH         LINE#         963
  C:8505H         LINE#         964
  C:8505H         LINE#         965
  C:8518H         LINE#         966
  C:8518H         LINE#         967
  C:8518H         LINE#         968
  C:8518H         LINE#         969
  C:8526H         LINE#         970
  C:8526H         LINE#         971
  C:8526H         LINE#         972
  C:8526H         LINE#         973
  C:8526H         LINE#         974
  C:8526H         LINE#         975
  C:8526H         LINE#         976
  C:853CH         LINE#         977
  C:853CH         LINE#         978
  C:8548H         LINE#         979
  C:854AH         LINE#         981
  C:854AH         LINE#         982
  C:854DH         LINE#         983
  C:854DH         LINE#         984
  C:855BH         LINE#         985
  C:855BH         LINE#         986
  C:8564H         LINE#         987
  C:8564H         LINE#         988
  C:8564H         LINE#         990
  C:8564H         LINE#         991
  -------         ENDPROC       _SYSCARD
  -------         ENDMOD        SYSSTATUS

  -------         MODULE        UNLOCKPASSWORD
  C:0000H         SYMBOL        _ICE_DUMMY_
  D:0080H         PUBLIC        P0
  D:0090H         PUBLIC        P1
  D:00A0H         PUBLIC        P2
  D:00B0H         PUBLIC        P3
  D:00C0H         PUBLIC        P4
  D:00C8H         PUBLIC        P5
  D:00E8H         PUBLIC        P6
  D:00F8H         PUBLIC        P7
  C:82D6H         PUBLIC        PswSetCon
  D:00A8H         PUBLIC        IE
  C:9410H         PUBLIC        SaveSysPsw
  C:931AH         PUBLIC        _PswSetKey
  C:9542H         PUBLIC        _PswDelAllKey
  D:00B8H         PUBLIC        IP
BL51 BANKED LINKER/LOCATER V6.22.2.0                                                  08/04/2022  16:30:25  PAGE 88


  C:7FB3H         PUBLIC        _CheckPsw
  C:93F3H         PUBLIC        _ReadPswByIdx
  D:00D8H         PUBLIC        CCON
  C:977AH         PUBLIC        ClearPsw
  C:912BH         PUBLIC        EditSysPswCon
  C:8F6BH         PUBLIC        _WritePswByIdx
  C:90BCH         PUBLIC        _DelPswByRoom
  C:3CC7H         PUBLIC        _SysPswEditKey
  D:0098H         PUBLIC        SCON
  C:9106H         PUBLIC        DeletePswCon
  D:0088H         PUBLIC        TCON
  C:8267H         PUBLIC        _DelPswByIdx
  C:56A9H         PUBLIC        _PswDeleteKey
  D:00F0H         PUBLIC        B
  D:00E0H         PUBLIC        ACC
  C:95DEH         PUBLIC        DeleteAllPswCon
  C:96C1H         PUBLIC        InitPsw
  X:1367H         PUBLIC        PswEditItem
  C:7E3EH         PUBLIC        _AddPswItem
  X:1371H         SYMBOL        PswEditMidx
  C:924DH         PUBLIC        SavePswCount
  C:3351H         PUBLIC        _ShowPsw
  C:90E1H         PUBLIC        EditPswCon
  X:1372H         SYMBOL        PswEditIdx
  C:2119H         PUBLIC        _PswEditKey
  C:9206H         PUBLIC        InputPswCon
  C:668FH         PUBLIC        _PswInputKey
  D:00D0H         PUBLIC        PSW
  -------         PROC          SAVEPSWCOUNT
  C:924DH         LINE#         11
  C:924DH         LINE#         12
  C:924DH         LINE#         13
  -------         ENDPROC       SAVEPSWCOUNT
  -------         PROC          CLEARPSW
  C:977AH         LINE#         16
  C:977AH         LINE#         17
  C:977AH         LINE#         18
  C:9781H         LINE#         19
  -------         ENDPROC       CLEARPSW
  -------         PROC          INITPSW
  C:96C1H         LINE#         22
  C:96C1H         LINE#         23
  C:96C1H         LINE#         24
  C:96D0H         LINE#         25
  C:96D0H         LINE#         26
  C:96D3H         LINE#         27
  C:96D3H         LINE#         28
  -------         ENDPROC       INITPSW
  -------         PROC          L?0236
  -------         ENDPROC       L?0236
  -------         PROC          _WRITEPSWBYIDX
  D:0006H         SYMBOL        idx
  D:0001H         SYMBOL        pItem
  -------         DO            
  D:0006H         SYMBOL        addr
  -------         ENDDO         
  C:8F6BH         LINE#         30
BL51 BANKED LINKER/LOCATER V6.22.2.0                                                  08/04/2022  16:30:25  PAGE 89


  C:8F6BH         LINE#         31
  C:8F6BH         LINE#         32
  C:8F6BH         LINE#         33
  C:8F75H         LINE#         34
  -------         ENDPROC       _WRITEPSWBYIDX
  -------         PROC          _READPSWBYIDX
  D:0006H         SYMBOL        idx
  D:0001H         SYMBOL        pItem
  -------         DO            
  D:0006H         SYMBOL        addr
  -------         ENDDO         
  C:93F3H         LINE#         37
  C:93F3H         LINE#         38
  C:93F3H         LINE#         39
  C:93F3H         LINE#         40
  C:93FDH         LINE#         41
  -------         ENDPROC       _READPSWBYIDX
  -------         PROC          _CHECKPSW
  X:107EH         SYMBOL        psw
  -------         DO            
  X:1080H         SYMBOL        i
  X:1082H         SYMBOL        pItem
  -------         ENDDO         
  C:7FB3H         LINE#         56
  C:7FBBH         LINE#         57
  C:7FBBH         LINE#         58
  C:7FC0H         LINE#         60
  C:7FD1H         LINE#         61
  C:7FDBH         LINE#         62
  C:7FDBH         LINE#         63
  C:7FDDH         LINE#         64
  C:7FDDH         LINE#         65
  C:7FFAH         LINE#         66
  C:7FFAH         LINE#         67
  C:8003H         LINE#         68
  C:8017H         LINE#         69
  C:8017H         LINE#         70
  C:8019H         LINE#         71
  C:8019H         LINE#         72
  C:8029H         LINE#         73
  C:802AH         LINE#         74
  -------         ENDPROC       _CHECKPSW
  -------         PROC          _ADDPSWITEM
  X:1084H         SYMBOL        pItem
  -------         DO            
  X:1087H         SYMBOL        idx
  -------         ENDDO         
  C:7E3EH         LINE#         76
  C:7E49H         LINE#         77
  C:7E49H         LINE#         78
  C:7E4FH         LINE#         79
  C:7E62H         LINE#         81
  C:7E69H         LINE#         82
  C:7E69H         LINE#         83
  C:7E72H         LINE#         84
  C:7E7DH         LINE#         85
  C:7E86H         LINE#         86
BL51 BANKED LINKER/LOCATER V6.22.2.0                                                  08/04/2022  16:30:25  PAGE 90


  C:7E86H         LINE#         87
  C:7E96H         LINE#         88
  C:7E96H         LINE#         90
  C:7E99H         LINE#         91
  C:7EA7H         LINE#         92
  C:7EAAH         LINE#         93
  C:7EB9H         LINE#         94
  C:7EB9H         LINE#         96
  C:7EBDH         LINE#         97
  -------         ENDPROC       _ADDPSWITEM
  -------         PROC          _DELPSWBYIDX
  X:1082H         SYMBOL        idx
  -------         DO            
  X:1084H         SYMBOL        tmpItem
  -------         ENDDO         
  C:8267H         LINE#         99
  C:826FH         LINE#         100
  C:826FH         LINE#         102
  C:827DH         LINE#         103
  C:827DH         LINE#         104
  C:8291H         LINE#         105
  C:8291H         LINE#         106
  C:829FH         LINE#         107
  C:82A2H         LINE#         108
  C:82A2H         LINE#         110
  C:82A2H         LINE#         111
  C:82B0H         LINE#         112
  C:82B3H         LINE#         113
  C:82C4H         LINE#         114
  C:82D5H         LINE#         115
  C:82D5H         LINE#         116
  C:82D5H         LINE#         117
  -------         ENDPROC       _DELPSWBYIDX
  -------         PROC          _DELPSWBYROOM
  X:1080H         SYMBOL        room
  -------         DO            
  D:0006H         SYMBOL        idx
  -------         ENDDO         
  C:90BCH         LINE#         119
  C:90C4H         LINE#         120
  C:90C4H         LINE#         121
  C:90C6H         LINE#         122
  C:90CEH         LINE#         123
  C:90CEH         LINE#         124
  C:90D1H         LINE#         125
  C:90DEH         LINE#         126
  C:90E0H         LINE#         127
  -------         ENDPROC       _DELPSWBYROOM
  C:3349H         SYMBOL        L?0235
  -------         PROC          L?0234
  -------         ENDPROC       L?0234
  C:3349H         SYMBOL        L?0235
  -------         PROC          _SHOWPSW
  X:1084H         SYMBOL        pItem
  B:0020H.0       SYMBOL        edit
  -------         DO            
  X:1087H         SYMBOL        Disbuf
BL51 BANKED LINKER/LOCATER V6.22.2.0                                                  08/04/2022  16:30:25  PAGE 91


  X:10A7H         SYMBOL        i
  X:10A8H         SYMBOL        tmp
  -------         ENDDO         
  C:3351H         LINE#         133
  C:335CH         LINE#         134
  C:335CH         LINE#         137
  C:335FH         LINE#         138
  C:3366H         LINE#         139
  C:3366H         LINE#         140
  C:3372H         LINE#         141
  C:3375H         LINE#         142
  C:3380H         LINE#         144
  C:3380H         LINE#         145
  C:33A0H         LINE#         146
  C:33A0H         LINE#         149
  C:33A3H         LINE#         154
  C:33DEH         LINE#         155
  C:33E7H         LINE#         157
  C:33E9H         LINE#         159
  C:33E9H         LINE#         160
  C:33ECH         LINE#         162
  C:33ECH         LINE#         164
  C:33F2H         LINE#         165
  C:33F2H         LINE#         170
  C:3402H         LINE#         172
  C:3402H         LINE#         173
  C:3402H         LINE#         174
  C:3408H         LINE#         175
  C:3408H         LINE#         176
  C:3427H         LINE#         177
  C:3427H         LINE#         180
  C:3449H         LINE#         181
  C:345DH         LINE#         182
  C:347BH         LINE#         183
  C:347BH         LINE#         184
  C:3495H         LINE#         185
  C:34B2H         LINE#         186
  C:34BAH         LINE#         187
  C:34D3H         LINE#         188
  C:34DFH         LINE#         189
  C:34F4H         LINE#         190
  C:34F4H         LINE#         195
  C:34FAH         LINE#         197
  C:34FAH         LINE#         198
  C:34FCH         LINE#         200
  C:34FCH         LINE#         201
  C:3509H         LINE#         202
  C:351EH         LINE#         203
  C:351EH         LINE#         208
  C:352EH         LINE#         210
  C:352EH         LINE#         211
  C:352EH         LINE#         212
  C:3539H         LINE#         213
  C:3539H         LINE#         214
  C:3558H         LINE#         215
  C:3558H         LINE#         218
  C:357AH         LINE#         219
BL51 BANKED LINKER/LOCATER V6.22.2.0                                                  08/04/2022  16:30:25  PAGE 92


  C:358EH         LINE#         220
  C:35ACH         LINE#         221
  C:35ACH         LINE#         222
  C:35C6H         LINE#         223
  C:35E3H         LINE#         224
  C:35EBH         LINE#         225
  C:3604H         LINE#         226
  C:3610H         LINE#         227
  C:361DH         LINE#         228
  C:3632H         LINE#         229
  C:3632H         LINE#         234
  C:3638H         LINE#         236
  C:3638H         LINE#         237
  C:363AH         LINE#         239
  C:363AH         LINE#         240
  C:3647H         LINE#         241
  C:3654H         LINE#         242
  C:3669H         LINE#         243
  C:3669H         LINE#         248
  C:3679H         LINE#         250
  C:3679H         LINE#         251
  C:3679H         LINE#         252
  C:3679H         LINE#         253
  C:3679H         LINE#         254
  -------         ENDPROC       _SHOWPSW
  -------         PROC          EDITPSWCON
  C:90E1H         LINE#         256
  C:90E1H         LINE#         257
  C:90E1H         LINE#         258
  C:90EEH         LINE#         259
  C:90F3H         LINE#         260
  C:90F5H         LINE#         261
  C:90FBH         LINE#         262
  -------         ENDPROC       EDITPSWCON
  -------         PROC          _PSWEDITKEY
  X:107DH         SYMBOL        key
  -------         DO            
  X:107EH         SYMBOL        tmp
  X:1080H         SYMBOL        tmpItem
  B:0021H.5       SYMBOL        Saved
  -------         ENDDO         
  C:2119H         LINE#         265
  C:211EH         LINE#         266
  C:211EH         LINE#         270
  C:2125H         LINE#         271
  C:2125H         LINE#         272
  C:2130H         LINE#         273
  C:2130H         LINE#         274
  C:2133H         LINE#         275
  C:2133H         LINE#         276
  C:213FH         LINE#         277
  C:2144H         LINE#         278
  C:2147H         LINE#         280
  C:2147H         LINE#         281
  C:218EH         LINE#         284
  C:218EH         LINE#         285
  C:219DH         LINE#         286
BL51 BANKED LINKER/LOCATER V6.22.2.0                                                  08/04/2022  16:30:25  PAGE 93


  C:21AEH         LINE#         287
  C:21BFH         LINE#         288
  C:21BFH         LINE#         289
  C:21C2H         LINE#         290
  C:21C4H         LINE#         292
  C:21C4H         LINE#         293
  C:21C7H         LINE#         294
  C:21C7H         LINE#         295
  C:21D4H         LINE#         296
  C:21D6H         LINE#         297
  C:21E0H         LINE#         298
  C:21EAH         LINE#         299
  C:21EBH         LINE#         301
  C:21EBH         LINE#         302
  C:21EEH         LINE#         303
  C:21EEH         LINE#         305
  C:21EEH         LINE#         306
  C:21EEH         LINE#         307
  C:21F4H         LINE#         308
  C:21F9H         LINE#         309
  C:21FCH         LINE#         310
  C:220DH         LINE#         311
  C:220DH         LINE#         312
  C:220DH         LINE#         313
  C:2212H         LINE#         314
  C:221FH         LINE#         315
  C:2232H         LINE#         316
  C:2232H         LINE#         317
  C:2238H         LINE#         318
  C:2247H         LINE#         319
  C:2249H         LINE#         320
  C:2249H         LINE#         321
  C:2249H         LINE#         322
  C:224CH         LINE#         323
  C:224CH         LINE#         330
  C:224EH         LINE#         331
  C:224EH         LINE#         332
  C:2258H         LINE#         333
  C:225DH         LINE#         340
  C:2260H         LINE#         341
  C:2260H         LINE#         342
  C:2263H         LINE#         343
  C:2266H         LINE#         345
  C:2266H         LINE#         346
  C:2266H         LINE#         347
  C:2271H         LINE#         348
  C:2271H         LINE#         349
  C:228BH         LINE#         350
  C:228BH         LINE#         351
  C:228BH         LINE#         352
  C:2294H         LINE#         353
  C:2294H         LINE#         354
  C:2297H         LINE#         355
  C:22AEH         LINE#         356
  C:22B1H         LINE#         358
  C:22B1H         LINE#         359
  C:22B4H         LINE#         361
BL51 BANKED LINKER/LOCATER V6.22.2.0                                                  08/04/2022  16:30:25  PAGE 94


  C:22B4H         LINE#         362
  C:22B4H         LINE#         363
  C:22B4H         LINE#         364
  C:22BDH         LINE#         365
  C:22BDH         LINE#         366
  C:22C0H         LINE#         367
  C:22DAH         LINE#         368
  C:22DCH         LINE#         370
  C:22DCH         LINE#         371
  C:22E2H         LINE#         372
  C:22E5H         LINE#         373
  C:22F2H         LINE#         374
  C:2305H         LINE#         375
  C:2305H         LINE#         376
  C:230BH         LINE#         377
  C:231AH         LINE#         378
  C:231CH         LINE#         379
  C:231CH         LINE#         380
  C:231CH         LINE#         381
  C:231CH         LINE#         382
  C:2325H         LINE#         383
  C:2325H         LINE#         384
  C:2328H         LINE#         385
  C:2345H         LINE#         386
  C:2348H         LINE#         388
  C:2348H         LINE#         389
  C:234EH         LINE#         390
  C:2351H         LINE#         391
  C:2360H         LINE#         392
  C:2370H         LINE#         393
  C:2370H         LINE#         394
  C:2376H         LINE#         395
  C:2385H         LINE#         396
  C:2387H         LINE#         397
  C:2387H         LINE#         398
  C:2387H         LINE#         399
  C:2387H         LINE#         400
  C:238CH         LINE#         401
  C:238EH         LINE#         402
  C:239BH         LINE#         403
  C:23ABH         LINE#         404
  C:23ABH         LINE#         405
  C:23B1H         LINE#         406
  C:23C0H         LINE#         407
  C:23C2H         LINE#         408
  C:23C2H         LINE#         409
  C:23C2H         LINE#         410
  C:23C2H         LINE#         411
  C:23C9H         LINE#         412
  C:23C9H         LINE#         413
  C:23CCH         LINE#         415
  C:23CCH         LINE#         417
  C:23E2H         LINE#         418
  C:23E2H         LINE#         419
  C:23F6H         LINE#         420
  C:23F6H         LINE#         421
  C:23F6H         LINE#         422
BL51 BANKED LINKER/LOCATER V6.22.2.0                                                  08/04/2022  16:30:25  PAGE 95


  C:23FFH         LINE#         423
  C:23FFH         LINE#         424
  C:2416H         LINE#         425
  C:2429H         LINE#         426
  C:242FH         LINE#         427
  C:243EH         LINE#         428
  C:243EH         LINE#         429
  C:2443H         LINE#         430
  C:2448H         LINE#         431
  C:2448H         LINE#         432
  C:2448H         LINE#         433
  C:2455H         LINE#         434
  C:2455H         LINE#         435
  C:2455H         LINE#         436
  C:2455H         LINE#         437
  C:2458H         LINE#         438
  C:2458H         LINE#         439
  C:2461H         LINE#         440
  C:2461H         LINE#         441
  C:247EH         LINE#         442
  C:24A7H         LINE#         443
  C:24ADH         LINE#         444
  C:24ADH         LINE#         445
  C:24C6H         LINE#         446
  C:24C6H         LINE#         447
  C:24C6H         LINE#         448
  C:24C6H         LINE#         449
  C:24C8H         LINE#         450
  C:24C8H         LINE#         451
  C:24D1H         LINE#         452
  C:24D1H         LINE#         453
  C:24EEH         LINE#         454
  C:2517H         LINE#         455
  C:251DH         LINE#         456
  C:251DH         LINE#         457
  C:2536H         LINE#         458
  C:2536H         LINE#         459
  C:253AH         LINE#         460
  C:253AH         LINE#         461
  C:253AH         LINE#         462
  C:253AH         LINE#         463
  C:253AH         LINE#         464
  C:253DH         LINE#         465
  -------         ENDPROC       _PSWEDITKEY
  -------         PROC          DELETEPSWCON
  C:9106H         LINE#         467
  C:9106H         LINE#         468
  C:9106H         LINE#         469
  C:9113H         LINE#         470
  C:9118H         LINE#         471
  C:911AH         LINE#         472
  C:9120H         LINE#         473
  -------         ENDPROC       DELETEPSWCON
  -------         PROC          _PSWDELETEKEY
  X:107DH         SYMBOL        key
  -------         DO            
  X:107EH         SYMBOL        tmp
BL51 BANKED LINKER/LOCATER V6.22.2.0                                                  08/04/2022  16:30:25  PAGE 96


  B:0021H.6       SYMBOL        Saved
  -------         ENDDO         
  C:56A9H         LINE#         476
  C:56AEH         LINE#         477
  C:56AEH         LINE#         480
  C:56B5H         LINE#         481
  C:56B5H         LINE#         482
  C:56BDH         LINE#         483
  C:56BDH         LINE#         484
  C:56C0H         LINE#         485
  C:56C0H         LINE#         486
  C:56CCH         LINE#         487
  C:56D1H         LINE#         488
  C:56D3H         LINE#         490
  C:56D3H         LINE#         491
  C:56E6H         LINE#         492
  C:56E6H         LINE#         493
  C:56E9H         LINE#         494
  C:56F6H         LINE#         495
  C:56F8H         LINE#         496
  C:56FBH         LINE#         497
  C:56FBH         LINE#         499
  C:56FBH         LINE#         500
  C:56FBH         LINE#         501
  C:5701H         LINE#         502
  C:5706H         LINE#         503
  C:5709H         LINE#         504
  C:5713H         LINE#         505
  C:5713H         LINE#         506
  C:5713H         LINE#         507
  C:5718H         LINE#         508
  C:5725H         LINE#         509
  C:5738H         LINE#         510
  C:5738H         LINE#         511
  C:573EH         LINE#         512
  C:574DH         LINE#         513
  C:574FH         LINE#         514
  C:574FH         LINE#         515
  C:574FH         LINE#         516
  C:5752H         LINE#         517
  C:5755H         LINE#         519
  C:5755H         LINE#         520
  C:5755H         LINE#         521
  C:575DH         LINE#         522
  C:575DH         LINE#         523
  C:5767H         LINE#         524
  C:5767H         LINE#         525
  C:5767H         LINE#         526
  C:5770H         LINE#         527
  C:5770H         LINE#         528
  C:5773H         LINE#         529
  C:578AH         LINE#         530
  C:578CH         LINE#         535
  C:578CH         LINE#         536
  C:578CH         LINE#         537
  C:578CH         LINE#         538
  C:5791H         LINE#         539
BL51 BANKED LINKER/LOCATER V6.22.2.0                                                  08/04/2022  16:30:25  PAGE 97


  C:5793H         LINE#         540
  C:57A0H         LINE#         541
  C:57B0H         LINE#         542
  C:57B0H         LINE#         543
  C:57B6H         LINE#         544
  C:57C5H         LINE#         545
  C:57C7H         LINE#         546
  C:57C7H         LINE#         547
  C:57C7H         LINE#         548
  C:57C7H         LINE#         549
  C:57CEH         LINE#         550
  C:57CEH         LINE#         551
  C:57D1H         LINE#         553
  C:57D1H         LINE#         555
  C:57E1H         LINE#         556
  C:57E1H         LINE#         557
  C:57E7H         LINE#         558
  C:57E7H         LINE#         559
  C:57E7H         LINE#         560
  C:57F0H         LINE#         561
  C:57F0H         LINE#         562
  C:5807H         LINE#         563
  C:581AH         LINE#         564
  C:5820H         LINE#         565
  C:582FH         LINE#         566
  C:582FH         LINE#         567
  C:5834H         LINE#         568
  C:5839H         LINE#         569
  C:5839H         LINE#         570
  C:5839H         LINE#         571
  C:5843H         LINE#         572
  C:5843H         LINE#         573
  C:5847H         LINE#         574
  C:5847H         LINE#         575
  C:5847H         LINE#         576
  C:5847H         LINE#         577
  C:5847H         LINE#         578
  C:5852H         LINE#         579
  -------         ENDPROC       _PSWDELETEKEY
  -------         PROC          DELETEALLPSWCON
  C:95DEH         LINE#         581
  C:95DEH         LINE#         582
  C:95DEH         LINE#         583
  C:95E4H         LINE#         584
  C:95E7H         LINE#         585
  -------         ENDPROC       DELETEALLPSWCON
  -------         PROC          _PSWDELALLKEY
  D:0007H         SYMBOL        key
  C:9542H         LINE#         587
  C:9542H         LINE#         588
  C:9542H         LINE#         589
  C:954FH         LINE#         590
  C:954FH         LINE#         591
  C:954FH         LINE#         592
  C:9552H         LINE#         593
  C:9555H         LINE#         594
  C:9555H         LINE#         595
BL51 BANKED LINKER/LOCATER V6.22.2.0                                                  08/04/2022  16:30:25  PAGE 98


  C:9555H         LINE#         596
  C:9555H         LINE#         597
  C:9558H         LINE#         598
  C:9558H         LINE#         599
  C:9558H         LINE#         600
  -------         ENDPROC       _PSWDELALLKEY
  -------         PROC          PSWSETCON
  -------         DO            
  X:1084H         SYMBOL        Disbuf
  -------         ENDDO         
  C:82D6H         LINE#         602
  C:82D6H         LINE#         603
  C:82D6H         LINE#         606
  C:82DCH         LINE#         608
  C:82DFH         LINE#         609
  C:82EBH         LINE#         610
  C:82F8H         LINE#         611
  C:8305H         LINE#         612
  C:8312H         LINE#         613
  C:8338H         LINE#         617
  -------         ENDPROC       PSWSETCON
  -------         PROC          _PSWSETKEY
  D:0007H         SYMBOL        key
  C:931AH         LINE#         621
  C:931AH         LINE#         622
  C:931AH         LINE#         623
  C:932EH         LINE#         624
  C:932EH         LINE#         625
  C:932EH         LINE#         626
  C:9331H         LINE#         627
  C:9331H         LINE#         628
  C:9331H         LINE#         629
  C:9334H         LINE#         630
  C:9334H         LINE#         631
  C:9334H         LINE#         632
  C:9337H         LINE#         633
  C:9337H         LINE#         634
  C:9337H         LINE#         635
  C:9337H         LINE#         636
  C:933AH         LINE#         637
  C:933AH         LINE#         638
  C:933AH         LINE#         639
  -------         ENDPROC       _PSWSETKEY
  -------         PROC          INPUTPSWCON
  C:9206H         LINE#         641
  C:9206H         LINE#         642
  C:9206H         LINE#         643
  C:9213H         LINE#         644
  C:9219H         LINE#         645
  C:921CH         LINE#         646
  C:9222H         LINE#         647
  C:9225H         LINE#         649
  -------         ENDPROC       INPUTPSWCON
  -------         PROC          _PSWINPUTKEY
  X:107DH         SYMBOL        key
  C:668FH         LINE#         652
  C:6694H         LINE#         653
BL51 BANKED LINKER/LOCATER V6.22.2.0                                                  08/04/2022  16:30:25  PAGE 99


  C:6694H         LINE#         654
  C:6698H         LINE#         655
  C:6698H         LINE#         656
  C:669FH         LINE#         657
  C:669FH         LINE#         673
  C:669FH         LINE#         674
  C:66A8H         LINE#         675
  C:66A8H         LINE#         676
  C:66ABH         LINE#         677
  C:66C8H         LINE#         678
  C:66CAH         LINE#         691
  C:66CAH         LINE#         692
  C:66CAH         LINE#         693
  C:66CAH         LINE#         694
  C:66CAH         LINE#         695
  C:66D1H         LINE#         696
  C:66D1H         LINE#         697
  C:66D4H         LINE#         699
  C:66D4H         LINE#         701
  C:66EAH         LINE#         702
  C:66EAH         LINE#         703
  C:66F4H         LINE#         704
  C:66F4H         LINE#         717
  C:66F4H         LINE#         718
  C:66FDH         LINE#         719
  C:66FDH         LINE#         720
  C:671AH         LINE#         721
  C:6743H         LINE#         722
  C:6749H         LINE#         723
  C:6749H         LINE#         724
  C:6762H         LINE#         725
  C:6762H         LINE#         726
  C:6766H         LINE#         727
  C:6766H         LINE#         731
  C:676EH         LINE#         732
  C:676EH         LINE#         734
  C:676EH         LINE#         736
  C:677DH         LINE#         737
  C:677DH         LINE#         738
  C:6789H         LINE#         739
  C:6792H         LINE#         740
  C:679CH         LINE#         741
  C:67A3H         LINE#         742
  C:67A7H         LINE#         743
  C:67ADH         LINE#         745
  C:67ADH         LINE#         747
  C:67ADH         LINE#         748
  C:67B7H         LINE#         749
  C:67BCH         LINE#         750
  C:67C1H         LINE#         751
  C:67C4H         LINE#         752
  C:67C9H         LINE#         753
  C:67D2H         LINE#         754
  C:67D2H         LINE#         755
  C:67D3H         LINE#         766
  C:67D3H         LINE#         767
  C:67D3H         LINE#         768
BL51 BANKED LINKER/LOCATER V6.22.2.0                                                  08/04/2022  16:30:25  PAGE 100


  C:67D3H         LINE#         769
  C:67D3H         LINE#         770
  C:67D6H         LINE#         771
  -------         ENDPROC       _PSWINPUTKEY
  -------         PROC          EDITSYSPSWCON
  C:912BH         LINE#         774
  C:912BH         LINE#         775
  C:912BH         LINE#         776
  C:9138H         LINE#         777
  C:913DH         LINE#         778
  C:913FH         LINE#         779
  C:9145H         LINE#         780
  -------         ENDPROC       EDITSYSPSWCON
  -------         PROC          SAVESYSPSW
  C:9410H         LINE#         782
  C:9410H         LINE#         783
  C:9410H         LINE#         784
  -------         ENDPROC       SAVESYSPSW
  -------         PROC          _SYSPSWEDITKEY
  X:107DH         SYMBOL        key
  -------         DO            
  D:0006H         SYMBOL        tmp
  B:0021H.7       SYMBOL        Saved
  -------         ENDDO         
  C:3CC7H         LINE#         787
  C:3CCCH         LINE#         788
  C:3CCCH         LINE#         791
  C:3CD3H         LINE#         792
  C:3CD3H         LINE#         793
  C:3CDEH         LINE#         794
  C:3CDEH         LINE#         795
  C:3CE1H         LINE#         796
  C:3CE1H         LINE#         797
  C:3CEDH         LINE#         798
  C:3CF2H         LINE#         799
  C:3CF5H         LINE#         801
  C:3CF5H         LINE#         802
  C:3D2BH         LINE#         804
  C:3D2BH         LINE#         805
  C:3D3FH         LINE#         806
  C:3D42H         LINE#         807
  C:3D45H         LINE#         808
  C:3D52H         LINE#         809
  C:3D54H         LINE#         810
  C:3D5EH         LINE#         811
  C:3D68H         LINE#         812
  C:3D69H         LINE#         814
  C:3D69H         LINE#         815
  C:3D73H         LINE#         816
  C:3D7DH         LINE#         817
  C:3D80H         LINE#         818
  C:3D80H         LINE#         820
  C:3D80H         LINE#         821
  C:3D80H         LINE#         822
  C:3D90H         LINE#         823
  C:3D90H         LINE#         825
  C:3D90H         LINE#         826
BL51 BANKED LINKER/LOCATER V6.22.2.0                                                  08/04/2022  16:30:25  PAGE 101


  C:3D96H         LINE#         827
  C:3D9FH         LINE#         828
  C:3DA2H         LINE#         829
  C:3DB0H         LINE#         830
  C:3DB0H         LINE#         831
  C:3DB0H         LINE#         832
  C:3DB3H         LINE#         833
  C:3DB3H         LINE#         834
  C:3DB5H         LINE#         835
  C:3DB5H         LINE#         836
  C:3DBFH         LINE#         837
  C:3DC4H         LINE#         838
  C:3DC7H         LINE#         839
  C:3DC7H         LINE#         840
  C:3DCAH         LINE#         841
  C:3DCDH         LINE#         843
  C:3DCDH         LINE#         844
  C:3DCDH         LINE#         845
  C:3DD8H         LINE#         846
  C:3DD8H         LINE#         847
  C:3DECH         LINE#         848
  C:3DECH         LINE#         849
  C:3DECH         LINE#         850
  C:3DF5H         LINE#         851
  C:3DF5H         LINE#         852
  C:3DF8H         LINE#         853
  C:3E12H         LINE#         854
  C:3E14H         LINE#         856
  C:3E14H         LINE#         857
  C:3E16H         LINE#         859
  C:3E16H         LINE#         860
  C:3E16H         LINE#         861
  C:3E16H         LINE#         862
  C:3E1FH         LINE#         863
  C:3E1FH         LINE#         864
  C:3E22H         LINE#         865
  C:3E3FH         LINE#         866
  C:3E41H         LINE#         868
  C:3E41H         LINE#         869
  C:3E47H         LINE#         870
  C:3E4AH         LINE#         871
  C:3E54H         LINE#         872
  C:3E5DH         LINE#         873
  C:3E5DH         LINE#         874
  C:3E63H         LINE#         875
  C:3E6AH         LINE#         876
  C:3E6CH         LINE#         877
  C:3E6CH         LINE#         878
  C:3E6CH         LINE#         879
  C:3E6CH         LINE#         880
  C:3E71H         LINE#         881
  C:3E73H         LINE#         882
  C:3E75H         LINE#         883
  C:3E75H         LINE#         884
  C:3E75H         LINE#         885
  C:3E7CH         LINE#         886
  C:3E7CH         LINE#         887
BL51 BANKED LINKER/LOCATER V6.22.2.0                                                  08/04/2022  16:30:25  PAGE 102


  C:3E7FH         LINE#         889
  C:3E7FH         LINE#         891
  C:3E95H         LINE#         892
  C:3E95H         LINE#         893
  C:3EA2H         LINE#         894
  C:3EA2H         LINE#         895
  C:3EA2H         LINE#         896
  C:3EABH         LINE#         897
  C:3EABH         LINE#         898
  C:3EC8H         LINE#         899
  C:3EF1H         LINE#         900
  C:3EF7H         LINE#         901
  C:3EF7H         LINE#         902
  C:3F10H         LINE#         903
  C:3F10H         LINE#         904
  C:3F10H         LINE#         905
  C:3F10H         LINE#         906
  C:3F12H         LINE#         907
  C:3F12H         LINE#         908
  C:3F1BH         LINE#         909
  C:3F1BH         LINE#         910
  C:3F38H         LINE#         911
  C:3F61H         LINE#         912
  C:3F67H         LINE#         913
  C:3F67H         LINE#         914
  C:3F80H         LINE#         915
  C:3F80H         LINE#         916
  C:3F84H         LINE#         917
  C:3F84H         LINE#         918
  C:3F84H         LINE#         919
  C:3F84H         LINE#         920
  C:3F84H         LINE#         921
  C:3F87H         LINE#         922
  -------         ENDPROC       _SYSPSWEDITKEY
  -------         ENDMOD        UNLOCKPASSWORD

  -------         MODULE        SYSSTRING
  C:0000H         SYMBOL        _ICE_DUMMY_
  C:29D9H         PUBLIC        StrTabErr
  C:2A6EH         PUBLIC        StrTabListCount
  D:0080H         PUBLIC        P0
  C:29D3H         PUBLIC        StrTabSaveOK
  D:0090H         PUBLIC        P1
  D:00A0H         PUBLIC        P2
  C:2AB1H         PUBLIC        StrTabDelAllCard
  D:00B0H         PUBLIC        P3
  D:00C0H         PUBLIC        P4
  D:00C8H         PUBLIC        P5
  C:29FAH         PUBLIC        StrTabDelOK
  C:2CA3H         PUBLIC        StrTabNum
  D:00E8H         PUBLIC        P6
  D:00F8H         PUBLIC        P7
  C:972CH         PUBLIC        ShowConfirmSave
  C:2CAAH         PUBLIC        StrTabSms
  C:2997H         PUBLIC        StrTabDelAllName
  C:2BB3H         PUBLIC        StrTabMain1
  C:2BC3H         PUBLIC        StrTabMain2
BL51 BANKED LINKER/LOCATER V6.22.2.0                                                  08/04/2022  16:30:25  PAGE 103


  C:973CH         PUBLIC        ShowConfirmDel
  D:00A8H         PUBLIC        IE
  C:2BD1H         PUBLIC        StrTabMain3
  C:2BDFH         PUBLIC        StrTabMain4
  C:2BE5H         PUBLIC        StrTabMain5
  C:2BEEH         PUBLIC        StrTabMain6
  C:2B4AH         PUBLIC        StrTabOn
  C:2BF8H         PUBLIC        StrTabMain7
  C:2C08H         PUBLIC        StrTabMain8
  C:94C8H         PUBLIC        ShowUnlock
  C:2C12H         PUBLIC        StrTabMain9
  C:9634H         PUBLIC        ShowDeleteOK
  D:00B8H         PUBLIC        IP
  C:2C40H         PUBLIC        StrTabRoomErr
  C:2B36H         PUBLIC        StrTabCamrea
  C:2B77H         PUBLIC        StrTabSimCardBusy
  C:2C7CH         PUBLIC        StrTabUnlockKey2
  D:00D8H         PUBLIC        CCON
  C:2B51H         PUBLIC        StrTabGsmErr
  C:975CH         PUBLIC        ShowReset
  C:7232H         PUBLIC        _ShowMain
  C:2B69H         PUBLIC        StrTabNotSimCard
  C:294AH         PUBLIC        FhChar
  C:2A85H         PUBLIC        StrTabCardSet1
  C:2A92H         PUBLIC        StrTabCardSet2
  C:2BA7H         PUBLIC        StrTabGsmCsqGood
  C:2AA0H         PUBLIC        StrTabCardSet3
  D:0098H         PUBLIC        SCON
  D:0088H         PUBLIC        TCON
  C:2968H         PUBLIC        StrTabNameSet1
  C:2978H         PUBLIC        StrTabNameSet2
  C:2986H         PUBLIC        StrTabNameSet3
  C:2C20H         PUBLIC        StrTabMain10
  C:2C30H         PUBLIC        StrTabMain11
  C:2B99H         PUBLIC        StrTabGsmCsqMed
  X:1353H         PUBLIC        DisBuf
  C:2A52H         PUBLIC        StrTabPsw1
  D:00F0H         PUBLIC        B
  C:2A07H         PUBLIC        StrTabDelAllPsw
  C:2A64H         PUBLIC        StrTabPsw2
  C:2A5CH         PUBLIC        StrTabPsw3
  C:2953H         PUBLIC        StrTabSysSet
  C:2ADAH         PUBLIC        StrTabUnlock
  C:894BH         PUBLIC        ShowTalkTime
  D:00E0H         PUBLIC        ACC
  C:9649H         PUBLIC        ShowCardErr
  C:961FH         PUBLIC        ShowErr
  C:960AH         PUBLIC        ShowSaveOK
  C:2AC8H         PUBLIC        StrTabCard
  C:2B84H         PUBLIC        StrTabGsmCsqErr
  C:2A75H         PUBLIC        StrTabSysPsw
  C:2AECH         PUBLIC        StrTabCall
  C:2B3EH         PUBLIC        StrTabRelay
  C:29B9H         PUBLIC        StrTabName
  C:2C5AH         PUBLIC        StrTabReset
  C:2B8EH         PUBLIC        StrTabGsmCsqLow
  C:2C51H         PUBLIC        StrTabTalk
BL51 BANKED LINKER/LOCATER V6.22.2.0                                                  08/04/2022  16:30:25  PAGE 104


  C:2B0DH         PUBLIC        StrTabCallTime
  C:29E0H         PUBLIC        StrTabDel
  C:2C94H         PUBLIC        StrTabTalkValum
  C:2B18H         PUBLIC        StrTabTone
  C:974CH         PUBLIC        ShowRoomErr
  C:2C64H         PUBLIC        StrTabUnlockKey
  C:2A22H         PUBLIC        StrTabPswSet1
  C:2B4DH         PUBLIC        StrTabOff
  C:2A33H         PUBLIC        StrTabPswSet2
  C:2A44H         PUBLIC        StrTabPswSet3
  C:29AEH         PUBLIC        StrTabRoom
  C:2B5EH         PUBLIC        StrTabSimCardReady
  C:2AF6H         PUBLIC        StrTabTalkTime
  C:2963H         PUBLIC        StrTabSysSet1
  C:7CB2H         PUBLIC        ShowGsmCsq
  C:29C3H         PUBLIC        StrTabMakeSure
  C:965EH         PUBLIC        ShowGsmErr
  C:2B01H         PUBLIC        StrTabRingTime
  C:29BFH         PUBLIC        StrTabTel
  D:00D0H         PUBLIC        PSW
  C:2ACEH         PUBLIC        StrTabCardErr
  -------         PROC          SHOWCONFIRMSAVE
  C:972CH         LINE#         184
  C:972CH         LINE#         185
  C:972CH         LINE#         186
  C:972FH         LINE#         187
  -------         ENDPROC       SHOWCONFIRMSAVE
  -------         PROC          SHOWCONFIRMDEL
  C:973CH         LINE#         189
  C:973CH         LINE#         190
  C:973CH         LINE#         191
  C:973FH         LINE#         192
  -------         ENDPROC       SHOWCONFIRMDEL
  -------         PROC          SHOWSAVEOK
  C:960AH         LINE#         194
  C:960AH         LINE#         195
  C:960AH         LINE#         196
  C:960DH         LINE#         197
  C:961AH         LINE#         198
  -------         ENDPROC       SHOWSAVEOK
  -------         PROC          SHOWERR
  C:961FH         LINE#         200
  C:961FH         LINE#         201
  C:961FH         LINE#         202
  C:9622H         LINE#         203
  C:962FH         LINE#         204
  -------         ENDPROC       SHOWERR
  -------         PROC          SHOWDELETEOK
  C:9634H         LINE#         206
  C:9634H         LINE#         207
  C:9634H         LINE#         208
  C:9637H         LINE#         209
  C:9644H         LINE#         210
  -------         ENDPROC       SHOWDELETEOK
  -------         PROC          SHOWCARDERR
  C:9649H         LINE#         213
  C:9649H         LINE#         214
BL51 BANKED LINKER/LOCATER V6.22.2.0                                                  08/04/2022  16:30:25  PAGE 105


  C:9649H         LINE#         215
  C:964CH         LINE#         216
  C:9659H         LINE#         217
  -------         ENDPROC       SHOWCARDERR
  -------         PROC          SHOWUNLOCK
  B:0020H.1       SYMBOL        Sound
  C:94C8H         LINE#         219
  C:94C8H         LINE#         220
  C:94C8H         LINE#         221
  C:94CBH         LINE#         222
  C:94D8H         LINE#         223
  C:94DBH         LINE#         224
  C:94DBH         LINE#         225
  C:94E0H         LINE#         226
  C:94E0H         LINE#         227
  -------         ENDPROC       SHOWUNLOCK
  -------         PROC          SHOWGSMERR
  C:965EH         LINE#         229
  C:965EH         LINE#         230
  C:965EH         LINE#         231
  C:9661H         LINE#         232
  C:966EH         LINE#         233
  -------         ENDPROC       SHOWGSMERR
  -------         PROC          SHOWROOMERR
  C:974CH         LINE#         236
  C:974CH         LINE#         237
  C:974CH         LINE#         238
  C:974FH         LINE#         239
  -------         ENDPROC       SHOWROOMERR
  -------         PROC          SHOWGSMCSQ
  C:7CB2H         LINE#         243
  C:7CB2H         LINE#         244
  C:7CB2H         LINE#         245
  C:7CBAH         LINE#         246
  C:7CBAH         LINE#         248
  C:7CBAH         LINE#         249
  C:7CC6H         LINE#         250
  C:7CCDH         LINE#         251
  C:7CCDH         LINE#         252
  C:7CD5H         LINE#         254
  C:7CD5H         LINE#         255
  C:7CDCH         LINE#         256
  C:7CDCH         LINE#         257
  C:7CE4H         LINE#         259
  C:7CE4H         LINE#         260
  C:7CEBH         LINE#         261
  C:7CEBH         LINE#         262
  C:7CF3H         LINE#         264
  C:7CF3H         LINE#         265
  C:7D01H         LINE#         266
  C:7D01H         LINE#         267
  C:7D09H         LINE#         271
  C:7D09H         LINE#         274
  C:7D12H         LINE#         275
  C:7D12H         LINE#         276
  C:7D18H         LINE#         277
  C:7D1AH         LINE#         278
BL51 BANKED LINKER/LOCATER V6.22.2.0                                                  08/04/2022  16:30:25  PAGE 106


  C:7D25H         LINE#         279
  C:7D25H         LINE#         280
  C:7D29H         LINE#         281
  C:7D2BH         LINE#         283
  C:7D2BH         LINE#         284
  C:7D36H         LINE#         285
  C:7D36H         LINE#         297
  -------         ENDPROC       SHOWGSMCSQ
  -------         PROC          _SHOWMAIN
  X:1088H         SYMBOL        first
  C:7232H         LINE#         299
  C:7237H         LINE#         300
  C:7237H         LINE#         306
  C:723AH         LINE#         361
  C:7240H         LINE#         362
  C:7240H         LINE#         363
  C:724BH         LINE#         366
  C:7258H         LINE#         368
  C:7265H         LINE#         370
  C:7272H         LINE#         371
  C:7276H         LINE#         374
  C:7278H         LINE#         376
  C:7280H         LINE#         377
  C:7280H         LINE#         378
  C:728BH         LINE#         379
  C:7294H         LINE#         382
  C:72A1H         LINE#         386
  C:72AEH         LINE#         389
  C:72BBH         LINE#         390
  C:72C4H         LINE#         391
  C:72CDH         LINE#         393
  C:72CDH         LINE#         395
  C:72D5H         LINE#         396
  C:72D5H         LINE#         397
  C:72E0H         LINE#         398
  C:72E9H         LINE#         400
  C:72F6H         LINE#         401
  C:72FFH         LINE#         403
  C:730CH         LINE#         405
  C:730FH         LINE#         406
  C:730FH         LINE#         409
  -------         ENDPROC       _SHOWMAIN
  -------         PROC          SHOWTALKTIME
  C:894BH         LINE#         411
  C:894BH         LINE#         412
  C:894BH         LINE#         413
  C:894EH         LINE#         419
  C:8980H         LINE#         420
  -------         ENDPROC       SHOWTALKTIME
  -------         PROC          SHOWRESET
  C:975CH         LINE#         423
  C:975CH         LINE#         424
  C:975CH         LINE#         425
  C:975FH         LINE#         426
  -------         ENDPROC       SHOWRESET
  -------         ENDMOD        SYSSTRING

BL51 BANKED LINKER/LOCATER V6.22.2.0                                                  08/04/2022  16:30:25  PAGE 107


  -------         MODULE        CARD
  C:0000H         SYMBOL        _ICE_DUMMY_
  C:533FH         PUBLIC        _CardDeleteKey
  D:0080H         PUBLIC        P0
  D:0090H         PUBLIC        P1
  D:00A0H         PUBLIC        P2
  D:00B0H         PUBLIC        P3
  D:00C0H         PUBLIC        P4
  D:00C8H         PUBLIC        P5
  D:00E8H         PUBLIC        P6
  D:00F8H         PUBLIC        P7
  D:00A8H         PUBLIC        IE
  C:95F4H         PUBLIC        DeleteAllCardCon
  C:96D4H         PUBLIC        InitCard
  X:137EH         PUBLIC        CardEditItem
  C:7310H         PUBLIC        _AddCardItem
  D:00B8H         PUBLIC        IP
  X:1384H         SYMBOL        CardEditMidx
  C:9270H         PUBLIC        SaveCardCount
  C:3F88H         PUBLIC        _ShowCard
  D:00D8H         PUBLIC        CCON
  C:9175H         PUBLIC        EditCardCon
  X:1385H         SYMBOL        CardEditIdx
  C:54F7H         PUBLIC        _CardEditKey
  D:0098H         PUBLIC        SCON
  D:0088H         PUBLIC        TCON
  C:8A48H         PUBLIC        _CardEditCardIn
  D:00F0H         PUBLIC        B
  D:00E0H         PUBLIC        ACC
  C:8F0EH         PUBLIC        _DelCardByCard
  C:83B4H         PUBLIC        CardSetCon
  C:933BH         PUBLIC        _CardSetKey
  C:9559H         PUBLIC        _CardDelAllKey
  C:76FDH         PUBLIC        _CheckCard
  C:8C96H         PUBLIC        _ReadCardByIdx
  C:9784H         PUBLIC        ClearCard
  C:8C65H         PUBLIC        _WriteCardByIdx
  C:9150H         PUBLIC        _DelCardByRoom
  C:8B9BH         PUBLIC        DeleteCardCon
  C:8345H         PUBLIC        _DelCardByIdx
  D:00D0H         PUBLIC        PSW
  -------         PROC          SAVECARDCOUNT
  C:9270H         LINE#         11
  C:9270H         LINE#         12
  C:9270H         LINE#         13
  -------         ENDPROC       SAVECARDCOUNT
  -------         PROC          CLEARCARD
  C:9784H         LINE#         16
  C:9784H         LINE#         17
  C:9784H         LINE#         18
  C:978BH         LINE#         19
  -------         ENDPROC       CLEARCARD
  -------         PROC          INITCARD
  C:96D4H         LINE#         22
  C:96D4H         LINE#         23
  C:96D4H         LINE#         24
  C:96E3H         LINE#         25
BL51 BANKED LINKER/LOCATER V6.22.2.0                                                  08/04/2022  16:30:25  PAGE 108


  C:96E3H         LINE#         26
  C:96E6H         LINE#         27
  C:96E6H         LINE#         28
  -------         ENDPROC       INITCARD
  -------         PROC          _WRITECARDBYIDX
  D:0006H         SYMBOL        idx
  X:108BH         SYMBOL        pItem
  -------         DO            
  D:0006H         SYMBOL        addr
  -------         ENDDO         
  C:8C65H         LINE#         30
  C:8C70H         LINE#         31
  C:8C70H         LINE#         32
  C:8C70H         LINE#         33
  C:8C77H         LINE#         34
  -------         ENDPROC       _WRITECARDBYIDX
  -------         PROC          _READCARDBYIDX
  D:0006H         SYMBOL        idx
  X:108EH         SYMBOL        pItem
  -------         DO            
  D:0006H         SYMBOL        addr
  -------         ENDDO         
  C:8C96H         LINE#         37
  C:8CA1H         LINE#         38
  C:8CA1H         LINE#         39
  C:8CA1H         LINE#         40
  C:8CA8H         LINE#         41
  -------         ENDPROC       _READCARDBYIDX
  -------         PROC          _CHECKCARD
  X:1083H         SYMBOL        card
  -------         DO            
  X:1086H         SYMBOL        tmpItem
  X:108CH         SYMBOL        idx
  D:0007H         SYMBOL        i
  -------         ENDDO         
  C:76FDH         LINE#         56
  C:7708H         LINE#         57
  C:7708H         LINE#         59
  C:770FH         LINE#         61
  C:7719H         LINE#         62
  C:7719H         LINE#         63
  C:771BH         LINE#         64
  C:771BH         LINE#         65
  C:7731H         LINE#         66
  C:7731H         LINE#         67
  C:773AH         LINE#         68
  C:773CH         LINE#         69
  C:773CH         LINE#         70
  C:775EH         LINE#         71
  C:775EH         LINE#         72
  C:775EH         LINE#         73
  C:775EH         LINE#         74
  C:7763H         LINE#         75
  C:7767H         LINE#         76
  C:7767H         LINE#         77
  C:777FH         LINE#         78
  C:7788H         LINE#         79
BL51 BANKED LINKER/LOCATER V6.22.2.0                                                  08/04/2022  16:30:25  PAGE 109


  C:7788H         LINE#         80
  C:7796H         LINE#         81
  C:7798H         LINE#         82
  C:779CH         LINE#         83
  -------         ENDPROC       _CHECKCARD
  -------         PROC          _ADDCARDITEM
  X:1080H         SYMBOL        pItem
  -------         DO            
  X:1083H         SYMBOL        tmpItem
  X:1089H         SYMBOL        idx
  D:0007H         SYMBOL        i
  -------         ENDDO         
  C:7310H         LINE#         85
  C:731BH         LINE#         86
  C:731BH         LINE#         88
  C:7322H         LINE#         90
  C:7338H         LINE#         91
  C:7338H         LINE#         92
  C:7341H         LINE#         94
  C:735DH         LINE#         95
  C:735DH         LINE#         96
  C:735EH         LINE#         97
  C:735EH         LINE#         98
  C:7388H         LINE#         99
  C:7388H         LINE#         100
  C:7388H         LINE#         101
  C:7388H         LINE#         102
  C:738DH         LINE#         103
  C:7391H         LINE#         104
  C:7391H         LINE#         105
  C:739AH         LINE#         106
  C:739AH         LINE#         107
  C:739AH         LINE#         108
  C:73A8H         LINE#         109
  C:73ABH         LINE#         110
  C:73BBH         LINE#         111
  C:73BBH         LINE#         112
  C:73C9H         LINE#         113
  C:73D7H         LINE#         114
  C:73DAH         LINE#         115
  C:73E9H         LINE#         116
  C:73E9H         LINE#         117
  C:73EDH         LINE#         118
  -------         ENDPROC       _ADDCARDITEM
  -------         PROC          _DELCARDBYIDX
  X:1083H         SYMBOL        idx
  -------         DO            
  X:1085H         SYMBOL        tmpItem
  -------         ENDDO         
  C:8345H         LINE#         120
  C:834DH         LINE#         121
  C:834DH         LINE#         123
  C:835BH         LINE#         124
  C:835BH         LINE#         125
  C:836FH         LINE#         126
  C:836FH         LINE#         127
  C:837DH         LINE#         128
BL51 BANKED LINKER/LOCATER V6.22.2.0                                                  08/04/2022  16:30:25  PAGE 110


  C:8380H         LINE#         129
  C:8380H         LINE#         131
  C:8380H         LINE#         132
  C:838EH         LINE#         133
  C:8391H         LINE#         134
  C:83A2H         LINE#         135
  C:83B3H         LINE#         136
  C:83B3H         LINE#         137
  C:83B3H         LINE#         138
  -------         ENDPROC       _DELCARDBYIDX
  -------         PROC          _DELCARDBYROOM
  X:1080H         SYMBOL        room
  -------         DO            
  D:0006H         SYMBOL        idx
  -------         ENDDO         
  C:9150H         LINE#         140
  C:9158H         LINE#         141
  C:9158H         LINE#         142
  C:915AH         LINE#         143
  C:9162H         LINE#         144
  C:9162H         LINE#         145
  C:9165H         LINE#         146
  C:9172H         LINE#         147
  C:9174H         LINE#         148
  -------         ENDPROC       _DELCARDBYROOM
  -------         PROC          _DELCARDBYCARD
  X:1080H         SYMBOL        card
  -------         DO            
  D:0006H         SYMBOL        idx
  -------         ENDDO         
  C:8F0EH         LINE#         150
  C:8F19H         LINE#         151
  C:8F19H         LINE#         152
  C:8F1BH         LINE#         153
  C:8F23H         LINE#         154
  C:8F23H         LINE#         155
  C:8F26H         LINE#         156
  C:8F34H         LINE#         157
  C:8F36H         LINE#         158
  -------         ENDPROC       _DELCARDBYCARD
  -------         PROC          _SHOWCARD
  X:1082H         SYMBOL        pItem
  B:0020H.0       SYMBOL        edit
  -------         DO            
  X:1085H         SYMBOL        num
  X:1089H         SYMBOL        Disbuf
  -------         ENDDO         
  C:3F88H         LINE#         165
  C:3F93H         LINE#         166
  C:3F93H         LINE#         170
  C:3F96H         LINE#         210
  C:3FB4H         LINE#         211
  C:3FB4H         LINE#         212
  C:3FCEH         LINE#         213
  C:3FD0H         LINE#         215
  C:3FD0H         LINE#         216
  C:3FEEH         LINE#         217
BL51 BANKED LINKER/LOCATER V6.22.2.0                                                  08/04/2022  16:30:25  PAGE 111


  C:3FEEH         LINE#         218
  C:3FFBH         LINE#         221
  C:4001H         LINE#         222
  C:4001H         LINE#         226
  C:4011H         LINE#         228
  C:4011H         LINE#         229
  C:4017H         LINE#         230
  C:4017H         LINE#         232
  C:4024H         LINE#         233
  C:4040H         LINE#         234
  C:4040H         LINE#         239
  C:405CH         LINE#         240
  C:4075H         LINE#         241
  C:40B4H         LINE#         242
  C:40CDH         LINE#         243
  C:410CH         LINE#         244
  C:4125H         LINE#         245
  C:4164H         LINE#         246
  C:4194H         LINE#         247
  C:41BDH         LINE#         252
  C:41F9H         LINE#         253
  C:4206H         LINE#         255
  C:4206H         LINE#         257
  C:4206H         LINE#         258
  -------         ENDPROC       _SHOWCARD
  -------         PROC          EDITCARDCON
  C:9175H         LINE#         260
  C:9175H         LINE#         261
  C:9175H         LINE#         262
  C:9182H         LINE#         263
  C:9187H         LINE#         264
  C:9189H         LINE#         265
  C:918FH         LINE#         266
  -------         ENDPROC       EDITCARDCON
  -------         PROC          _CARDEDITKEY
  X:107DH         SYMBOL        key
  -------         DO            
  X:107EH         SYMBOL        tmp
  B:0023H.0       SYMBOL        Saved
  -------         ENDDO         
  C:54F7H         LINE#         269
  C:54FCH         LINE#         270
  C:54FCH         LINE#         273
  C:5503H         LINE#         274
  C:5503H         LINE#         275
  C:550BH         LINE#         276
  C:550BH         LINE#         277
  C:550EH         LINE#         278
  C:550EH         LINE#         279
  C:551AH         LINE#         280
  C:551FH         LINE#         281
  C:5521H         LINE#         283
  C:5521H         LINE#         284
  C:553FH         LINE#         286
  C:553FH         LINE#         287
  C:5550H         LINE#         288
  C:5550H         LINE#         289
BL51 BANKED LINKER/LOCATER V6.22.2.0                                                  08/04/2022  16:30:25  PAGE 112


  C:5553H         LINE#         290
  C:5555H         LINE#         292
  C:5555H         LINE#         293
  C:5558H         LINE#         294
  C:5558H         LINE#         295
  C:5565H         LINE#         296
  C:5567H         LINE#         297
  C:5568H         LINE#         299
  C:5568H         LINE#         300
  C:556BH         LINE#         301
  C:556BH         LINE#         303
  C:556BH         LINE#         304
  C:556BH         LINE#         305
  C:5571H         LINE#         306
  C:5576H         LINE#         307
  C:5579H         LINE#         308
  C:5583H         LINE#         309
  C:5583H         LINE#         310
  C:5583H         LINE#         311
  C:5588H         LINE#         312
  C:5595H         LINE#         313
  C:55A8H         LINE#         314
  C:55A8H         LINE#         315
  C:55AEH         LINE#         316
  C:55BDH         LINE#         317
  C:55BFH         LINE#         318
  C:55BFH         LINE#         319
  C:55BFH         LINE#         324
  C:55C2H         LINE#         325
  C:55C5H         LINE#         327
  C:55C5H         LINE#         328
  C:55C5H         LINE#         329
  C:55CDH         LINE#         330
  C:55CDH         LINE#         331
  C:55D7H         LINE#         332
  C:55D7H         LINE#         333
  C:55D7H         LINE#         334
  C:55E0H         LINE#         335
  C:55E0H         LINE#         336
  C:55E3H         LINE#         337
  C:55FAH         LINE#         338
  C:55FCH         LINE#         343
  C:55FCH         LINE#         344
  C:55FCH         LINE#         363
  C:55FCH         LINE#         364
  C:5601H         LINE#         365
  C:5603H         LINE#         366
  C:5610H         LINE#         367
  C:5620H         LINE#         368
  C:5620H         LINE#         369
  C:5626H         LINE#         370
  C:5635H         LINE#         371
  C:5637H         LINE#         372
  C:5637H         LINE#         373
  C:5637H         LINE#         374
  C:5637H         LINE#         375
  C:563EH         LINE#         376
BL51 BANKED LINKER/LOCATER V6.22.2.0                                                  08/04/2022  16:30:25  PAGE 113


  C:563EH         LINE#         377
  C:5641H         LINE#         379
  C:5641H         LINE#         381
  C:5651H         LINE#         382
  C:5651H         LINE#         383
  C:5657H         LINE#         384
  C:5657H         LINE#         385
  C:5657H         LINE#         386
  C:5660H         LINE#         387
  C:5660H         LINE#         388
  C:5677H         LINE#         389
  C:5689H         LINE#         390
  C:568FH         LINE#         391
  C:5699H         LINE#         392
  C:5699H         LINE#         393
  C:569DH         LINE#         394
  C:569DH         LINE#         395
  C:569DH         LINE#         396
  C:569DH         LINE#         403
  C:569DH         LINE#         404
  C:569DH         LINE#         405
  C:56A8H         LINE#         406
  -------         ENDPROC       _CARDEDITKEY
  -------         PROC          _CARDEDITCARDIN
  X:107FH         SYMBOL        card
  C:8A48H         LINE#         408
  C:8A53H         LINE#         409
  C:8A53H         LINE#         418
  C:8A78H         LINE#         419
  -------         ENDPROC       _CARDEDITCARDIN
  -------         PROC          DELETECARDCON
  C:8B9BH         LINE#         422
  C:8B9BH         LINE#         423
  C:8B9BH         LINE#         424
  C:8BA8H         LINE#         425
  C:8BADH         LINE#         426
  C:8BAFH         LINE#         427
  C:8BB5H         LINE#         428
  -------         ENDPROC       DELETECARDCON
  -------         PROC          _CARDDELETEKEY
  X:107DH         SYMBOL        key
  -------         DO            
  X:107EH         SYMBOL        tmp
  B:0023H.1       SYMBOL        Saved
  -------         ENDDO         
  C:533FH         LINE#         431
  C:5344H         LINE#         432
  C:5344H         LINE#         435
  C:534BH         LINE#         436
  C:534BH         LINE#         437
  C:5353H         LINE#         438
  C:5353H         LINE#         439
  C:5356H         LINE#         440
  C:5356H         LINE#         441
  C:5362H         LINE#         442
  C:5367H         LINE#         443
  C:5369H         LINE#         445
BL51 BANKED LINKER/LOCATER V6.22.2.0                                                  08/04/2022  16:30:25  PAGE 114


  C:5369H         LINE#         446
  C:5378H         LINE#         447
  C:5378H         LINE#         448
  C:5381H         LINE#         449
  C:5381H         LINE#         450
  C:5381H         LINE#         451
  C:5381H         LINE#         452
  C:5383H         LINE#         453
  C:5396H         LINE#         454
  C:5396H         LINE#         455
  C:5399H         LINE#         456
  C:53A6H         LINE#         457
  C:53A8H         LINE#         458
  C:53ABH         LINE#         459
  C:53ABH         LINE#         461
  C:53ABH         LINE#         462
  C:53ABH         LINE#         463
  C:53B1H         LINE#         464
  C:53B6H         LINE#         465
  C:53B9H         LINE#         466
  C:53C3H         LINE#         467
  C:53C3H         LINE#         468
  C:53C3H         LINE#         469
  C:53C8H         LINE#         470
  C:53D5H         LINE#         471
  C:53E8H         LINE#         472
  C:53E8H         LINE#         473
  C:53EEH         LINE#         474
  C:53FDH         LINE#         475
  C:53FFH         LINE#         476
  C:53FFH         LINE#         477
  C:53FFH         LINE#         478
  C:5402H         LINE#         479
  C:5405H         LINE#         481
  C:5405H         LINE#         482
  C:5405H         LINE#         483
  C:540DH         LINE#         484
  C:540DH         LINE#         485
  C:5417H         LINE#         486
  C:5417H         LINE#         487
  C:5417H         LINE#         488
  C:5420H         LINE#         489
  C:5420H         LINE#         490
  C:5423H         LINE#         491
  C:543AH         LINE#         492
  C:543CH         LINE#         497
  C:543CH         LINE#         498
  C:543CH         LINE#         499
  C:543CH         LINE#         500
  C:5441H         LINE#         501
  C:5443H         LINE#         502
  C:5450H         LINE#         503
  C:5460H         LINE#         504
  C:5460H         LINE#         505
  C:5466H         LINE#         506
  C:5475H         LINE#         507
  C:5477H         LINE#         508
BL51 BANKED LINKER/LOCATER V6.22.2.0                                                  08/04/2022  16:30:25  PAGE 115


  C:5477H         LINE#         509
  C:5477H         LINE#         510
  C:5477H         LINE#         511
  C:547EH         LINE#         512
  C:547EH         LINE#         513
  C:5481H         LINE#         515
  C:5481H         LINE#         517
  C:5491H         LINE#         518
  C:5491H         LINE#         519
  C:5497H         LINE#         520
  C:5497H         LINE#         521
  C:5497H         LINE#         522
  C:54A0H         LINE#         523
  C:54A0H         LINE#         524
  C:54B7H         LINE#         525
  C:54C9H         LINE#         526
  C:54CFH         LINE#         527
  C:54CFH         LINE#         528
  C:54D9H         LINE#         529
  C:54D9H         LINE#         530
  C:54DDH         LINE#         531
  C:54DDH         LINE#         532
  C:54DDH         LINE#         533
  C:54DDH         LINE#         534
  C:54DDH         LINE#         535
  C:54F6H         LINE#         536
  -------         ENDPROC       _CARDDELETEKEY
  -------         PROC          DELETEALLCARDCON
  C:95F4H         LINE#         538
  C:95F4H         LINE#         539
  C:95F4H         LINE#         540
  C:95FAH         LINE#         541
  C:95FDH         LINE#         542
  -------         ENDPROC       DELETEALLCARDCON
  -------         PROC          _CARDDELALLKEY
  D:0007H         SYMBOL        key
  C:9559H         LINE#         544
  C:9559H         LINE#         545
  C:9559H         LINE#         546
  C:9566H         LINE#         547
  C:9566H         LINE#         548
  C:9566H         LINE#         549
  C:9569H         LINE#         550
  C:956CH         LINE#         551
  C:956CH         LINE#         552
  C:956CH         LINE#         553
  C:956CH         LINE#         554
  C:956FH         LINE#         555
  C:956FH         LINE#         556
  C:956FH         LINE#         557
  -------         ENDPROC       _CARDDELALLKEY
  -------         PROC          CARDSETCON
  -------         DO            
  X:1080H         SYMBOL        Disbuf
  -------         ENDDO         
  C:83B4H         LINE#         559
  C:83B4H         LINE#         560
BL51 BANKED LINKER/LOCATER V6.22.2.0                                                  08/04/2022  16:30:25  PAGE 116


  C:83B4H         LINE#         563
  C:83BAH         LINE#         564
  C:83BDH         LINE#         565
  C:83C9H         LINE#         566
  C:83D6H         LINE#         567
  C:83E3H         LINE#         568
  C:83F0H         LINE#         569
  C:8416H         LINE#         573
  -------         ENDPROC       CARDSETCON
  -------         PROC          _CARDSETKEY
  D:0007H         SYMBOL        key
  C:933BH         LINE#         577
  C:933BH         LINE#         578
  C:933BH         LINE#         579
  C:934FH         LINE#         580
  C:934FH         LINE#         581
  C:934FH         LINE#         582
  C:9352H         LINE#         583
  C:9352H         LINE#         584
  C:9352H         LINE#         585
  C:9355H         LINE#         586
  C:9355H         LINE#         587
  C:9355H         LINE#         588
  C:9358H         LINE#         589
  C:9358H         LINE#         590
  C:9358H         LINE#         591
  C:9358H         LINE#         592
  C:935BH         LINE#         593
  C:935BH         LINE#         594
  C:935BH         LINE#         595
  -------         ENDPROC       _CARDSETKEY
  -------         ENDMOD        CARD

  -------         MODULE        CARDREAD
  C:0000H         SYMBOL        _ICE_DUMMY_
  D:0080H         PUBLIC        P0
  D:0090H         PUBLIC        P1
  D:00A0H         PUBLIC        P2
  D:00B0H         PUBLIC        P3
  D:00C0H         PUBLIC        P4
  D:00C8H         PUBLIC        P5
  B:0022H.0       PUBLIC        errflg
  D:00E8H         PUBLIC        P6
  D:00F8H         PUBLIC        P7
  D:00A8H         PUBLIC        IE
  C:9463H         PUBLIC        CardReadInit
  B:0022H.1       PUBLIC        CardReadOK
  D:00B8H         PUBLIC        IP
  X:1301H         PUBLIC        CodeOld
  X:1305H         PUBLIC        RfidCardBuf
  D:00D8H         PUBLIC        CCON
  X:1319H         PUBLIC        CodeCheckTs
  X:131AH         PUBLIC        CardRaw
  X:1342H         PUBLIC        CardCh
  X:1344H         PUBLIC        CardBitCount
  C:6B58H         PUBLIC        CardIrq
  D:0098H         PUBLIC        SCON
BL51 BANKED LINKER/LOCATER V6.22.2.0                                                  08/04/2022  16:30:25  PAGE 117


  X:1345H         PUBLIC        CodeIn
  X:1349H         PUBLIC        CardChCount
  B:00B0H.2       PUBLIC        P32
  D:0088H         PUBLIC        TCON
  X:134AH         PUBLIC        CardGetBit
  D:00F0H         PUBLIC        B
  X:134BH         PUBLIC        CardRt
  X:134CH         PUBLIC        CardInTime
  D:00E0H         PUBLIC        ACC
  C:8C33H         PUBLIC        CardMsTask
  B:0022H.2       PUBLIC        CardGetOk
  C:1362H         PUBLIC        CheckRfidCard
  X:134EH         PUBLIC        CardCode
  D:00D0H         PUBLIC        PSW
  -------         PROC          CARDREADINIT
  C:9463H         LINE#         21
  C:9463H         LINE#         22
  C:9463H         LINE#         23
  C:9468H         LINE#         24
  C:946CH         LINE#         25
  C:9472H         LINE#         26
  C:9474H         LINE#         27
  C:9478H         LINE#         28
  C:947AH         LINE#         29
  C:947CH         LINE#         30
  -------         ENDPROC       CARDREADINIT
  -------         PROC          CARDMSTASK
  C:8C33H         LINE#         32
  C:8C33H         LINE#         33
  C:8C33H         LINE#         34
  C:8C3DH         LINE#         35
  C:8C3DH         LINE#         36
  C:8C4BH         LINE#         37
  C:8C4BH         LINE#         38
  C:8C55H         LINE#         39
  C:8C5AH         LINE#         40
  C:8C64H         LINE#         41
  C:8C64H         LINE#         42
  C:8C64H         LINE#         43
  -------         ENDPROC       CARDMSTASK
  -------         PROC          CHECKRFIDCARD
  -------         DO            
  X:107CH         SYMBOL        i
  X:107DH         SYMBOL        n
  X:107EH         SYMBOL        k
  X:107FH         SYMBOL        j
  X:1080H         SYMBOL        num
  D:0007H         SYMBOL        tmp
  D:0006H         SYMBOL        chk
  -------         ENDDO         
  C:1362H         LINE#         348
  C:1362H         LINE#         349
  C:1362H         LINE#         351
  C:1367H         LINE#         356
  C:1371H         LINE#         362
  C:1376H         LINE#         363
  C:138BH         LINE#         364
BL51 BANKED LINKER/LOCATER V6.22.2.0                                                  08/04/2022  16:30:25  PAGE 118


  C:138BH         LINE#         365
  C:138EH         LINE#         366
  C:139BH         LINE#         367
  C:139DH         LINE#         368
  C:13A9H         LINE#         369
  C:13A9H         LINE#         371
  C:13A9H         LINE#         372
  C:13ACH         LINE#         373
  C:13BEH         LINE#         374
  C:13BEH         LINE#         375
  C:140BH         LINE#         376
  C:143FH         LINE#         377
  C:1448H         LINE#         379
  C:145AH         LINE#         380
  C:145AH         LINE#         381
  C:145CH         LINE#         383
  C:1470H         LINE#         384
  C:1470H         LINE#         385
  C:1476H         LINE#         386
  C:1476H         LINE#         387
  C:149AH         LINE#         388
  C:14D4H         LINE#         389
  C:14DDH         LINE#         390
  C:14E8H         LINE#         391
  C:14EEH         LINE#         392
  C:14EEH         LINE#         394
  C:1500H         LINE#         395
  C:1512H         LINE#         396
  C:1525H         LINE#         397
  C:152EH         LINE#         399
  C:153FH         LINE#         400
  C:1551H         LINE#         401
  C:156AH         LINE#         402
  C:1575H         LINE#         404
  C:1584H         LINE#         405
  C:1589H         LINE#         406
  C:15A0H         LINE#         407
  C:15ACH         LINE#         408
  C:15BAH         LINE#         411
  C:15CCH         LINE#         412
  C:15CCH         LINE#         413
  C:15DCH         LINE#         414
  C:15E2H         LINE#         415
  C:15E2H         LINE#         416
  C:15E6H         LINE#         417
  C:15E6H         LINE#         418
  C:15E7H         LINE#         419
  C:15E7H         LINE#         420
  C:15EBH         LINE#         421
  C:15F5H         LINE#         423
  C:15F9H         LINE#         426
  C:1600H         LINE#         427
  C:1600H         LINE#         428
  C:161FH         LINE#         429
  C:1621H         LINE#         431
  C:1621H         LINE#         432
  C:164EH         LINE#         433
BL51 BANKED LINKER/LOCATER V6.22.2.0                                                  08/04/2022  16:30:25  PAGE 119


  C:164EH         LINE#         435
  C:1668H         LINE#         436
  C:1668H         LINE#         437
  C:166AH         LINE#         438
  C:166CH         LINE#         439
  C:166CH         LINE#         440
  C:1675H         LINE#         441
  C:167BH         LINE#         442
  C:167BH         LINE#         443
  C:168AH         LINE#         444
  C:16A3H         LINE#         445
  C:16C5H         LINE#         446
  C:16DEH         LINE#         447
  C:1700H         LINE#         448
  C:1719H         LINE#         449
  C:173BH         LINE#         451
  C:1793H         LINE#         452
  C:1793H         LINE#         453
  C:17A0H         LINE#         454
  C:17A0H         LINE#         455
  C:17A2H         LINE#         456
  C:17A4H         LINE#         457
  C:17B8H         LINE#         458
  C:17DAH         LINE#         459
  C:17E3H         LINE#         460
  C:17F6H         LINE#         461
  C:17F6H         LINE#         462
  C:180EH         LINE#         463
  C:1816H         LINE#         464
  C:181FH         LINE#         466
  C:181FH         LINE#         467
  C:181FH         LINE#         469
  C:181FH         LINE#         470
  C:1833H         LINE#         471
  C:1838H         LINE#         472
  C:1839H         LINE#         474
  C:1839H         LINE#         475
  C:1842H         LINE#         476
  -------         ENDPROC       CHECKRFIDCARD
  -------         PROC          CARDIRQ
  C:6B58H         LINE#         478
  C:6B58H         LINE#         479
  C:6B58H         LINE#         481
  C:6B5EH         LINE#         482
  C:6B5EH         LINE#         484
  C:6B5EH         LINE#         486
  C:6B70H         LINE#         487
  C:6B70H         LINE#         488
  C:6B76H         LINE#         489
  C:6B85H         LINE#         491
  C:6B85H         LINE#         492
  C:6B85H         LINE#         493
  C:6B88H         LINE#         495
  C:6B88H         LINE#         497
  C:6B98H         LINE#         498
  C:6B98H         LINE#         499
  C:6BA5H         LINE#         500
BL51 BANKED LINKER/LOCATER V6.22.2.0                                                  08/04/2022  16:30:25  PAGE 120


  C:6BA8H         LINE#         501
  C:6BA8H         LINE#         502
  C:6BADH         LINE#         503
  C:6BADH         LINE#         504
  C:6BBAH         LINE#         505
  C:6BBAH         LINE#         506
  C:6BBBH         LINE#         507
  C:6BDBH         LINE#         508
  C:6BE7H         LINE#         509
  C:6BE7H         LINE#         510
  C:6BE9H         LINE#         511
  C:6BE9H         LINE#         512
  C:6BE9H         LINE#         513
  C:6BE9H         LINE#         514
  C:6BEAH         LINE#         515
  C:6BF9H         LINE#         516
  C:6BF9H         LINE#         517
  C:6C01H         LINE#         518
  C:6C01H         LINE#         519
  C:6C02H         LINE#         520
  C:6C04H         LINE#         522
  C:6C04H         LINE#         524
  C:6C0BH         LINE#         525
  C:6C0FH         LINE#         526
  C:6C0FH         LINE#         527
  C:6C1CH         LINE#         528
  C:6C1FH         LINE#         529
  C:6C1FH         LINE#         530
  C:6C24H         LINE#         531
  C:6C24H         LINE#         532
  C:6C2DH         LINE#         533
  C:6C2DH         LINE#         534
  C:6C2FH         LINE#         535
  C:6C4FH         LINE#         536
  C:6C58H         LINE#         537
  C:6C58H         LINE#         538
  C:6C5AH         LINE#         539
  C:6C5AH         LINE#         540
  C:6C5AH         LINE#         541
  C:6C5AH         LINE#         542
  C:6C5BH         LINE#         544
  C:6C5BH         LINE#         545
  C:6C60H         LINE#         546
  C:6C64H         LINE#         547
  C:6C64H         LINE#         548
  -------         ENDPROC       CARDIRQ
  -------         ENDMOD        CARDREAD

  -------         MODULE        AUDIO
  C:0000H         SYMBOL        _ICE_DUMMY_
  D:0080H         PUBLIC        P0
  D:0090H         PUBLIC        P1
  D:00A0H         PUBLIC        P2
  D:00B0H         PUBLIC        P3
  D:00C0H         PUBLIC        P4
  X:0000H         PUBLIC        PlyN
  D:00C8H         PUBLIC        P5
BL51 BANKED LINKER/LOCATER V6.22.2.0                                                  08/04/2022  16:30:25  PAGE 121


  D:00E8H         PUBLIC        P6
  D:00F8H         PUBLIC        P7
  C:7F3AH         PUBLIC        _Beep_StartPlay
  D:00FEH         PUBLIC        PWMCR
  D:00BAH         PUBLIC        P_SW2
  D:00A8H         PUBLIC        IE
  X:0001H         SYMBOL        Midx
  D:00B8H         PUBLIC        IP
  D:00D8H         PUBLIC        CCON
  C:80A2H         PUBLIC        PWMtask
  C:8B2FH         PUBLIC        WavCode
  B:0022H.3       PUBLIC        WavNeedRead
  X:0002H         PUBLIC        WavFileAddr
  B:0080H.0       PUBLIC        P00
  X:0006H         PUBLIC        WavFile
  D:0098H         PUBLIC        SCON
  D:0088H         PUBLIC        TCON
  B:00E8H.2       PUBLIC        P62
  X:008EH         PUBLIC        PwmTimer
  B:00F8H.4       PUBLIC        P74
  C:898DH         PUBLIC        KeyBeepTask
  D:00F0H         PUBLIC        B
  C:59DBH         PUBLIC        WavReadTask
  C:8F37H         PUBLIC        SPI_config
  D:00E0H         PUBLIC        ACC
  X:008FH         PUBLIC        WavBuf
  B:0022H.4       PUBLIC        AudioPlaying
  C:8F88H         PUBLIC        PWM_config
  X:088FH         PUBLIC        WavFileLen
  X:0893H         PUBLIC        WavReadIdx
  C:8D84H         PUBLIC        MP3_Stop
  C:7968H         PUBLIC        _MP3_StartPlay
  X:0897H         PUBLIC        BeepPlyIdx
  X:0898H         SYMBOL        PlyIdx
  D:00D1H         PUBLIC        T4T3M
  X:089AH         PUBLIC        WavBufLen
  B:0022H.5       PUBLIC        KeyBeepO
  D:00D0H         PUBLIC        PSW
  -------         PROC          SPI_CONFIG
  -------         DO            
  X:107CH         SYMBOL        SPI_InitStructure
  -------         ENDDO         
  C:8F37H         LINE#         125
  C:8F37H         LINE#         126
  C:8F37H         LINE#         128
  C:8F3DH         LINE#         129
  C:8F40H         LINE#         130
  C:8F42H         LINE#         131
  C:8F45H         LINE#         132
  C:8F48H         LINE#         133
  C:8F4BH         LINE#         134
  C:8F4DH         LINE#         135
  C:8F50H         LINE#         136
  C:8F54H         LINE#         137
  C:8F5DH         LINE#         139
  C:8F5FH         LINE#         140
  -------         ENDPROC       SPI_CONFIG
BL51 BANKED LINKER/LOCATER V6.22.2.0                                                  08/04/2022  16:30:25  PAGE 122


  -------         PROC          PWM_CONFIG
  C:8F88H         LINE#         151
  C:8F88H         LINE#         152
  C:8F88H         LINE#         153
  C:8F8BH         LINE#         154
  C:8F90H         LINE#         155
  C:8F98H         LINE#         156
  C:8F9FH         LINE#         157
  C:8FA5H         LINE#         158
  C:8FA9H         LINE#         159
  C:8FACH         LINE#         160
  C:8FAFH         LINE#         161
  -------         ENDPROC       PWM_CONFIG
  -------         PROC          WAVREADTASK
  -------         DO            
  X:112BH         SYMBOL        midx
  -------         ENDDO         
  C:59DBH         LINE#         228
  C:59DBH         LINE#         229
  C:59DBH         LINE#         232
  C:59E1H         LINE#         233
  C:59E1H         LINE#         234
  C:59E3H         LINE#         235
  C:59F0H         LINE#         236
  C:5A29H         LINE#         237
  C:5A29H         LINE#         238
  C:5A2CH         LINE#         240
  C:5A2CH         LINE#         241
  C:5A5FH         LINE#         242
  C:5A5FH         LINE#         243
  C:5A74H         LINE#         244
  C:5A94H         LINE#         245
  C:5A96H         LINE#         247
  C:5A96H         LINE#         248
  C:5AC5H         LINE#         249
  C:5ACFH         LINE#         250
  C:5AF6H         LINE#         251
  C:5AF6H         LINE#         252
  C:5AF8H         LINE#         253
  C:5AF8H         LINE#         255
  C:5AF8H         LINE#         256
  C:5B5DH         LINE#         262
  C:5B5DH         LINE#         263
  -------         ENDPROC       WAVREADTASK
  -------         PROC          PWMTASK
  C:80A2H         LINE#         265
  C:80A2H         LINE#         266
  C:80A2H         LINE#         268
  C:80C4H         LINE#         269
  C:80C4H         LINE#         270
  C:80C7H         LINE#         276
  C:8101H         LINE#         277
  C:8104H         LINE#         278
  C:8105H         LINE#         280
  C:8105H         LINE#         281
  C:810CH         LINE#         282
  C:8116H         LINE#         283
BL51 BANKED LINKER/LOCATER V6.22.2.0                                                  08/04/2022  16:30:25  PAGE 123


  C:8118H         LINE#         284
  C:8118H         LINE#         285
  -------         ENDPROC       PWMTASK
  -------         PROC          _MP3_STARTPLAY
  X:10D0H         SYMBOL        idx
  C:7968H         LINE#         287
  C:796DH         LINE#         288
  C:796DH         LINE#         289
  C:7976H         LINE#         290
  C:7976H         LINE#         292
  C:7976H         LINE#         294
  C:7979H         LINE#         295
  C:797BH         LINE#         296
  C:7982H         LINE#         297
  C:79A5H         LINE#         298
  C:79C4H         LINE#         300
  C:79CBH         LINE#         301
  C:79D5H         LINE#         302
  C:79DCH         LINE#         303
  C:79E0H         LINE#         305
  C:79E5H         LINE#         306
  C:79E7H         LINE#         307
  C:79EAH         LINE#         309
  C:79EFH         LINE#         310
  C:79F1H         LINE#         311
  C:79F4H         LINE#         313
  C:79F7H         LINE#         314
  C:79FAH         LINE#         315
  C:79FCH         LINE#         316
  -------         ENDPROC       _MP3_STARTPLAY
  -------         PROC          MP3_STOP
  C:8D84H         LINE#         317
  C:8D84H         LINE#         318
  C:8D84H         LINE#         319
  C:8DABH         LINE#         320
  C:8DABH         LINE#         321
  C:8DADH         LINE#         322
  C:8DADH         LINE#         323
  C:8DAFH         LINE#         325
  C:8DB2H         LINE#         326
  -------         ENDPROC       MP3_STOP
  -------         PROC          _BEEP_STARTPLAY
  D:0007H         SYMBOL        idx
  C:7F3AH         LINE#         343
  C:7F3AH         LINE#         344
  C:7F3AH         LINE#         345
  C:7F7DH         LINE#         346
  C:7F7DH         LINE#         347
  C:7F7DH         LINE#         348
  C:7F7DH         LINE#         349
  C:7F7DH         LINE#         350
  C:7F83H         LINE#         351
  C:7F85H         LINE#         352
  C:7F85H         LINE#         353
  C:7F8AH         LINE#         354
  C:7F8CH         LINE#         355
  C:7F8CH         LINE#         356
BL51 BANKED LINKER/LOCATER V6.22.2.0                                                  08/04/2022  16:30:25  PAGE 124


  C:7F92H         LINE#         357
  C:7F94H         LINE#         358
  C:7F94H         LINE#         359
  C:7F94H         LINE#         360
  C:7F94H         LINE#         361
  C:7F94H         LINE#         362
  C:7F9AH         LINE#         363
  C:7F9CH         LINE#         364
  C:7F9CH         LINE#         365
  C:7F9CH         LINE#         366
  C:7FA2H         LINE#         367
  C:7FA2H         LINE#         368
  C:7FA2H         LINE#         370
  C:7FA7H         LINE#         371
  C:7FADH         LINE#         372
  C:7FB0H         LINE#         373
  C:7FB2H         LINE#         374
  -------         ENDPROC       _BEEP_STARTPLAY
  -------         PROC          KEYBEEPTASK
  C:898DH         LINE#         376
  C:898DH         LINE#         377
  C:898DH         LINE#         378
  C:8995H         LINE#         379
  C:8995H         LINE#         380
  C:899EH         LINE#         381
  C:899EH         LINE#         382
  C:89A0H         LINE#         383
  C:89B9H         LINE#         384
  C:89B9H         LINE#         385
  C:89BFH         LINE#         386
  C:89C1H         LINE#         387
  C:89C4H         LINE#         389
  C:89C4H         LINE#         390
  C:89C6H         LINE#         391
  C:89CCH         LINE#         392
  C:89CCH         LINE#         393
  C:89CCH         LINE#         394
  -------         ENDPROC       KEYBEEPTASK
  -------         ENDMOD        AUDIO

  -------         MODULE        UART
  C:0000H         SYMBOL        _ICE_DUMMY_
  C:1CCDH         PUBLIC        _UART_Configuration
  D:0080H         PUBLIC        P0
  D:0090H         PUBLIC        P1
  D:00A0H         PUBLIC        P2
  D:00B0H         PUBLIC        P3
  D:00C0H         PUBLIC        P4
  D:00C8H         PUBLIC        P5
  D:00E8H         PUBLIC        P6
  D:00F8H         PUBLIC        P7
  D:00A2H         PUBLIC        P_SW1
  D:00BAH         PUBLIC        P_SW2
  D:00A8H         PUBLIC        IE
  X:0CA4H         PUBLIC        COM1
  X:0CACH         PUBLIC        COM3
  D:00EEH         PUBLIC        IP3H
BL51 BANKED LINKER/LOCATER V6.22.2.0                                                  08/04/2022  16:30:25  PAGE 125


  B:00A8H.4       PUBLIC        ES
  D:00B8H         PUBLIC        IP
  X:0CB4H         PUBLIC        RX1_Buffer
  B:0098H.0       PUBLIC        RI
  C:79FDH         PUBLIC        UART1_int
  X:0EB4H         PUBLIC        RX3_Buffer
  X:0F34H         PUBLIC        TX1_Buffer
  B:0098H.1       PUBLIC        TI
  C:779DH         PUBLIC        UART3_int
  X:0FFCH         PUBLIC        TX3_Buffer
  B:00B8H.4       PUBLIC        PS
  D:00D8H         PUBLIC        CCON
  D:0099H         PUBLIC        SBUF
  D:0087H         PUBLIC        PCON
  C:88BFH         PUBLIC        UartTask
  D:0098H         PUBLIC        SCON
  D:0089H         PUBLIC        TMOD
  D:0088H         PUBLIC        TCON
  C:94E1H         PUBLIC        Uart1Clear
  C:94FAH         PUBLIC        Uart3Clear
  C:8BCEH         PUBLIC        _PrintString3
  D:00AFH         PUBLIC        IE2
  D:00F0H         PUBLIC        B
  D:008EH         PUBLIC        AUXR
  C:8FFFH         PUBLIC        _TX1_write2buff
  C:8FB0H         PUBLIC        _TX3_write2buff
  D:00E0H         PUBLIC        ACC
  B:00A8H.3       PUBLIC        ET1
  D:00DFH         PUBLIC        IP3
  D:008DH         PUBLIC        TH1
  D:00D6H         PUBLIC        TH2
  D:00D4H         PUBLIC        TH3
  D:008BH         PUBLIC        TL1
  D:00D7H         PUBLIC        TL2
  D:00D5H         PUBLIC        TL3
  B:0088H.6       PUBLIC        TR1
  D:00D1H         PUBLIC        T4T3M
  D:00B7H         PUBLIC        IPH
  D:00ADH         PUBLIC        S3BUF
  B:0098H.4       PUBLIC        REN
  D:00ACH         PUBLIC        S3CON
  D:008FH         PUBLIC        INT_CLKO
  D:00D0H         PUBLIC        PSW
  -------         PROC          _UART_CONFIGURATION
  X:1088H         SYMBOL        UARTx
  X:1089H         SYMBOL        COMx
  -------         DO            
  X:108CH         SYMBOL        i
  X:108EH         SYMBOL        j
  -------         ENDDO         
  C:1CCDH         LINE#         26
  C:1CDDH         LINE#         27
  C:1CDDH         LINE#         32
  C:1CE4H         LINE#         33
  C:1CE4H         LINE#         34
  C:1CE9H         LINE#         35
  C:1CECH         LINE#         36
BL51 BANKED LINKER/LOCATER V6.22.2.0                                                  08/04/2022  16:30:25  PAGE 126


  C:1CEEH         LINE#         37
  C:1CF0H         LINE#         38
  C:1CF4H         LINE#         39
  C:1CF6H         LINE#         40
  C:1CF8H         LINE#         41
  C:1D2AH         LINE#         42
  C:1D5BH         LINE#         44
  C:1D75H         LINE#         45
  C:1DA3H         LINE#         46
  C:1DAEH         LINE#         47
  C:1DB9H         LINE#         48
  C:1DC6H         LINE#         49
  C:1DC6H         LINE#         50
  C:1DDDH         LINE#         51
  C:1DFAH         LINE#         52
  C:1E1CH         LINE#         53
  C:1E32H         LINE#         54
  C:1E32H         LINE#         55
  C:1E34H         LINE#         56
  C:1E37H         LINE#         57
  C:1E3AH         LINE#         58
  C:1E3DH         LINE#         59
  C:1E40H         LINE#         60
  C:1E55H         LINE#         61
  C:1E5EH         LINE#         62
  C:1E60H         LINE#         63
  C:1E63H         LINE#         64
  C:1E66H         LINE#         65
  C:1E68H         LINE#         66
  C:1E6AH         LINE#         67
  C:1E6FH         LINE#         68
  C:1E6FH         LINE#         69
  C:1E72H         LINE#         70
  C:1E75H         LINE#         71
  C:1E78H         LINE#         72
  C:1E7BH         LINE#         73
  C:1E90H         LINE#         74
  C:1E99H         LINE#         75
  C:1E9CH         LINE#         76
  C:1E9FH         LINE#         77
  C:1EA1H         LINE#         78
  C:1EA4H         LINE#         79
  C:1EA4H         LINE#         80
  C:1EB5H         LINE#         81
  C:1EB5H         LINE#         82
  C:1EC3H         LINE#         83
  C:1EC6H         LINE#         84
  C:1EC8H         LINE#         85
  C:1ECCH         LINE#         86
  C:1ECCH         LINE#         87
  C:1EDAH         LINE#         88
  C:1EDDH         LINE#         89
  C:1EDDH         LINE#         90
  C:1EF5H         LINE#         91
  C:1EF7H         LINE#         92
  C:1F04H         LINE#         93
  C:1F06H         LINE#         94
BL51 BANKED LINKER/LOCATER V6.22.2.0                                                  08/04/2022  16:30:25  PAGE 127


  C:1F16H         LINE#         95
  C:1F19H         LINE#         96
  C:1F19H         LINE#         138
  C:1F24H         LINE#         139
  C:1F24H         LINE#         140
  C:1F2AH         LINE#         141
  C:1F2DH         LINE#         142
  C:1F2FH         LINE#         143
  C:1F31H         LINE#         144
  C:1F35H         LINE#         145
  C:1F37H         LINE#         146
  C:1F39H         LINE#         147
  C:1F6BH         LINE#         148
  C:1F9EH         LINE#         150
  C:1FB9H         LINE#         151
  C:1FB9H         LINE#         152
  C:1FC8H         LINE#         153
  C:1FFAH         LINE#         154
  C:2005H         LINE#         155
  C:2008H         LINE#         156
  C:201FH         LINE#         157
  C:203CH         LINE#         158
  C:205EH         LINE#         159
  C:2073H         LINE#         160
  C:2073H         LINE#         161
  C:2076H         LINE#         162
  C:208BH         LINE#         163
  C:2094H         LINE#         164
  C:2097H         LINE#         165
  C:2099H         LINE#         166
  C:209EH         LINE#         167
  C:209EH         LINE#         168
  C:20A1H         LINE#         169
  C:20A4H         LINE#         170
  C:20A7H         LINE#         171
  C:20AAH         LINE#         172
  C:20BFH         LINE#         173
  C:20C8H         LINE#         174
  C:20CBH         LINE#         175
  C:20CEH         LINE#         176
  C:20D0H         LINE#         177
  C:20D3H         LINE#         178
  C:20D3H         LINE#         179
  C:20D6H         LINE#         180
  C:20EFH         LINE#         181
  C:20F2H         LINE#         182
  C:2100H         LINE#         183
  C:2103H         LINE#         184
  C:2113H         LINE#         185
  C:2116H         LINE#         186
  C:2116H         LINE#         239
  C:2118H         LINE#         240
  -------         ENDPROC       _UART_CONFIGURATION
  -------         PROC          _TX1_WRITE2BUFF
  D:0007H         SYMBOL        dat
  C:8FFFH         LINE#         246
  C:8FFFH         LINE#         247
BL51 BANKED LINKER/LOCATER V6.22.2.0                                                  08/04/2022  16:30:25  PAGE 128


  C:8FFFH         LINE#         248
  C:900EH         LINE#         249
  C:901BH         LINE#         251
  C:9021H         LINE#         252
  C:9021H         LINE#         253
  C:9023H         LINE#         254
  C:9025H         LINE#         255
  C:9025H         LINE#         256
  -------         ENDPROC       _TX1_WRITE2BUFF
  -------         PROC          UART1_INT
  C:79FDH         LINE#         263
  C:7A10H         LINE#         265
  C:7A13H         LINE#         266
  C:7A13H         LINE#         267
  C:7A15H         LINE#         268
  C:7A1BH         LINE#         269
  C:7A1BH         LINE#         270
  C:7A28H         LINE#         271
  C:7A41H         LINE#         272
  C:7A47H         LINE#         273
  C:7A47H         LINE#         274
  C:7A47H         LINE#         276
  C:7A4AH         LINE#         277
  C:7A4AH         LINE#         278
  C:7A4CH         LINE#         279
  C:7A59H         LINE#         280
  C:7A59H         LINE#         281
  C:7A66H         LINE#         282
  C:7A73H         LINE#         283
  C:7A75H         LINE#         284
  C:7A7AH         LINE#         285
  C:7A7AH         LINE#         286
  -------         ENDPROC       UART1_INT
  -------         PROC          UART1CLEAR
  C:94E1H         LINE#         288
  C:94E1H         LINE#         289
  C:94E1H         LINE#         290
  C:94EEH         LINE#         291
  C:94F3H         LINE#         292
  C:94F9H         LINE#         293
  -------         ENDPROC       UART1CLEAR
  -------         PROC          _TX3_WRITE2BUFF
  D:0007H         SYMBOL        dat
  C:8FB0H         LINE#         343
  C:8FB0H         LINE#         344
  C:8FB0H         LINE#         345
  C:8FBFH         LINE#         346
  C:8FCCH         LINE#         348
  C:8FD2H         LINE#         349
  C:8FD2H         LINE#         350
  C:8FD4H         LINE#         351
  C:8FD7H         LINE#         352
  C:8FD7H         LINE#         353
  -------         ENDPROC       _TX3_WRITE2BUFF
  -------         PROC          _PRINTSTRING3
  X:10B7H         SYMBOL        puts
  C:8BCEH         LINE#         355
BL51 BANKED LINKER/LOCATER V6.22.2.0                                                  08/04/2022  16:30:25  PAGE 129


  C:8BD9H         LINE#         356
  C:8BD9H         LINE#         357
  C:8BE9H         LINE#         358
  C:8BE9H         LINE#         359
  C:8BFEH         LINE#         360
  C:8C00H         LINE#         361
  -------         ENDPROC       _PRINTSTRING3
  -------         PROC          UART3_INT
  C:779DH         LINE#         363
  C:77B0H         LINE#         365
  C:77B5H         LINE#         366
  C:77B5H         LINE#         367
  C:77B8H         LINE#         368
  C:77BEH         LINE#         369
  C:77BEH         LINE#         370
  C:77D1H         LINE#         371
  C:77EAH         LINE#         372
  C:77F0H         LINE#         377
  C:77F0H         LINE#         378
  C:77F0H         LINE#         380
  C:77F5H         LINE#         381
  C:77F5H         LINE#         382
  C:77F8H         LINE#         383
  C:7805H         LINE#         384
  C:7805H         LINE#         385
  C:7812H         LINE#         386
  C:781FH         LINE#         387
  C:7821H         LINE#         388
  C:7826H         LINE#         389
  C:7826H         LINE#         390
  -------         ENDPROC       UART3_INT
  -------         PROC          UART3CLEAR
  C:94FAH         LINE#         392
  C:94FAH         LINE#         393
  C:94FAH         LINE#         394
  C:9507H         LINE#         395
  C:950CH         LINE#         396
  C:9512H         LINE#         397
  -------         ENDPROC       UART3CLEAR
  -------         PROC          UARTTASK
  C:88BFH         LINE#         463
  C:88BFH         LINE#         464
  C:88BFH         LINE#         466
  C:88C5H         LINE#         467
  C:88C5H         LINE#         468
  C:88C9H         LINE#         469
  C:88C9H         LINE#         470
  C:88D8H         LINE#         471
  C:88D8H         LINE#         472
  C:88DEH         LINE#         473
  C:88E0H         LINE#         475
  C:88E0H         LINE#         476
  C:88E3H         LINE#         477
  C:88E3H         LINE#         478
  C:88E3H         LINE#         479
  C:88E3H         LINE#         482
  C:88E9H         LINE#         483
BL51 BANKED LINKER/LOCATER V6.22.2.0                                                  08/04/2022  16:30:25  PAGE 130


  C:88E9H         LINE#         484
  C:88EDH         LINE#         485
  C:88EDH         LINE#         486
  C:88FCH         LINE#         487
  C:88FCH         LINE#         488
  C:8902H         LINE#         489
  C:8903H         LINE#         491
  C:8903H         LINE#         492
  C:8906H         LINE#         493
  C:8906H         LINE#         494
  C:8906H         LINE#         495
  C:8906H         LINE#         513
  -------         ENDPROC       UARTTASK
  -------         ENDMOD        UART

  -------         MODULE        TIMER
  C:0000H         SYMBOL        _ICE_DUMMY_
  D:0080H         PUBLIC        P0
  D:0090H         PUBLIC        P1
  C:004EH         PUBLIC        timer0_int
  D:00A0H         PUBLIC        P2
  C:8E3BH         PUBLIC        timer1_int
  D:00B0H         PUBLIC        P3
  D:00C0H         PUBLIC        P4
  D:00C8H         PUBLIC        P5
  C:8A83H         PUBLIC        timer4_int
  D:00E8H         PUBLIC        P6
  D:00F8H         PUBLIC        P7
  D:00A8H         PUBLIC        IE
  D:00B8H         PUBLIC        IP
  D:00D8H         PUBLIC        CCON
  D:0098H         PUBLIC        SCON
  D:0089H         PUBLIC        TMOD
  D:0088H         PUBLIC        TCON
  B:00E8H.2       PUBLIC        P62
  C:4F81H         PUBLIC        _Timer_Inilize
  D:00AFH         PUBLIC        IE2
  D:00F0H         PUBLIC        B
  D:008EH         PUBLIC        AUXR
  B:0023H.3       PUBLIC        Timer0_Irq
  D:00E0H         PUBLIC        ACC
  B:00A8H.1       PUBLIC        ET0
  B:00A8H.3       PUBLIC        ET1
  D:008CH         PUBLIC        TH0
  D:008DH         PUBLIC        TH1
  D:00D2H         PUBLIC        TH4
  D:008AH         PUBLIC        TL0
  D:008BH         PUBLIC        TL1
  B:00B8H.1       PUBLIC        PT0
  D:00D3H         PUBLIC        TL4
  B:00B8H.3       PUBLIC        PT1
  B:0088H.4       PUBLIC        TR0
  B:0088H.6       PUBLIC        TR1
  D:00D1H         PUBLIC        T4T3M
  D:00B7H         PUBLIC        IPH
  D:008FH         PUBLIC        INT_CLKO
  X:138CH         PUBLIC        usTime
BL51 BANKED LINKER/LOCATER V6.22.2.0                                                  08/04/2022  16:30:25  PAGE 131


  D:00D0H         PUBLIC        PSW
  -------         PROC          TIMER0_INT
  C:004EH         LINE#         9
  C:006BH         LINE#         11
  C:006DH         LINE#         13
  C:0070H         LINE#         15
  -------         ENDPROC       TIMER0_INT
  -------         PROC          TIMER1_INT
  C:8E3BH         LINE#         20
  C:8E43H         LINE#         22
  C:8E49H         LINE#         27
  C:8E54H         LINE#         28
  C:8E54H         LINE#         29
  C:8E56H         LINE#         30
  C:8E5EH         LINE#         31
  C:8E5EH         LINE#         33
  -------         ENDPROC       TIMER1_INT
  -------         PROC          TIMER4_INT
  C:8A83H         LINE#         51
  C:8AA0H         LINE#         54
  C:8AA3H         LINE#         56
  -------         ENDPROC       TIMER4_INT
  -------         PROC          _TIMER_INILIZE
  D:0005H         SYMBOL        TIM
  D:0001H         SYMBOL        TIMx
  C:4F81H         LINE#         66
  C:4F83H         LINE#         67
  C:4F83H         LINE#         69
  C:4F89H         LINE#         70
  C:4F89H         LINE#         71
  C:4F8BH         LINE#         72
  C:4F98H         LINE#         73
  C:4F9AH         LINE#         74
  C:4FA9H         LINE#         75
  C:4FD7H         LINE#         77
  C:4FE3H         LINE#         78
  C:4FEAH         LINE#         79
  C:4FF7H         LINE#         80
  C:4FFDH         LINE#         81
  C:5006H         LINE#         82
  C:5009H         LINE#         83
  C:5017H         LINE#         84
  C:501AH         LINE#         86
  C:502CH         LINE#         87
  C:5037H         LINE#         88
  C:503AH         LINE#         89
  C:503AH         LINE#         92
  C:5042H         LINE#         93
  C:5042H         LINE#         94
  C:5044H         LINE#         95
  C:5051H         LINE#         96
  C:5053H         LINE#         97
  C:5062H         LINE#         98
  C:5090H         LINE#         99
  C:509CH         LINE#         100
  C:50A3H         LINE#         101
  C:50B0H         LINE#         102
BL51 BANKED LINKER/LOCATER V6.22.2.0                                                  08/04/2022  16:30:25  PAGE 132


  C:50B6H         LINE#         103
  C:50BFH         LINE#         104
  C:50C2H         LINE#         105
  C:50D0H         LINE#         106
  C:50D3H         LINE#         108
  C:50E5H         LINE#         109
  C:50F0H         LINE#         110
  C:50F3H         LINE#         111
  C:50F3H         LINE#         152
  C:50F8H         LINE#         153
  C:50F8H         LINE#         154
  C:50FBH         LINE#         155
  C:5109H         LINE#         156
  C:510CH         LINE#         157
  C:511BH         LINE#         158
  C:5122H         LINE#         159
  C:512DH         LINE#         160
  C:513BH         LINE#         161
  C:513EH         LINE#         162
  C:514CH         LINE#         163
  C:514FH         LINE#         165
  C:515FH         LINE#         166
  C:516BH         LINE#         167
  C:516EH         LINE#         168
  C:516EH         LINE#         170
  C:5170H         LINE#         171
  -------         ENDPROC       _TIMER_INILIZE
  -------         ENDMOD        TIMER

  -------         MODULE        GPIO
  C:0000H         SYMBOL        _ICE_DUMMY_
  D:0093H         PUBLIC        P0M1
  D:0092H         PUBLIC        P1M0
  D:0096H         PUBLIC        P2M0
  D:0091H         PUBLIC        P1M1
  D:0080H         PUBLIC        P0
  D:00B2H         PUBLIC        P3M0
  D:0095H         PUBLIC        P2M1
  D:0090H         PUBLIC        P1
  D:00B4H         PUBLIC        P4M0
  D:00B1H         PUBLIC        P3M1
  D:00A0H         PUBLIC        P2
  D:00CAH         PUBLIC        P5M0
  D:00B3H         PUBLIC        P4M1
  D:00B0H         PUBLIC        P3
  D:00CCH         PUBLIC        P6M0
  D:00C9H         PUBLIC        P5M1
  D:00C0H         PUBLIC        P4
  D:00E2H         PUBLIC        P7M0
  D:00CBH         PUBLIC        P6M1
  D:00C8H         PUBLIC        P5
  D:00E8H         PUBLIC        P6
  D:00E1H         PUBLIC        P7M1
  D:00F8H         PUBLIC        P7
  D:00A8H         PUBLIC        IE
  D:00B8H         PUBLIC        IP
  D:00D8H         PUBLIC        CCON
BL51 BANKED LINKER/LOCATER V6.22.2.0                                                  08/04/2022  16:30:25  PAGE 133


  D:0098H         PUBLIC        SCON
  D:0088H         PUBLIC        TCON
  D:00F0H         PUBLIC        B
  D:00E0H         PUBLIC        ACC
  C:46CBH         PUBLIC        _GPIO_Inilize
  D:00D0H         PUBLIC        PSW
  D:0094H         PUBLIC        P0M0
  -------         PROC          _GPIO_INILIZE
  D:0007H         SYMBOL        GPIO
  D:0001H         SYMBOL        GPIOx
  C:46CBH         LINE#         10
  C:46CBH         LINE#         11
  C:46CBH         LINE#         12
  C:46D4H         LINE#         13
  C:46E0H         LINE#         14
  C:46E3H         LINE#         15
  C:46E3H         LINE#         16
  C:46F1H         LINE#         17
  C:4702H         LINE#         18
  C:4713H         LINE#         19
  C:4724H         LINE#         20
  C:4724H         LINE#         21
  C:4729H         LINE#         22
  C:4729H         LINE#         23
  C:473AH         LINE#         24
  C:4749H         LINE#         25
  C:4759H         LINE#         26
  C:476CH         LINE#         27
  C:476CH         LINE#         28
  C:4771H         LINE#         29
  C:4771H         LINE#         30
  C:4782H         LINE#         31
  C:4791H         LINE#         32
  C:47A1H         LINE#         33
  C:47B4H         LINE#         34
  C:47B4H         LINE#         35
  C:47B9H         LINE#         36
  C:47B9H         LINE#         37
  C:47CAH         LINE#         38
  C:47D9H         LINE#         39
  C:47E9H         LINE#         40
  C:47FCH         LINE#         41
  C:47FCH         LINE#         42
  C:4801H         LINE#         43
  C:4801H         LINE#         44
  C:4812H         LINE#         45
  C:4821H         LINE#         46
  C:4831H         LINE#         47
  C:4844H         LINE#         48
  C:4844H         LINE#         49
  C:4849H         LINE#         50
  C:4849H         LINE#         51
  C:485AH         LINE#         52
  C:4869H         LINE#         53
  C:4879H         LINE#         54
  C:488CH         LINE#         55
  C:488CH         LINE#         56
BL51 BANKED LINKER/LOCATER V6.22.2.0                                                  08/04/2022  16:30:25  PAGE 134


  C:4891H         LINE#         57
  C:4891H         LINE#         58
  C:48A2H         LINE#         59
  C:48B1H         LINE#         60
  C:48C1H         LINE#         61
  C:48D4H         LINE#         62
  C:48D4H         LINE#         63
  C:48D9H         LINE#         64
  C:48D9H         LINE#         65
  C:48EAH         LINE#         66
  C:48F9H         LINE#         67
  C:4909H         LINE#         68
  C:491CH         LINE#         69
  C:491CH         LINE#         70
  C:491EH         LINE#         71
  -------         ENDPROC       _GPIO_INILIZE
  -------         ENDMOD        GPIO

  -------         MODULE        EXTI
  C:0000H         SYMBOL        _ICE_DUMMY_
  D:0080H         PUBLIC        P0
  D:0090H         PUBLIC        P1
  D:00A0H         PUBLIC        P2
  D:00B0H         PUBLIC        P3
  D:00C0H         PUBLIC        P4
  D:00C8H         PUBLIC        P5
  D:00E8H         PUBLIC        P6
  D:00F8H         PUBLIC        P7
  D:00A8H         PUBLIC        IE
  D:00B8H         PUBLIC        IP
  D:00D8H         PUBLIC        CCON
  C:89CDH         PUBLIC        Ext_INT0
  D:0098H         PUBLIC        SCON
  D:0088H         PUBLIC        TCON
  B:0088H.1       PUBLIC        IE0
  D:00F0H         PUBLIC        B
  D:00E0H         PUBLIC        ACC
  B:00A8H.0       PUBLIC        EX0
  B:0088H.0       PUBLIC        IT0
  B:00B8H.0       PUBLIC        PX0
  D:00B7H         PUBLIC        IPH
  C:862CH         PUBLIC        _Ext_Inilize
  D:00D0H         PUBLIC        PSW
  -------         PROC          EXT_INT0
  C:89CDH         LINE#         8
  C:89EAH         LINE#         11
  C:89EDH         LINE#         12
  C:89F2H         LINE#         13
  -------         ENDPROC       EXT_INT0
  -------         PROC          _EXT_INILIZE
  D:0007H         SYMBOL        EXT
  D:0001H         SYMBOL        INTx
  C:862CH         LINE#         51
  C:862CH         LINE#         52
  C:862CH         LINE#         55
  C:862FH         LINE#         56
  C:862FH         LINE#         57
BL51 BANKED LINKER/LOCATER V6.22.2.0                                                  08/04/2022  16:30:25  PAGE 135


  C:8631H         LINE#         58
  C:863EH         LINE#         59
  C:8640H         LINE#         60
  C:864FH         LINE#         61
  C:867DH         LINE#         62
  C:8687H         LINE#         63
  C:8689H         LINE#         64
  C:868CH         LINE#         65
  C:868CH         LINE#         104
  C:868EH         LINE#         105
  -------         ENDPROC       _EXT_INILIZE
  -------         ENDMOD        EXTI

  -------         MODULE        SPI
  C:0000H         SYMBOL        _ICE_DUMMY_
  D:0080H         PUBLIC        P0
  D:0090H         PUBLIC        P1
  C:8876H         PUBLIC        SPI_Transivion
  D:00A0H         PUBLIC        P2
  D:00B0H         PUBLIC        P3
  D:00C0H         PUBLIC        P4
  D:00C8H         PUBLIC        P5
  D:00E8H         PUBLIC        P6
  D:00F8H         PUBLIC        P7
  D:00CEH         PUBLIC        SPCTL
  D:00A2H         PUBLIC        P_SW1
  D:00A8H         PUBLIC        IE
  B:0023H.4       PUBLIC        B_SPI_Busy
  D:00B8H         PUBLIC        IP
  C:7837H         PUBLIC        _SPI_Flash_Read
  D:00D8H         PUBLIC        CCON
  D:0098H         PUBLIC        SCON
  D:0088H         PUBLIC        TCON
  B:00F8H.4       PUBLIC        P74
  X:11D3H         PUBLIC        SPI_RxCnt
  D:00AFH         PUBLIC        IE2
  D:00F0H         PUBLIC        B
  D:00E0H         PUBLIC        ACC
  X:11D4H         PUBLIC        SPI_RxTimerOut
  D:00CDH         PUBLIC        SPSTAT
  C:78D0H         PUBLIC        _SPI_Init
  C:9459H         PUBLIC        _SPI_ReadWriteByte
  X:11D5H         PUBLIC        SPI_RxBuffer
  D:00D0H         PUBLIC        PSW
  D:00CFH         PUBLIC        SPDAT
  -------         PROC          _SPI_INIT
  D:0001H         SYMBOL        SPIx
  C:78D0H         LINE#         29
  C:78D0H         LINE#         30
  C:78D0H         LINE#         31
  C:78DEH         LINE#         32
  C:78E1H         LINE#         33
  C:78ECH         LINE#         34
  C:78EFH         LINE#         35
  C:78FDH         LINE#         36
  C:7900H         LINE#         37
  C:790DH         LINE#         38
BL51 BANKED LINKER/LOCATER V6.22.2.0                                                  08/04/2022  16:30:25  PAGE 136


  C:7910H         LINE#         39
  C:791EH         LINE#         40
  C:7921H         LINE#         41
  C:792EH         LINE#         42
  C:7931H         LINE#         43
  C:793FH         LINE#         44
  C:7942H         LINE#         45
  C:7952H         LINE#         46
  C:7960H         LINE#         48
  C:7965H         LINE#         49
  C:7967H         LINE#         50
  -------         ENDPROC       _SPI_INIT
  -------         PROC          SPI_TRANSIVION
  C:8876H         LINE#         96
  C:8883H         LINE#         98
  C:8888H         LINE#         99
  C:8888H         LINE#         100
  C:888AH         LINE#         101
  C:888CH         LINE#         103
  C:888CH         LINE#         104
  C:8897H         LINE#         105
  C:88ABH         LINE#         106
  C:88B1H         LINE#         107
  C:88B1H         LINE#         108
  C:88B4H         LINE#         109
  -------         ENDPROC       SPI_TRANSIVION
  -------         PROC          L?0028
  -------         ENDPROC       L?0028
  -------         PROC          _SPI_READWRITEBYTE
  D:0007H         SYMBOL        dat
  C:9459H         LINE#         111
  C:9459H         LINE#         112
  C:9459H         LINE#         113
  C:945BH         LINE#         114
  C:945DH         LINE#         115
  C:9460H         LINE#         116
  C:9462H         LINE#         117
  C:9462H         LINE#         118
  -------         ENDPROC       _SPI_READWRITEBYTE
  -------         PROC          _SPI_FLASH_READ
  X:112CH         SYMBOL        pBuffer
  X:112FH         SYMBOL        ReadAddr
  X:1133H         SYMBOL        NumByteToRead
  -------         DO            
  X:1135H         SYMBOL        i
  X:1137H         SYMBOL        tmp
  -------         ENDDO         
  C:7837H         LINE#         139
  C:7846H         LINE#         140
  C:7846H         LINE#         141
  C:7846H         LINE#         142
  C:7848H         LINE#         143
  C:784FH         LINE#         144
  C:7854H         LINE#         145
  C:7859H         LINE#         146
  C:785EH         LINE#         147
  C:7869H         LINE#         148
BL51 BANKED LINKER/LOCATER V6.22.2.0                                                  08/04/2022  16:30:25  PAGE 137


  C:7885H         LINE#         149
  C:7885H         LINE#         150
  C:7896H         LINE#         151
  C:78BDH         LINE#         152
  C:78CDH         LINE#         153
  C:78CFH         LINE#         154
  -------         ENDPROC       _SPI_FLASH_READ
  -------         ENDMOD        SPI

  -------         MODULE        ?C?COPY
  C:09B6H         PUBLIC        ?C?COPY
  -------         ENDMOD        ?C?COPY

  -------         MODULE        ?C?CLDPTR
  C:09DCH         PUBLIC        ?C?CLDPTR
  -------         ENDMOD        ?C?CLDPTR

  -------         MODULE        ?C?CLDOPTR
  C:09F5H         PUBLIC        ?C?CLDOPTR
  -------         ENDMOD        ?C?CLDOPTR

  -------         MODULE        ?C?CSTPTR
  C:0A22H         PUBLIC        ?C?CSTPTR
  -------         ENDMOD        ?C?CSTPTR

  -------         MODULE        ?C?CSTOPTR
  C:0A34H         PUBLIC        ?C?CSTOPTR
  -------         ENDMOD        ?C?CSTOPTR

  -------         MODULE        ?C?IMUL
  C:0A56H         PUBLIC        ?C?IMUL
  -------         ENDMOD        ?C?IMUL

  -------         MODULE        ?C?UIDIV
  C:0A68H         PUBLIC        ?C?UIDIV
  -------         ENDMOD        ?C?UIDIV

  -------         MODULE        ?C?IILDX
  C:0ABDH         PUBLIC        ?C?IILDX
  -------         ENDMOD        ?C?IILDX

  -------         MODULE        ?C?ILDIX
  C:0AD3H         PUBLIC        ?C?ILDIX
  -------         ENDMOD        ?C?ILDIX

  -------         MODULE        ?C?ILDPTR
  C:0AE9H         PUBLIC        ?C?ILDPTR
  -------         ENDMOD        ?C?ILDPTR

  -------         MODULE        ?C?ILDOPTR
  C:0B14H         PUBLIC        ?C?ILDOPTR
  -------         ENDMOD        ?C?ILDOPTR

  -------         MODULE        ?C?LMUL
  C:0B4CH         PUBLIC        ?C?LMUL
  -------         ENDMOD        ?C?LMUL

BL51 BANKED LINKER/LOCATER V6.22.2.0                                                  08/04/2022  16:30:25  PAGE 138


  -------         MODULE        ?C?ULDIV
  C:0BD7H         PUBLIC        ?C?ULDIV
  -------         ENDMOD        ?C?ULDIV

  -------         MODULE        ?C?ULCMP
  C:0C69H         PUBLIC        ?C?ULCMP
  -------         ENDMOD        ?C?ULCMP

  -------         MODULE        ?C?ULSHR
  C:0C7AH         PUBLIC        ?C?ULSHR
  -------         ENDMOD        ?C?ULSHR

  -------         MODULE        ?C?LSHL
  C:0C8DH         PUBLIC        ?C?LSHL
  -------         ENDMOD        ?C?LSHL

  -------         MODULE        ?C?LLDOPTR
  C:0CA0H         PUBLIC        ?C?LLDOPTR
  -------         ENDMOD        ?C?LLDOPTR

  -------         MODULE        ?C?LLDOPTR0
  C:0CD0H         PUBLIC        ?C?LLDOPTR0
  -------         ENDMOD        ?C?LLDOPTR0

  -------         MODULE        ?C?LSTXDATA
  C:0D00H         PUBLIC        ?C?LSTXDATA
  -------         ENDMOD        ?C?LSTXDATA

  -------         MODULE        ?C?LSTKXDATA
  C:0D0CH         PUBLIC        ?C?LSTKXDATA
  -------         ENDMOD        ?C?LSTKXDATA

  -------         MODULE        ?C?OFFXADD
  C:0D3DH         PUBLIC        ?C?OFFXADD
  -------         ENDMOD        ?C?OFFXADD

  -------         MODULE        ?C?CCASE
  C:0D49H         PUBLIC        ?C?CCASE
  -------         ENDMOD        ?C?CCASE

  -------         MODULE        ?C?ICALL
  C:0D6FH         PUBLIC        ?C?ICALL
  C:0D73H         PUBLIC        ?C?ICALL2
  -------         ENDMOD        ?C?ICALL

  -------         MODULE        PRINTF
  X:1124H         PUBLIC        ?_PRINTF517?BYTE
  X:1124H         PUBLIC        ?_PRINTF?BYTE
  X:1124H         PUBLIC        ?_SPRINTF517?BYTE
  X:1124H         PUBLIC        ?_SPRINTF?BYTE
  C:2D19H         PUBLIC        _PRINTF
  C:2D19H         PUBLIC        _PRINTF517
  C:2D13H         PUBLIC        _SPRINTF
  C:2D13H         PUBLIC        _SPRINTF517
  -------         ENDMOD        PRINTF

  -------         MODULE        SCANF
BL51 BANKED LINKER/LOCATER V6.22.2.0                                                  08/04/2022  16:30:25  PAGE 139


  X:10D5H         PUBLIC        ?_SCANF517?BYTE
  X:10D5H         PUBLIC        ?_SCANF?BYTE
  X:10D5H         PUBLIC        ?_SSCANF517?BYTE
  X:10D5H         PUBLIC        ?_SSCANF?BYTE
  C:3A32H         PUBLIC        _SCANF
  C:3A32H         PUBLIC        _SCANF517
  C:3A2EH         PUBLIC        _SSCANF
  C:3A2EH         PUBLIC        _SSCANF517
  -------         ENDMOD        SCANF

  -------         MODULE        ?C?ISTPTR
  C:0D75H         PUBLIC        ?C?ISTPTR
  -------         ENDMOD        ?C?ISTPTR

  -------         MODULE        ?C?LNEG
  C:0D94H         PUBLIC        ?C?LNEG
  -------         ENDMOD        ?C?LNEG

  -------         MODULE        ?C?LSTPTR
  C:0DA2H         PUBLIC        ?C?LSTPTR
  -------         ENDMOD        ?C?LSTPTR

  -------         MODULE        ?C?LLDIDATA
  C:0DBCH         PUBLIC        ?C?LLDIDATA
  -------         ENDMOD        ?C?LLDIDATA

  -------         MODULE        ?C?LLDXDATA
  C:0DC8H         PUBLIC        ?C?LLDXDATA
  -------         ENDMOD        ?C?LLDXDATA

  -------         MODULE        ?C?LLDPDATA
  C:0DD4H         PUBLIC        ?C?LLDPDATA
  -------         ENDMOD        ?C?LLDPDATA

  -------         MODULE        ?C?LLDCODE
  C:0DE0H         PUBLIC        ?C?LLDCODE
  -------         ENDMOD        ?C?LLDCODE

  -------         MODULE        ?C?LLDIDATA0
  C:0DF0H         PUBLIC        ?C?LLDIDATA0
  -------         ENDMOD        ?C?LLDIDATA0

  -------         MODULE        ?C?LLDXDATA0
  C:0DFDH         PUBLIC        ?C?LLDXDATA0
  -------         ENDMOD        ?C?LLDXDATA0

  -------         MODULE        ?C?LLDPDATA0
  C:0E09H         PUBLIC        ?C?LLDPDATA0
  -------         ENDMOD        ?C?LLDPDATA0

  -------         MODULE        ?C?LLDCODE0
  C:0E16H         PUBLIC        ?C?LLDCODE0
  -------         ENDMOD        ?C?LLDCODE0

  -------         MODULE        ?C?PLDXDATA
  C:0E26H         PUBLIC        ?C?PLDXDATA
  -------         ENDMOD        ?C?PLDXDATA
BL51 BANKED LINKER/LOCATER V6.22.2.0                                                  08/04/2022  16:30:25  PAGE 140



  -------         MODULE        ?C?PLDIXDATA
  C:0E2FH         PUBLIC        ?C?PLDIXDATA
  -------         ENDMOD        ?C?PLDIXDATA

  -------         MODULE        ?C?PILDXDATA
  C:0E46H         PUBLIC        ?C?PILDXDATA
  -------         ENDMOD        ?C?PILDXDATA

  -------         MODULE        ?C?PSTXDATA
  C:0E5DH         PUBLIC        ?C?PSTXDATA
  -------         ENDMOD        ?C?PSTXDATA

  -------         MODULE        GETCHAR
  B:0023H.5       PUBLIC        ?C?CHARLOADED
  X:138DH         PUBLIC        ?_UNGETCHAR?BYTE
  C:9673H         PUBLIC        GETCHAR
  -------         ENDMOD        GETCHAR

  -------         MODULE        UNGETC
  C:97A1H         PUBLIC        _UNGETCHAR
  -------         ENDMOD        UNGETC

  -------         MODULE        ISSPACE
  C:9687H         PUBLIC        _isspace
  -------         ENDMOD        ISSPACE

  -------         MODULE        ?C?LSTIDATA
  C:0E66H         PUBLIC        ?C?LSTIDATA
  -------         ENDMOD        ?C?LSTIDATA

  -------         MODULE        ?C?LSTPDATA
  C:0E72H         PUBLIC        ?C?LSTPDATA
  -------         ENDMOD        ?C?LSTPDATA

  -------         MODULE        _GETKEY
  C:978EH         PUBLIC        _GETKEY
  -------         ENDMOD        _GETKEY

*** WARNING L16: UNCALLED SEGMENT, IGNORED FOR OVERLAY PROCESS
    SEGMENT: ?PR?_DISPLAYCSQ?LCD12864

Program Size: data=17.6 xdata=5006 code=38812
LINK/LOCATE RUN COMPLETE.  1 WARNING(S),  0 ERROR(S)
