BL51 BANKED LINKER/LOCATER V6.22.2.0                                                    08/04/2022  14:17:00  PAGE 1


BL51 BANKED LINKER/LOCATER V6.22.2.0, INVOKED BY:
D:\KEIL-C51\C51\BIN\BL51.EXE .\Objects\STARTUP.obj, .\Objects\main.obj, .\Objects\Driver.obj, .\Objects\LCD12864.obj, .\
>> Objects\GSM.obj, .\Objects\NameList.obj, .\Objects\Eeprom.obj, .\Objects\SysStatus.obj, .\Objects\UnlockPassword.obj,
>>  .\Objects\SysString.obj, .\Objects\Card.obj, .\Objects\CardRead.obj, .\Objects\Audio.obj, .\Objects\UART.obj, .\Obje
>> cts\timer.obj, .\Objects\GPIO.obj, .\Objects\Exti.obj, .\Objects\spi.obj TO .\Objects\GSM PRINT (.\Listings\GSM.m51) 
>> RAMSIZE (256)


MEMORY MODEL: LARGE


INPUT MODULES INCLUDED:
  .\Objects\STARTUP.obj (?C_STARTUP)
  .\Objects\main.obj (MAIN)
  .\Objects\Driver.obj (DRIVER)
  .\Objects\LCD12864.obj (LCD12864)
  .\Objects\GSM.obj (GSM)
  .\Objects\NameList.obj (NAMELIST)
  .\Objects\Eeprom.obj (EEPROM)
  .\Objects\SysStatus.obj (SYSSTATUS)
  .\Objects\UnlockPassword.obj (UNLOCKPASSWORD)
  .\Objects\SysString.obj (SYSSTRING)
  .\Objects\Card.obj (CARD)
  .\Objects\CardRead.obj (CARDREAD)
  .\Objects\Audio.obj (AUDIO)
  .\Objects\UART.obj (UART)
  .\Objects\timer.obj (TIMER)
  .\Objects\GPIO.obj (GPIO)
  .\Objects\Exti.obj (EXTI)
  .\Objects\spi.obj (SPI)
  D:\KEIL-C51\C51\LIB\C51L.LIB (?C_INIT)
  D:\KEIL-C51\C51\LIB\C51L.LIB (?C?COPY)
  D:\KEIL-C51\C51\LIB\C51L.LIB (?C?CLDPTR)
  D:\KEIL-C51\C51\LIB\C51L.LIB (?C?CLDOPTR)
  D:\KEIL-C51\C51\LIB\C51L.LIB (?C?CSTPTR)
  D:\KEIL-C51\C51\LIB\C51L.LIB (?C?CSTOPTR)
  D:\KEIL-C51\C51\LIB\C51L.LIB (?C?IMUL)
  D:\KEIL-C51\C51\LIB\C51L.LIB (?C?UIDIV)
  D:\KEIL-C51\C51\LIB\C51L.LIB (?C?IILDX)
  D:\KEIL-C51\C51\LIB\C51L.LIB (?C?ILDIX)
  D:\KEIL-C51\C51\LIB\C51L.LIB (?C?ILDPTR)
  D:\KEIL-C51\C51\LIB\C51L.LIB (?C?ILDOPTR)
  D:\KEIL-C51\C51\LIB\C51L.LIB (?C?LMUL)
  D:\KEIL-C51\C51\LIB\C51L.LIB (?C?ULDIV)
  D:\KEIL-C51\C51\LIB\C51L.LIB (?C?ULCMP)
  D:\KEIL-C51\C51\LIB\C51L.LIB (?C?ULSHR)
  D:\KEIL-C51\C51\LIB\C51L.LIB (?C?LSHL)
  D:\KEIL-C51\C51\LIB\C51L.LIB (?C?LLDOPTR)
  D:\KEIL-C51\C51\LIB\C51L.LIB (?C?LLDOPTR0)
  D:\KEIL-C51\C51\LIB\C51L.LIB (?C?LSTXDATA)
  D:\KEIL-C51\C51\LIB\C51L.LIB (?C?LSTKXDATA)
  D:\KEIL-C51\C51\LIB\C51L.LIB (?C?OFFXADD)
  D:\KEIL-C51\C51\LIB\C51L.LIB (?C?CCASE)
  D:\KEIL-C51\C51\LIB\C51L.LIB (?C?ICALL)
  D:\KEIL-C51\C51\LIB\C51L.LIB (PRINTF)
  D:\KEIL-C51\C51\LIB\C51L.LIB (SCANF)
  D:\KEIL-C51\C51\LIB\C51L.LIB (?C?ISTPTR)
  D:\KEIL-C51\C51\LIB\C51L.LIB (?C?LNEG)
BL51 BANKED LINKER/LOCATER V6.22.2.0                                                  08/04/2022  14:17:00  PAGE 2


  D:\KEIL-C51\C51\LIB\C51L.LIB (?C?LSTPTR)
  D:\KEIL-C51\C51\LIB\C51L.LIB (?C?LLDIDATA)
  D:\KEIL-C51\C51\LIB\C51L.LIB (?C?LLDXDATA)
  D:\KEIL-C51\C51\LIB\C51L.LIB (?C?LLDPDATA)
  D:\KEIL-C51\C51\LIB\C51L.LIB (?C?LLDCODE)
  D:\KEIL-C51\C51\LIB\C51L.LIB (?C?LLDIDATA0)
  D:\KEIL-C51\C51\LIB\C51L.LIB (?C?LLDXDATA0)
  D:\KEIL-C51\C51\LIB\C51L.LIB (?C?LLDPDATA0)
  D:\KEIL-C51\C51\LIB\C51L.LIB (?C?LLDCODE0)
  D:\KEIL-C51\C51\LIB\C51L.LIB (?C?PLDXDATA)
  D:\KEIL-C51\C51\LIB\C51L.LIB (?C?PLDIXDATA)
  D:\KEIL-C51\C51\LIB\C51L.LIB (?C?PILDXDATA)
  D:\KEIL-C51\C51\LIB\C51L.LIB (?C?PSTXDATA)
  D:\KEIL-C51\C51\LIB\C51L.LIB (GETCHAR)
  D:\KEIL-C51\C51\LIB\C51L.LIB (UNGETC)
  D:\KEIL-C51\C51\LIB\C51L.LIB (ISSPACE)
  D:\KEIL-C51\C51\LIB\C51L.LIB (?C?LSTIDATA)
  D:\KEIL-C51\C51\LIB\C51L.LIB (?C?LSTPDATA)
  D:\KEIL-C51\C51\LIB\C51L.LIB (_GETKEY)


LINK MAP OF MODULE:  .\Objects\GSM (?C_STARTUP)


            TYPE    BASE      LENGTH    RELOCATION   SEGMENT NAME
            -----------------------------------------------------

            * * * * * * *   D A T A   M E M O R Y   * * * * * * *
            REG     0000H     0008H     ABSOLUTE     "REG BANK 0"
            DATA    0008H     0005H     UNIT         _DATA_GROUP_
                    000DH     0013H                  *** GAP ***
            BIT     0020H.0   0001H.2   UNIT         _BIT_GROUP_
            BIT     0021H.2   0000H.3   UNIT         ?BI?GSM
            BIT     0021H.5   0000H.3   UNIT         ?BI?UNLOCKPASSWORD
            BIT     0022H.0   0000H.3   UNIT         ?BI?CARDREAD
            BIT     0022H.3   0000H.3   UNIT         ?BI?AUDIO
            BIT     0022H.6   0000H.2   UNIT         ?BI?LCD12864
            BIT     0023H.0   0000H.2   UNIT         ?BI?CARD
            BIT     0023H.2   0000H.1   UNIT         ?BI?NAMELIST
            BIT     0023H.3   0000H.1   UNIT         ?BI?TIMER
            BIT     0023H.4   0000H.1   UNIT         ?BI?SPI
            BIT     0023H.5   0000H.1   UNIT         ?BI?GETCHAR
                    0023H.6   0000H.2                *** GAP ***
            IDATA   0024H     0001H     UNIT         ?STACK

            * * * * * * *  X D A T A   M E M O R Y  * * * * * * *
            XDATA   0000H     0896H     UNIT         ?XD?AUDIO
            XDATA   0896H     0406H     UNIT         ?XD?LCD12864
            XDATA   0C9CH     03D8H     UNIT         ?XD?UART
            XDATA   1074H     00D1H     UNIT         _XDATA_GROUP_
            XDATA   1145H     0086H     UNIT         ?XD?SYSSTATUS
            XDATA   11CBH     0082H     UNIT         ?XD?SPI
            XDATA   124DH     0056H     UNIT         ?XD?GSM
            XDATA   12A3H     0056H     UNIT         ?XD?NAMELIST
            XDATA   12F9H     0052H     UNIT         ?XD?CARDREAD
            XDATA   134BH     0014H     UNIT         ?XD?SYSSTRING
            XDATA   135FH     000CH     UNIT         ?XD?UNLOCKPASSWORD
BL51 BANKED LINKER/LOCATER V6.22.2.0                                                  08/04/2022  14:17:00  PAGE 3


            XDATA   136BH     000BH     UNIT         ?XD?DRIVER
            XDATA   1376H     0008H     UNIT         ?XD?CARD
            XDATA   137EH     0003H     UNIT         ?XD?MAIN
            XDATA   1381H     0003H     UNIT         ?XD?_DISPLAYCSQ?LCD12864
            XDATA   1384H     0001H     UNIT         ?XD?TIMER
            XDATA   1385H     0001H     UNIT         ?XD?GETCHAR

            * * * * * * *   C O D E   M E M O R Y   * * * * * * *
            CODE    0000H     0003H     ABSOLUTE     
            CODE    0003H     0003H     ABSOLUTE     
                    0006H     0005H                  *** GAP ***
            CODE    000BH     0003H     ABSOLUTE     
            CODE    000EH     000AH     UNIT         ?PR?CLEARNAMELIST?NAMELIST
                    0018H     0003H                  *** GAP ***
            CODE    001BH     0003H     ABSOLUTE     
                    001EH     0005H                  *** GAP ***
            CODE    0023H     0003H     ABSOLUTE     
            CODE    0026H     0025H     UNIT         ?PR?EDITNAMEITEMCON?NAMELIST
            CODE    004BH     0003H     ABSOLUTE     
            CODE    004EH     003DH     UNIT         ?PR?TIMER0_INT?TIMER
            CODE    008BH     0003H     ABSOLUTE     
            CODE    008EH     0015H     UNIT         ?PR?IIC_NACK?EEPROM
            CODE    00A3H     0003H     ABSOLUTE     
            CODE    00A6H     0840H     UNIT         ?CO?LCD12864
            CODE    08E6H     0598H     UNIT         ?C?LIB_CODE
            CODE    0E7EH     04E4H     UNIT         ?PR?_REVNAMELIST?NAMELIST
            CODE    1362H     04E1H     UNIT         ?PR?CHECKRFIDCARD?CARDREAD
            CODE    1843H     048AH     UNIT         ?PR?_MODEMRECEIVEHANDLE?GSM
            CODE    1CCDH     044CH     UNIT         ?PR?_UART_CONFIGURATION?UART
            CODE    2119H     0425H     UNIT         ?PR?_PSWEDITKEY?UNLOCKPASSWORD
            CODE    253EH     03F6H     UNIT         ?PR?_NAMEEDITKEY?NAMELIST
            CODE    2934H     037AH     UNIT         ?CO?SYSSTRING
            CODE    2CAEH     0365H     UNIT         ?PR?PRINTF?PRINTF
            CODE    3013H     033BH     UNIT         ?PR?GSM_INITTASK?GSM
            CODE    334EH     0331H     UNIT         ?PR?_SHOWPSW?UNLOCKPASSWORD
            CODE    367FH     032BH     UNIT         ?CO?GSM
            CODE    39AAH     0322H     UNIT         ?PR?SCANF?SCANF
            CODE    3CCCH     02C1H     UNIT         ?PR?_SYSPSWEDITKEY?UNLOCKPASSWORD
            CODE    3F8DH     027FH     UNIT         ?PR?_SHOWCARD?CARD
            CODE    420CH     026EH     UNIT         ?PR?MAIN?MAIN
            CODE    447AH     0256H     UNIT         ?PR?_SHOWNAME?NAMELIST
            CODE    46D0H     0254H     UNIT         ?PR?_GPIO_INILIZE?GPIO
            CODE    4924H     022FH     UNIT         ?PR?_NAMEDELETEKEY?NAMELIST
            CODE    4B53H     0216H     UNIT         ?C_INITSEG
            CODE    4D69H     0215H     UNIT         ?PR?SHOWSUBPARA?SYSSTATUS
            CODE    4F7EH     01F0H     UNIT         ?PR?_TIMER_INILIZE?TIMER
            CODE    516EH     01CEH     UNIT         ?PR?_SAVESUBPARA?SYSSTATUS
            CODE    533CH     01B8H     UNIT         ?PR?_CARDDELETEKEY?CARD
            CODE    54F4H     01B2H     UNIT         ?PR?_CARDEDITKEY?CARD
            CODE    56A6H     01AAH     UNIT         ?PR?_PSWDELETEKEY?UNLOCKPASSWORD
            CODE    5850H     0188H     UNIT         ?PR?_SYSSUBSETKEY?SYSSTATUS
            CODE    59D8H     0183H     UNIT         ?PR?WAVREADTASK?AUDIO
            CODE    5B5BH     0180H     UNIT         ?PR?_SYSKEY?SYSSTATUS
            CODE    5CDBH     017AH     UNIT         ?PR?_ATCMDCB_CPIN?GSM
            CODE    5E55H     0172H     UNIT         ?PR?_SUBSETCON?SYSSTATUS
            CODE    5FC7H     0170H     UNIT         ?PR?_ATCMDCB_CREG?GSM
            CODE    6137H     0169H     UNIT         ?PR?_ATCMDCB_CSQ?GSM
BL51 BANKED LINKER/LOCATER V6.22.2.0                                                  08/04/2022  14:17:00  PAGE 4


            CODE    62A0H     0153H     UNIT         ?PR?INITSYSPARA?SYSSTATUS
            CODE    63F3H     014DH     UNIT         ?PR?_WRITELCD?LCD12864
            CODE    6540H     014CH     UNIT         ?PR?_SYSIDLEKEY?SYSSTATUS
            CODE    668CH     0148H     UNIT         ?PR?_PSWINPUTKEY?UNLOCKPASSWORD
            CODE    67D4H     0142H     UNIT         ?PR?SKEYSCAN?DRIVER
            CODE    6916H     0121H     UNIT         ?PR?_GSMUARTCMD?GSM
            CODE    6A37H     011EH     UNIT         ?PR?KEYSCAN?DRIVER
            CODE    6B55H     010DH     UNIT         ?PR?CARDIRQ?CARDREAD
            CODE    6C62H     0104H     UNIT         ?PR?_SYSINPUTROOM?SYSSTATUS
            CODE    6D66H     0100H     UNIT         ?PR?_INPUTSYSPSW?SYSSTATUS
            CODE    6E66H     00FDH     UNIT         ?CO?NAMELIST
            CODE    6F63H     00F8H     UNIT         ?PR?_LOOKFORSTR?DRIVER
            CODE    705BH     00ECH     UNIT         ?PR?_CALLBYNAMEITEM?NAMELIST
            CODE    7147H     00E8H     UNIT         ?PR?GPIO_CONFIG?DRIVER
            CODE    722FH     00DEH     UNIT         ?PR?_SHOWMAIN?SYSSTRING
            CODE    730DH     00DEH     UNIT         ?PR?_ADDCARDITEM?CARD
            CODE    73EBH     00DDH     UNIT         ?CO?SYSSTATUS
            CODE    74C8H     00D1H     UNIT         ?PR?_SYSSETTINGKEY?SYSSTATUS
            CODE    7599H     00C0H     UNIT         ?PR?NAMEEDITCHAGETYPE?NAMELIST
            CODE    7659H     00A1H     UNIT         ?PR?INITUSERPARA?SYSSTATUS
            CODE    76FAH     00A0H     UNIT         ?PR?_CHECKCARD?CARD
            CODE    779AH     009AH     UNIT         ?PR?UART3_INT?UART
            CODE    7834H     0099H     UNIT         ?PR?_SPI_FLASH_READ?SPI
            CODE    78CDH     0098H     UNIT         ?PR?_SPI_INIT?SPI
            CODE    7965H     0095H     UNIT         ?PR?_MP3_STARTPLAY?AUDIO
            CODE    79FAH     008EH     UNIT         ?PR?UART1_INT?UART
            CODE    7A88H     008CH     UNIT         ?C_C51STARTUP
            CODE    7B14H     008BH     UNIT         ?PR?_DISPLAYFL?LCD12864
            CODE    7B9FH     008BH     UNIT         ?PR?_WRITEBUF_AT24C02?EEPROM
            CODE    7C2AH     0085H     UNIT         ?PR?_GETIDXBYROOM?SYSSTATUS
            CODE    7CAFH     0085H     UNIT         ?PR?SHOWGSMCSQ?SYSSTRING
            CODE    7D34H     0084H     UNIT         ?PR?SHOWINPUTPSW?SYSSTATUS
            CODE    7DB8H     0083H     UNIT         ?PR?_GSM_SETVOLUM?GSM
            CODE    7E3BH     0080H     UNIT         ?PR?_ADDPSWITEM?UNLOCKPASSWORD
            CODE    7EBBH     007CH     UNIT         ?PR?_BITBLT?LCD12864
            CODE    7F37H     0079H     UNIT         ?PR?_BEEP_STARTPLAY?AUDIO
            CODE    7FB0H     0078H     UNIT         ?PR?_CHECKPSW?UNLOCKPASSWORD
            CODE    8028H     0077H     UNIT         ?PR?_ADDNAMEITEM?NAMELIST
            CODE    809FH     0077H     UNIT         ?PR?PWMTASK?AUDIO
            CODE    8116H     0070H     UNIT         ?PR?_WRITELCDICO?LCD12864
            CODE    8186H     006FH     UNIT         ?PR?_DELNAMEITEMBYIDX?NAMELIST
            CODE    81F5H     006FH     UNIT         ?PR?NAMESETCON?NAMELIST
            CODE    8264H     006FH     UNIT         ?PR?_DELPSWBYIDX?UNLOCKPASSWORD
            CODE    82D3H     006FH     UNIT         ?PR?PSWSETCON?UNLOCKPASSWORD
            CODE    8342H     006FH     UNIT         ?PR?_DELCARDBYIDX?CARD
            CODE    83B1H     006FH     UNIT         ?PR?CARDSETCON?CARD
            CODE    8420H     006CH     UNIT         ?PR?SHOWINPUTROOM?SYSSTATUS
            CODE    848CH     006BH     UNIT         ?PR?_DISPLAYCSQ?LCD12864
            CODE    84F7H     006BH     UNIT         ?PR?_SYSCARD?SYSSTATUS
            CODE    8562H     0064H     UNIT         ?PR?_GSM_CALL?GSM
            CODE    85C6H     0063H     UNIT         ?PR?_READBUF_AT24C02?EEPROM
            CODE    8629H     0063H     UNIT         ?PR?_EXT_INILIZE?EXTI
            CODE    868CH     005AH     UNIT         ?PR?_HS_STRCPY?DRIVER
            CODE    86E6H     0056H     UNIT         ?PR?UART_CONFIG?DRIVER
            CODE    873CH     0054H     UNIT         ?PR?_READROOMBYIDX?SYSSTATUS
            CODE    8790H     004FH     UNIT         ?PR?TIMER_CONFIG?DRIVER
            CODE    87DFH     004BH     UNIT         ?PR?_SYSTALKKEY?SYSSTATUS
BL51 BANKED LINKER/LOCATER V6.22.2.0                                                  08/04/2022  14:17:00  PAGE 5


            CODE    882AH     0049H     UNIT         ?PR?_GETNAMEITEMBYROOM?NAMELIST
            CODE    8873H     0049H     UNIT         ?PR?SPI_TRANSIVION?SPI
            CODE    88BCH     0048H     UNIT         ?PR?UARTTASK?UART
            CODE    8904H     0044H     UNIT         ?PR?_HS_MEMCPY?DRIVER
            CODE    8948H     0042H     UNIT         ?PR?SHOWTALKTIME?SYSSTRING
            CODE    898AH     0040H     UNIT         ?PR?KEYBEEPTASK?AUDIO
            CODE    89CAH     0040H     UNIT         ?PR?EXT_INT0?EXTI
            CODE    8A0AH     003BH     UNIT         ?PR?_WRITENAMEITEMBYIDX?NAMELIST
            CODE    8A45H     003BH     UNIT         ?PR?_CARDEDITCARDIN?CARD
            CODE    8A80H     003BH     UNIT         ?PR?TIMER4_INT?TIMER
            CODE    8ABBH     0039H     UNIT         ?PR?_IIC_SEND_BYTE?EEPROM
            CODE    8AF4H     0038H     UNIT         ?PR?SYSSETTINGCON?SYSSTATUS
            CODE    8B2CH     0037H     UNIT         ?CO?AUDIO
            CODE    8B63H     0035H     UNIT         ?CO?DRIVER
            CODE    8B98H     0033H     UNIT         ?PR?DELETECARDCON?CARD
            CODE    8BCBH     0033H     UNIT         ?PR?_PRINTSTRING3?UART
            CODE    8BFEH     0032H     UNIT         ?PR?FLASHTASK?LCD12864
            CODE    8C30H     0032H     UNIT         ?PR?CARDMSTASK?CARDREAD
            CODE    8C62H     0031H     UNIT         ?PR?_WRITECARDBYIDX?CARD
            CODE    8C93H     0031H     UNIT         ?PR?_READCARDBYIDX?CARD
            CODE    8CC4H     0030H     UNIT         ?PR?_READNAMEITEMBYIDX?NAMELIST
            CODE    8CF4H     002FH     UNIT         ?PR?_ATCMDCB_AT?GSM
            CODE    8D23H     002FH     UNIT         ?PR?_ATCMDCB_CLCC?GSM
            CODE    8D52H     002FH     UNIT         ?PR?_INPUTROOMCON?SYSSTATUS
            CODE    8D81H     002FH     UNIT         ?PR?MP3_STOP?AUDIO
            CODE    8DB0H     002EH     UNIT         ?PR?_MEMISEMPTY?DRIVER
            CODE    8DDEH     002EH     UNIT         ?PR?IIC_READ_BYTE?EEPROM
            CODE    8E0CH     002CH     UNIT         ?PR?_CLEARBUF?DRIVER
            CODE    8E38H     002CH     UNIT         ?PR?TIMER1_INT?TIMER
            CODE    8E64H     002BH     UNIT         ?PR?_GSM_SEND_DTMF?GSM
            CODE    8E8FH     002AH     UNIT         ?PR?GSM_GETCSQ?GSM
            CODE    8EB9H     0029H     UNIT         ?PR?SYSIDLECON?SYSSTATUS
            CODE    8EE2H     0029H     UNIT         ?CO?UNLOCKPASSWORD
            CODE    8F0BH     0029H     UNIT         ?PR?_DELCARDBYCARD?CARD
            CODE    8F34H     0029H     UNIT         ?PR?SPI_CONFIG?AUDIO
            CODE    8F5DH     0028H     UNIT         ?PR?_WRITEPSWBYIDX?UNLOCKPASSWORD
            CODE    8F85H     0028H     UNIT         ?PR?PWM_CONFIG?AUDIO
            CODE    8FADH     0028H     UNIT         ?PR?_TX3_WRITE2BUFF?UART
            CODE    8FD5H     0027H     UNIT         ?CO?CARD
            CODE    8FFCH     0027H     UNIT         ?PR?_TX1_WRITE2BUFF?UART
            CODE    9023H     0026H     UNIT         ?PR?_DELAY?DRIVER
            CODE    9049H     0026H     UNIT         ?PR?_STRLEN?DRIVER
            CODE    906FH     0025H     UNIT         ?PR?DELETENAMECON?NAMELIST
            CODE    9094H     0025H     UNIT         ?PR?IIC_ACK?EEPROM
            CODE    90B9H     0025H     UNIT         ?PR?_DELPSWBYROOM?UNLOCKPASSWORD
            CODE    90DEH     0025H     UNIT         ?PR?EDITPSWCON?UNLOCKPASSWORD
            CODE    9103H     0025H     UNIT         ?PR?DELETEPSWCON?UNLOCKPASSWORD
            CODE    9128H     0025H     UNIT         ?PR?EDITSYSPSWCON?UNLOCKPASSWORD
            CODE    914DH     0025H     UNIT         ?PR?_DELCARDBYROOM?CARD
            CODE    9172H     0025H     UNIT         ?PR?EDITCARDCON?CARD
            CODE    9197H     0024H     UNIT         ?CO?MAIN
            CODE    91BBH     0024H     UNIT         ?PR?INIT_12864?LCD12864
            CODE    91DFH     0024H     UNIT         ?PR?GSM_REPOWER?GSM
            CODE    9203H     0024H     UNIT         ?PR?INPUTPSWCON?UNLOCKPASSWORD
            CODE    9227H     0023H     UNIT         ?PR?SAVENAMECOUNT?NAMELIST
            CODE    924AH     0023H     UNIT         ?PR?SAVEPSWCOUNT?UNLOCKPASSWORD
            CODE    926DH     0023H     UNIT         ?PR?SAVECARDCOUNT?CARD
BL51 BANKED LINKER/LOCATER V6.22.2.0                                                  08/04/2022  14:17:00  PAGE 6


            CODE    9290H     0022H     UNIT         ?PR?_LCD_WDAT?LCD12864
            CODE    92B2H     0022H     UNIT         ?PR?GSM_STARTINIT?GSM
            CODE    92D4H     0022H     UNIT         ?PR?_SHOWNAMEBYIDX?NAMELIST
            CODE    92F6H     0021H     UNIT         ?PR?_NAMESETKEY?NAMELIST
            CODE    9317H     0021H     UNIT         ?PR?_PSWSETKEY?UNLOCKPASSWORD
            CODE    9338H     0021H     UNIT         ?PR?_CARDSETKEY?CARD
            CODE    9359H     0020H     UNIT         ?PR?_UNLOCK?DRIVER
            CODE    9379H     0020H     UNIT         ?CO?CARDREAD
            CODE    9399H     001DH     UNIT         ?PR?LCD_BUSY?LCD12864
            CODE    93B6H     001DH     UNIT         ?PR?_CHECKUNICODE?LCD12864
            CODE    93D3H     001DH     UNIT         ?PR?INPUTSYSPSWCON?SYSSTATUS
            CODE    93F0H     001DH     UNIT         ?PR?_READPSWBYIDX?UNLOCKPASSWORD
            CODE    940DH     001DH     UNIT         ?PR?SAVESYSPSW?UNLOCKPASSWORD
            CODE    942AH     001BH     UNIT         ?PR?LCDCLEAR?LCD12864
            CODE    9445H     001BH     UNIT         ?PR?_SPI_READWRITEBYTE?SPI
            CODE    9460H     001AH     UNIT         ?PR?CARDREADINIT?CARDREAD
            CODE    947AH     0019H     UNIT         ?PR?EXTI_CONFIG?DRIVER
            CODE    9493H     0019H     UNIT         ?PR?RELAYTASK?DRIVER
            CODE    94ACH     0019H     UNIT         ?PR?GSM_HUANGUP?GSM
            CODE    94C5H     0019H     UNIT         ?PR?SHOWUNLOCK?SYSSTRING
            CODE    94DEH     0019H     UNIT         ?PR?UART1CLEAR?UART
            CODE    94F7H     0019H     UNIT         ?PR?UART3CLEAR?UART
            CODE    9510H     0018H     UNIT         ?PR?_LCD_WCMD?LCD12864
            CODE    9528H     0017H     UNIT         ?PR?_NAMEDELALLKEY?NAMELIST
            CODE    953FH     0017H     UNIT         ?PR?_PSWDELALLKEY?UNLOCKPASSWORD
            CODE    9556H     0017H     UNIT         ?PR?_CARDDELALLKEY?CARD
            CODE    956DH     0016H     UNIT         ?PR?_HBSTRLEN?DRIVER
            CODE    9583H     0016H     UNIT         ?PR?_DISPLAYSTRING?LCD12864
            CODE    9599H     0016H     UNIT         ?PR?DELETEALLNAMECON?NAMELIST
            CODE    95AFH     0016H     UNIT         ?PR?IIC_START?EEPROM
            CODE    95C5H     0016H     UNIT         ?PR?IIC_STOP?EEPROM
            CODE    95DBH     0016H     UNIT         ?PR?DELETEALLPSWCON?UNLOCKPASSWORD
            CODE    95F1H     0016H     UNIT         ?PR?DELETEALLCARDCON?CARD
            CODE    9607H     0015H     UNIT         ?PR?SHOWSAVEOK?SYSSTRING
            CODE    961CH     0015H     UNIT         ?PR?SHOWERR?SYSSTRING
            CODE    9631H     0015H     UNIT         ?PR?SHOWDELETEOK?SYSSTRING
            CODE    9646H     0015H     UNIT         ?PR?SHOWCARDERR?SYSSTRING
            CODE    965BH     0015H     UNIT         ?PR?SHOWGSMERR?SYSSTRING
            CODE    9670H     0014H     UNIT         ?PR?GETCHAR?GETCHAR
            CODE    9684H     0014H     UNIT         ?PR?_ISSPACE?ISSPACE
            CODE    9698H     0013H     UNIT         ?PR?INITNAMELIST?NAMELIST
            CODE    96ABH     0013H     UNIT         ?PR?IIC_AACK?EEPROM
            CODE    96BEH     0013H     UNIT         ?PR?INITPSW?UNLOCKPASSWORD
            CODE    96D1H     0013H     UNIT         ?PR?INITCARD?CARD
            CODE    96E4H     0012H     UNIT         ?PR?_DISPLAYICO?LCD12864
            CODE    96F6H     0012H     UNIT         ?PR?_IIC_DELAYMS?EEPROM
            CODE    9708H     0011H     UNIT         ?PR?_DELNAMEITEMBYROOM?NAMELIST
            CODE    9719H     0010H     UNIT         ?PR?LCDADDROW?LCD12864
            CODE    9729H     0010H     UNIT         ?PR?SHOWCONFIRMSAVE?SYSSTRING
            CODE    9739H     0010H     UNIT         ?PR?SHOWCONFIRMDEL?SYSSTRING
            CODE    9749H     0010H     UNIT         ?PR?SHOWROOMERR?SYSSTRING
            CODE    9759H     0010H     UNIT         ?PR?SHOWRESET?SYSSTRING
            CODE    9769H     000EH     UNIT         ?PR?_PUTCHAR?DRIVER
            CODE    9777H     000AH     UNIT         ?PR?CLEARPSW?UNLOCKPASSWORD
            CODE    9781H     000AH     UNIT         ?PR?CLEARCARD?CARD
            CODE    978BH     000AH     UNIT         ?PR?_GETKEY?_GETKEY
            CODE    9795H     0009H     UNIT         ?PR?_SETFLASH?LCD12864
BL51 BANKED LINKER/LOCATER V6.22.2.0                                                  08/04/2022  14:17:00  PAGE 7


            CODE    979EH     0008H     UNIT         ?PR?GETCHAR?UNGETCHAR



OVERLAY MAP OF MODULE:   .\Objects\GSM (?C_STARTUP)


SEGMENT                                       BIT_GROUP          DATA_GROUP          XDATA_GROUP
  +--> CALLED SEGMENT                      START    LENGTH     START    LENGTH     START    LENGTH
--------------------------------------------------------------------------------------------------
?C_C51STARTUP                              -----    -----      -----    -----      -----    -----
  +--> ?PR?MAIN?MAIN
  +--> ?C_INITSEG

?PR?MAIN?MAIN                              -----    -----      -----    -----      -----    -----
  +--> ?PR?_DELAY?DRIVER
  +--> ?PR?GPIO_CONFIG?DRIVER
  +--> ?PR?TIMER_CONFIG?DRIVER
  +--> ?PR?UART_CONFIG?DRIVER
  +--> ?PR?EXTI_CONFIG?DRIVER
  +--> ?PR?SPI_CONFIG?AUDIO
  +--> ?PR?PWM_CONFIG?AUDIO
  +--> ?PR?INIT_12864?LCD12864
  +--> ?PR?INITSYSPARA?SYSSTATUS
  +--> ?PR?INITUSERPARA?SYSSTATUS
  +--> ?PR?GSM_STARTINIT?GSM
  +--> ?PR?CARDREADINIT?CARDREAD
  +--> ?PR?SYSIDLECON?SYSSTATUS
  +--> ?PR?_MP3_STARTPLAY?AUDIO
  +--> ?PR?_REVNAMELIST?NAMELIST
  +--> ?PR?UART1CLEAR?UART
  +--> ?CO?MAIN
  +--> ?PR?PRINTF?PRINTF
  +--> ?PR?_GSMUARTCMD?GSM
  +--> ?PR?UART3CLEAR?UART
  +--> ?PR?WAVREADTASK?AUDIO
  +--> ?PR?_UNLOCK?DRIVER
  +--> ?PR?UARTTASK?UART
  +--> ?PR?KEYSCAN?DRIVER
  +--> ?PR?_BEEP_STARTPLAY?AUDIO
  +--> ?PR?_SYSKEY?SYSSTATUS
  +--> ?PR?SKEYSCAN?DRIVER
  +--> ?PR?CARDMSTASK?CARDREAD
  +--> ?PR?GSM_INITTASK?GSM
  +--> ?PR?FLASHTASK?LCD12864
  +--> ?PR?RELAYTASK?DRIVER
  +--> ?PR?SHOWTALKTIME?SYSSTRING
  +--> ?PR?GSM_HUANGUP?GSM
  +--> ?PR?_SHOWMAIN?SYSSTRING
  +--> ?PR?_NAMEEDITKEY?NAMELIST
  +--> ?PR?CHECKRFIDCARD?CARDREAD
  +--> ?PR?_SYSCARD?SYSSTATUS

?PR?GPIO_CONFIG?DRIVER                     -----    -----      -----    -----      1074H    0002H
  +--> ?PR?_GPIO_INILIZE?GPIO

?PR?TIMER_CONFIG?DRIVER                    -----    -----      -----    -----      1074H    0008H
BL51 BANKED LINKER/LOCATER V6.22.2.0                                                  08/04/2022  14:17:00  PAGE 8


  +--> ?PR?_TIMER_INILIZE?TIMER

?PR?UART_CONFIG?DRIVER                     -----    -----      -----    -----      1074H    000CH
  +--> ?PR?_UART_CONFIGURATION?UART
  +--> ?CO?DRIVER
  +--> ?PR?PRINTF?PRINTF
  +--> ?PR?_TX3_WRITE2BUFF?UART

?PR?_UART_CONFIGURATION?UART               -----    -----      -----    -----      1080H    000AH

?PR?PRINTF?PRINTF                          0020H.1  0001H.1    0008H    0005H      111CH    0028H
  +--> ?PR?_PUTCHAR?DRIVER

?PR?_PUTCHAR?DRIVER                        -----    -----      -----    -----      1144H    0001H
  +--> ?PR?_TX1_WRITE2BUFF?UART

?PR?EXTI_CONFIG?DRIVER                     -----    -----      -----    -----      1074H    0003H
  +--> ?PR?_EXT_INILIZE?EXTI

?PR?SPI_CONFIG?AUDIO                       -----    -----      -----    -----      1074H    0009H
  +--> ?PR?_SPI_INIT?SPI

?PR?INIT_12864?LCD12864                    -----    -----      -----    -----      -----    -----
  +--> ?PR?_LCD_WCMD?LCD12864

?PR?_LCD_WCMD?LCD12864                     -----    -----      -----    -----      -----    -----
  +--> ?PR?LCD_BUSY?LCD12864

?PR?LCD_BUSY?LCD12864                      0020H.2  0000H.1    -----    -----      -----    -----

?PR?INITSYSPARA?SYSSTATUS                  0020H.0  0000H.1    -----    -----      -----    -----
  +--> ?PR?_READBUF_AT24C02?EEPROM
  +--> ?PR?_CLEARBUF?DRIVER
  +--> ?PR?_WRITEBUF_AT24C02?EEPROM
  +--> ?CO?SYSSTATUS
  +--> ?PR?PRINTF?PRINTF

?PR?_READBUF_AT24C02?EEPROM                -----    -----      -----    -----      111DH    0008H
  +--> ?PR?IIC_ACK?EEPROM
  +--> ?PR?_IIC_SEND_BYTE?EEPROM
  +--> ?PR?IIC_START?EEPROM
  +--> ?PR?IIC_READ_BYTE?EEPROM
  +--> ?PR?IIC_AACK?EEPROM
  +--> ?PR?IIC_NACK?EEPROM
  +--> ?PR?IIC_STOP?EEPROM

?PR?IIC_ACK?EEPROM                         -----    -----      -----    -----      -----    -----
  +--> ?PR?IIC_START?EEPROM
  +--> ?PR?_IIC_SEND_BYTE?EEPROM

?PR?_CLEARBUF?DRIVER                       -----    -----      -----    -----      111CH    0003H

?PR?_WRITEBUF_AT24C02?EEPROM               -----    -----      -----    -----      111DH    0007H
  +--> ?PR?_IIC_SEND_BYTE?EEPROM
  +--> ?PR?IIC_ACK?EEPROM
  +--> ?PR?IIC_STOP?EEPROM
  +--> ?PR?_IIC_DELAYMS?EEPROM
BL51 BANKED LINKER/LOCATER V6.22.2.0                                                  08/04/2022  14:17:00  PAGE 9



?PR?INITUSERPARA?SYSSTATUS                 -----    -----      -----    -----      -----    -----
  +--> ?PR?_READBUF_AT24C02?EEPROM
  +--> ?PR?_WRITEBUF_AT24C02?EEPROM
  +--> ?CO?SYSSTATUS
  +--> ?PR?PRINTF?PRINTF
  +--> ?PR?INITNAMELIST?NAMELIST
  +--> ?PR?INITPSW?UNLOCKPASSWORD
  +--> ?PR?INITCARD?CARD

?PR?INITNAMELIST?NAMELIST                  -----    -----      -----    -----      -----    -----
  +--> ?PR?CLEARNAMELIST?NAMELIST

?PR?CLEARNAMELIST?NAMELIST                 -----    -----      -----    -----      -----    -----
  +--> ?PR?SAVENAMECOUNT?NAMELIST

?PR?SAVENAMECOUNT?NAMELIST                 -----    -----      -----    -----      -----    -----
  +--> ?PR?_WRITEBUF_AT24C02?EEPROM

?PR?INITPSW?UNLOCKPASSWORD                 -----    -----      -----    -----      -----    -----
  +--> ?PR?CLEARPSW?UNLOCKPASSWORD

?PR?CLEARPSW?UNLOCKPASSWORD                -----    -----      -----    -----      -----    -----
  +--> ?PR?SAVEPSWCOUNT?UNLOCKPASSWORD

?PR?SAVEPSWCOUNT?UNLOCKPASSWORD            -----    -----      -----    -----      -----    -----
  +--> ?PR?_WRITEBUF_AT24C02?EEPROM

?PR?INITCARD?CARD                          -----    -----      -----    -----      -----    -----
  +--> ?PR?CLEARCARD?CARD

?PR?CLEARCARD?CARD                         -----    -----      -----    -----      -----    -----
  +--> ?PR?SAVECARDCOUNT?CARD

?PR?SAVECARDCOUNT?CARD                     -----    -----      -----    -----      -----    -----
  +--> ?PR?_WRITEBUF_AT24C02?EEPROM

?PR?GSM_STARTINIT?GSM                      -----    -----      -----    -----      -----    -----
  +--> ?CO?GSM
  +--> ?PR?PRINTF?PRINTF

?PR?SYSIDLECON?SYSSTATUS                   -----    -----      -----    -----      -----    -----
  +--> ?PR?_SHOWMAIN?SYSSTRING

?PR?_SHOWMAIN?SYSSTRING                    -----    -----      -----    -----      1080H    0001H
  +--> ?PR?LCDCLEAR?LCD12864
  +--> ?CO?SYSSTRING
  +--> ?PR?_DISPLAYSTRING?LCD12864
  +--> ?PR?_DISPLAYICO?LCD12864
  +--> ?PR?SHOWGSMCSQ?SYSSTRING

?PR?LCDCLEAR?LCD12864                      -----    -----      -----    -----      -----    -----
  +--> ?PR?_LCD_WCMD?LCD12864
  +--> ?PR?_CLEARBUF?DRIVER
  +--> ?PR?_SETFLASH?LCD12864

?PR?_DISPLAYSTRING?LCD12864                -----    -----      -----    -----      -----    -----
BL51 BANKED LINKER/LOCATER V6.22.2.0                                                  08/04/2022  14:17:00  PAGE 10


  +--> ?PR?_WRITELCD?LCD12864
  +--> ?PR?_BITBLT?LCD12864

?PR?_WRITELCD?LCD12864                     -----    -----      -----    -----      111CH    0008H
  +--> ?PR?_CHECKUNICODE?LCD12864
  +--> ?PR?LCDADDROW?LCD12864
  +--> ?CO?LCD12864

?PR?_BITBLT?LCD12864                       -----    -----      -----    -----      111CH    0007H
  +--> ?PR?_LCD_WCMD?LCD12864
  +--> ?PR?WAVREADTASK?AUDIO
  +--> ?PR?_LCD_WDAT?LCD12864

?PR?WAVREADTASK?AUDIO                      -----    -----      -----    -----      1123H    0001H
  +--> ?PR?MP3_STOP?AUDIO
  +--> ?PR?_SPI_FLASH_READ?SPI

?PR?_SPI_FLASH_READ?SPI                    -----    -----      -----    -----      1124H    000DH
  +--> ?PR?_DELAY?DRIVER
  +--> ?PR?_SPI_READWRITEBYTE?SPI

?PR?_LCD_WDAT?LCD12864                     -----    -----      -----    -----      -----    -----
  +--> ?PR?LCD_BUSY?LCD12864

?PR?_DISPLAYICO?LCD12864                   -----    -----      -----    -----      -----    -----
  +--> ?PR?_WRITELCDICO?LCD12864
  +--> ?PR?_BITBLT?LCD12864

?PR?_WRITELCDICO?LCD12864                  -----    -----      -----    -----      1081H    0007H
  +--> ?CO?LCD12864

?PR?SHOWGSMCSQ?SYSSTRING                   -----    -----      -----    -----      -----    -----
  +--> ?CO?SYSSTRING
  +--> ?PR?_DISPLAYSTRING?LCD12864

?PR?_MP3_STARTPLAY?AUDIO                   -----    -----      -----    -----      10C8H    0001H
  +--> ?PR?_DELAY?DRIVER
  +--> ?PR?WAVREADTASK?AUDIO

?PR?_REVNAMELIST?NAMELIST                  -----    -----      -----    -----      1074H    0059H
  +--> ?CO?NAMELIST
  +--> ?PR?PRINTF?PRINTF
  +--> ?PR?_LOOKFORSTR?DRIVER
  +--> ?PR?SCANF?SCANF
  +--> ?PR?_CLEARBUF?DRIVER
  +--> ?PR?_ADDNAMEITEM?NAMELIST

?PR?_LOOKFORSTR?DRIVER                     -----    -----      -----    -----      10CDH    000AH

?PR?SCANF?SCANF                            0020H.0  0000H.6    0008H    0005H      10CDH    002EH
  +--> ?PR?GETCHAR?UNGETCHAR
  +--> ?PR?_ISSPACE?ISSPACE
  +--> ?PR?GETCHAR?GETCHAR

?PR?GETCHAR?GETCHAR                        -----    -----      -----    -----      -----    -----
  +--> ?PR?_GETKEY?_GETKEY
  +--> ?PR?_PUTCHAR?DRIVER
BL51 BANKED LINKER/LOCATER V6.22.2.0                                                  08/04/2022  14:17:00  PAGE 11



?PR?_ADDNAMEITEM?NAMELIST                  -----    -----      -----    -----      10CDH    0005H
  +--> ?PR?_GETIDXBYROOM?SYSSTATUS
  +--> ?PR?_WRITENAMEITEMBYIDX?NAMELIST
  +--> ?PR?SAVENAMECOUNT?NAMELIST

?PR?_GETIDXBYROOM?SYSSTATUS                -----    -----      -----    -----      10D2H    0007H
  +--> ?PR?_READROOMBYIDX?SYSSTATUS

?PR?_READROOMBYIDX?SYSSTATUS               -----    -----      -----    -----      10D9H    0002H
  +--> ?PR?_READBUF_AT24C02?EEPROM

?PR?_WRITENAMEITEMBYIDX?NAMELIST           -----    -----      -----    -----      111AH    0003H
  +--> ?PR?_WRITEBUF_AT24C02?EEPROM

?PR?UART1CLEAR?UART                        -----    -----      -----    -----      -----    -----
  +--> ?PR?_CLEARBUF?DRIVER

?PR?_GSMUARTCMD?GSM                        -----    -----      -----    -----      1074H    0003H
  +--> ?PR?_PRINTSTRING3?UART
  +--> ?CO?GSM
  +--> ?PR?PRINTF?PRINTF
  +--> ?PR?GSM_REPOWER?GSM
  +--> ?PR?_MODEMRECEIVEHANDLE?GSM

?PR?_PRINTSTRING3?UART                     -----    -----      -----    -----      10AFH    0003H
  +--> ?PR?_TX3_WRITE2BUFF?UART

?PR?GSM_REPOWER?GSM                        -----    -----      -----    -----      -----    -----
  +--> ?CO?GSM
  +--> ?PR?_PRINTSTRING3?UART
  +--> ?PR?PRINTF?PRINTF

?PR?_MODEMRECEIVEHANDLE?GSM                -----    -----      -----    -----      1077H    0009H
  +--> ?CO?GSM
  +--> ?PR?_LOOKFORSTR?DRIVER
  +--> ?PR?PRINTF?PRINTF
  +--> ?PR?SHOWGSMERR?SYSSTRING
  +--> ?PR?GSM_REPOWER?GSM
  +--> ?PR?_STRLEN?DRIVER
  +--> ?PR?GSM_HUANGUP?GSM
  +--> ?PR?_MP3_STARTPLAY?AUDIO
  +--> ?PR?SCANF?SCANF
  +--> ?PR?_GSM_SETVOLUM?GSM
  +--> ?PR?SYSIDLECON?SYSSTATUS

?PR?SHOWGSMERR?SYSSTRING                   -----    -----      -----    -----      -----    -----
  +--> ?PR?LCDCLEAR?LCD12864
  +--> ?CO?SYSSTRING
  +--> ?PR?_DISPLAYSTRING?LCD12864
  +--> ?PR?_MP3_STARTPLAY?AUDIO

?PR?_STRLEN?DRIVER                         -----    -----      -----    -----      111CH    0003H

?PR?GSM_HUANGUP?GSM                        -----    -----      -----    -----      -----    -----
  +--> ?CO?GSM
  +--> ?PR?_PRINTSTRING3?UART
BL51 BANKED LINKER/LOCATER V6.22.2.0                                                  08/04/2022  14:17:00  PAGE 12



?PR?_GSM_SETVOLUM?GSM                      -----    -----      -----    -----      1080H    0001H
  +--> ?CO?GSM
  +--> ?PR?PRINTF?PRINTF

?PR?UART3CLEAR?UART                        -----    -----      -----    -----      -----    -----
  +--> ?PR?_CLEARBUF?DRIVER

?PR?_UNLOCK?DRIVER                         0020H.0  0000H.1    -----    -----      -----    -----
  +--> ?PR?SHOWUNLOCK?SYSSTRING

?PR?SHOWUNLOCK?SYSSTRING                   0020H.1  0000H.1    -----    -----      -----    -----
  +--> ?PR?LCDCLEAR?LCD12864
  +--> ?CO?SYSSTRING
  +--> ?PR?_DISPLAYSTRING?LCD12864
  +--> ?PR?_MP3_STARTPLAY?AUDIO

?PR?UARTTASK?UART                          -----    -----      -----    -----      -----    -----
  +--> ?PR?UART1CLEAR?UART
  +--> ?PR?UART3CLEAR?UART

?PR?KEYSCAN?DRIVER                         -----    -----      -----    -----      1074H    0001H

?PR?_BEEP_STARTPLAY?AUDIO                  -----    -----      -----    -----      -----    -----
  +--> ?PR?KEYBEEPTASK?AUDIO

?PR?KEYBEEPTASK?AUDIO                      -----    -----      -----    -----      -----    -----
  +--> ?CO?AUDIO

?PR?_SYSKEY?SYSSTATUS                      -----    -----      -----    -----      1074H    0001H
  +--> ?PR?_SYSIDLEKEY?SYSSTATUS
  +--> ?PR?_SYSSETTINGKEY?SYSSTATUS
  +--> ?PR?_NAMESETKEY?NAMELIST
  +--> ?PR?_NAMEEDITKEY?NAMELIST
  +--> ?PR?_NAMEDELETEKEY?NAMELIST
  +--> ?PR?_NAMEDELALLKEY?NAMELIST
  +--> ?PR?_PSWSETKEY?UNLOCKPASSWORD
  +--> ?PR?_PSWEDITKEY?UNLOCKPASSWORD
  +--> ?PR?_PSWDELETEKEY?UNLOCKPASSWORD
  +--> ?PR?_PSWDELALLKEY?UNLOCKPASSWORD
  +--> ?PR?_PSWINPUTKEY?UNLOCKPASSWORD
  +--> ?PR?_SYSINPUTROOM?SYSSTATUS
  +--> ?PR?_INPUTSYSPSW?SYSSTATUS
  +--> ?PR?_SYSPSWEDITKEY?UNLOCKPASSWORD
  +--> ?PR?_CARDSETKEY?CARD
  +--> ?PR?_CARDEDITKEY?CARD
  +--> ?PR?_CARDDELETEKEY?CARD
  +--> ?PR?_CARDDELALLKEY?CARD
  +--> ?PR?_SYSTALKKEY?SYSSTATUS
  +--> ?PR?_SYSSUBSETKEY?SYSSTATUS

?PR?_SYSIDLEKEY?SYSSTATUS                  -----    -----      -----    -----      1075H    0001H
  +--> ?PR?SYSIDLECON?SYSSTATUS
  +--> ?PR?INPUTPSWCON?UNLOCKPASSWORD
  +--> ?PR?INPUTSYSPSWCON?SYSSTATUS
  +--> ?PR?_SHOWNAMEBYIDX?NAMELIST
  +--> ?PR?_READNAMEITEMBYIDX?NAMELIST
BL51 BANKED LINKER/LOCATER V6.22.2.0                                                  08/04/2022  14:17:00  PAGE 13


  +--> ?PR?_CALLBYNAMEITEM?NAMELIST
  +--> ?PR?_MP3_STARTPLAY?AUDIO
  +--> ?PR?_STRLEN?DRIVER
  +--> ?PR?SHOWERR?SYSSTRING
  +--> ?PR?SHOWGSMERR?SYSSTRING
  +--> ?PR?_INPUTROOMCON?SYSSTATUS

?PR?INPUTPSWCON?UNLOCKPASSWORD             -----    -----      -----    -----      -----    -----
  +--> ?PR?_CLEARBUF?DRIVER
  +--> ?PR?_SHOWPSW?UNLOCKPASSWORD
  +--> ?PR?_MP3_STARTPLAY?AUDIO

?PR?_SHOWPSW?UNLOCKPASSWORD                0020H.0  0000H.1    -----    -----      107CH    0028H
  +--> ?PR?LCDCLEAR?LCD12864
  +--> ?CO?SYSSTRING
  +--> ?PR?_DISPLAYSTRING?LCD12864
  +--> ?CO?UNLOCKPASSWORD
  +--> ?PR?PRINTF?PRINTF
  +--> ?PR?_STRLEN?DRIVER
  +--> ?PR?_SETFLASH?LCD12864

?PR?INPUTSYSPSWCON?SYSSTATUS               -----    -----      -----    -----      -----    -----
  +--> ?PR?SHOWINPUTPSW?SYSSTATUS
  +--> ?PR?_MP3_STARTPLAY?AUDIO

?PR?SHOWINPUTPSW?SYSSTATUS                 -----    -----      -----    -----      1076H    001EH
  +--> ?PR?LCDCLEAR?LCD12864
  +--> ?CO?SYSSTRING
  +--> ?PR?_DISPLAYSTRING?LCD12864
  +--> ?PR?_HS_STRCPY?DRIVER
  +--> ?PR?_STRLEN?DRIVER
  +--> ?PR?_SETFLASH?LCD12864

?PR?_HS_STRCPY?DRIVER                      -----    -----      -----    -----      1094H    0006H

?PR?_SHOWNAMEBYIDX?NAMELIST                -----    -----      -----    -----      1076H    0050H
  +--> ?PR?_READNAMEITEMBYIDX?NAMELIST
  +--> ?PR?_SHOWNAME?NAMELIST

?PR?_READNAMEITEMBYIDX?NAMELIST            -----    -----      -----    -----      111AH    0003H
  +--> ?PR?_READBUF_AT24C02?EEPROM

?PR?_SHOWNAME?NAMELIST                     0020H.0  0000H.1    -----    -----      10C8H    0054H
  +--> ?PR?LCDCLEAR?LCD12864
  +--> ?CO?NAMELIST
  +--> ?CO?SYSSTRING
  +--> ?PR?PRINTF?PRINTF
  +--> ?PR?_DISPLAYSTRING?LCD12864
  +--> ?PR?_STRLEN?DRIVER
  +--> ?PR?_SETFLASH?LCD12864

?PR?_CALLBYNAMEITEM?NAMELIST               -----    -----      -----    -----      1076H    0036H
  +--> ?PR?_STRLEN?DRIVER
  +--> ?PR?_GSM_CALL?GSM
  +--> ?PR?LCDCLEAR?LCD12864
  +--> ?CO?NAMELIST
  +--> ?CO?SYSSTRING
BL51 BANKED LINKER/LOCATER V6.22.2.0                                                  08/04/2022  14:17:00  PAGE 14


  +--> ?PR?PRINTF?PRINTF
  +--> ?PR?_DISPLAYSTRING?LCD12864

?PR?_GSM_CALL?GSM                          -----    -----      -----    -----      10ACH    0003H
  +--> ?CO?GSM
  +--> ?PR?_PRINTSTRING3?UART

?PR?SHOWERR?SYSSTRING                      -----    -----      -----    -----      -----    -----
  +--> ?PR?LCDCLEAR?LCD12864
  +--> ?CO?SYSSTRING
  +--> ?PR?_DISPLAYSTRING?LCD12864
  +--> ?PR?_MP3_STARTPLAY?AUDIO

?PR?_INPUTROOMCON?SYSSTATUS                -----    -----      -----    -----      -----    -----
  +--> ?PR?SHOWINPUTROOM?SYSSTATUS
  +--> ?PR?_CLEARBUF?DRIVER
  +--> ?PR?_MP3_STARTPLAY?AUDIO

?PR?SHOWINPUTROOM?SYSSTATUS                -----    -----      -----    -----      1076H    0018H
  +--> ?PR?LCDCLEAR?LCD12864
  +--> ?CO?SYSSTRING
  +--> ?PR?_DISPLAYSTRING?LCD12864
  +--> ?CO?SYSSTATUS
  +--> ?PR?PRINTF?PRINTF

?PR?_SYSSETTINGKEY?SYSSTATUS               -----    -----      -----    -----      1075H    0001H
  +--> ?PR?SYSIDLECON?SYSSTATUS
  +--> ?PR?NAMESETCON?NAMELIST
  +--> ?PR?PSWSETCON?UNLOCKPASSWORD
  +--> ?PR?CARDSETCON?CARD
  +--> ?PR?EDITSYSPSWCON?UNLOCKPASSWORD
  +--> ?PR?_SUBSETCON?SYSSTATUS

?PR?NAMESETCON?NAMELIST                    -----    -----      -----    -----      10C8H    000AH
  +--> ?PR?LCDCLEAR?LCD12864
  +--> ?CO?SYSSTRING
  +--> ?PR?_DISPLAYSTRING?LCD12864
  +--> ?CO?NAMELIST
  +--> ?PR?PRINTF?PRINTF

?PR?PSWSETCON?UNLOCKPASSWORD               -----    -----      -----    -----      107CH    000AH
  +--> ?PR?LCDCLEAR?LCD12864
  +--> ?CO?SYSSTRING
  +--> ?PR?_DISPLAYSTRING?LCD12864
  +--> ?CO?UNLOCKPASSWORD
  +--> ?PR?PRINTF?PRINTF

?PR?CARDSETCON?CARD                        -----    -----      -----    -----      1078H    000AH
  +--> ?PR?LCDCLEAR?LCD12864
  +--> ?CO?SYSSTRING
  +--> ?PR?_DISPLAYSTRING?LCD12864
  +--> ?CO?CARD
  +--> ?PR?PRINTF?PRINTF

?PR?EDITSYSPSWCON?UNLOCKPASSWORD           -----    -----      -----    -----      -----    -----
  +--> ?PR?_CLEARBUF?DRIVER
  +--> ?PR?_SHOWPSW?UNLOCKPASSWORD
BL51 BANKED LINKER/LOCATER V6.22.2.0                                                  08/04/2022  14:17:00  PAGE 15



?PR?_SUBSETCON?SYSSTATUS                   -----    -----      -----    -----      -----    -----
  +--> ?PR?SHOWSUBPARA?SYSSTATUS

?PR?SHOWSUBPARA?SYSSTATUS                  -----    -----      -----    -----      1076H    0018H
  +--> ?PR?LCDCLEAR?LCD12864
  +--> ?CO?SYSSTATUS
  +--> ?CO?SYSSTRING
  +--> ?PR?PRINTF?PRINTF
  +--> ?PR?_DISPLAYSTRING?LCD12864
  +--> ?PR?_STRLEN?DRIVER

?PR?_NAMESETKEY?NAMELIST                   -----    -----      -----    -----      -----    -----
  +--> ?PR?EDITNAMEITEMCON?NAMELIST
  +--> ?PR?DELETENAMECON?NAMELIST
  +--> ?PR?DELETEALLNAMECON?NAMELIST
  +--> ?PR?SYSSETTINGCON?SYSSTATUS

?PR?EDITNAMEITEMCON?NAMELIST               -----    -----      -----    -----      -----    -----
  +--> ?PR?_CLEARBUF?DRIVER
  +--> ?PR?_SHOWNAME?NAMELIST

?PR?DELETENAMECON?NAMELIST                 -----    -----      -----    -----      -----    -----
  +--> ?PR?_CLEARBUF?DRIVER
  +--> ?PR?_SHOWNAME?NAMELIST

?PR?DELETEALLNAMECON?NAMELIST              -----    -----      -----    -----      -----    -----
  +--> ?PR?LCDCLEAR?LCD12864
  +--> ?CO?SYSSTRING
  +--> ?PR?_DISPLAYSTRING?LCD12864

?PR?SYSSETTINGCON?SYSSTATUS                -----    -----      -----    -----      -----    -----
  +--> ?PR?LCDCLEAR?LCD12864
  +--> ?CO?SYSSTRING
  +--> ?PR?_DISPLAYSTRING?LCD12864
  +--> ?PR?_DISPLAYICO?LCD12864

?PR?_NAMEEDITKEY?NAMELIST                  -----    -----      -----    -----      1075H    0001H
  +--> ?PR?_CLEARBUF?DRIVER
  +--> ?PR?_STRLEN?DRIVER
  +--> ?PR?_ADDNAMEITEM?NAMELIST
  +--> ?PR?SHOWSAVEOK?SYSSTRING
  +--> ?PR?SHOWERR?SYSSTRING
  +--> ?PR?NAMEEDITCHAGETYPE?NAMELIST
  +--> ?PR?NAMESETCON?NAMELIST
  +--> ?CO?SYSSTRING
  +--> ?PR?_SHOWNAME?NAMELIST

?PR?SHOWSAVEOK?SYSSTRING                   -----    -----      -----    -----      -----    -----
  +--> ?PR?LCDCLEAR?LCD12864
  +--> ?CO?SYSSTRING
  +--> ?PR?_DISPLAYSTRING?LCD12864
  +--> ?PR?_MP3_STARTPLAY?AUDIO

?PR?NAMEEDITCHAGETYPE?NAMELIST             -----    -----      -----    -----      1076H    0052H
  +--> ?PR?_GETNAMEITEMBYROOM?NAMELIST
  +--> ?PR?_HS_MEMCPY?DRIVER
BL51 BANKED LINKER/LOCATER V6.22.2.0                                                  08/04/2022  14:17:00  PAGE 16


  +--> ?PR?_STRLEN?DRIVER
  +--> ?PR?SHOWCONFIRMSAVE?SYSSTRING

?PR?_GETNAMEITEMBYROOM?NAMELIST            -----    -----      -----    -----      10C8H    0005H
  +--> ?PR?_GETIDXBYROOM?SYSSTATUS
  +--> ?PR?_READNAMEITEMBYIDX?NAMELIST

?PR?_HS_MEMCPY?DRIVER                      -----    -----      -----    -----      10C8H    0008H

?PR?SHOWCONFIRMSAVE?SYSSTRING              -----    -----      -----    -----      -----    -----
  +--> ?PR?LCDCLEAR?LCD12864
  +--> ?CO?SYSSTRING
  +--> ?PR?_DISPLAYSTRING?LCD12864

?PR?_NAMEDELETEKEY?NAMELIST                -----    -----      -----    -----      1075H    0053H
  +--> ?PR?_CLEARBUF?DRIVER
  +--> ?PR?_DELNAMEITEMBYROOM?NAMELIST
  +--> ?PR?SHOWDELETEOK?SYSSTRING
  +--> ?PR?_GETNAMEITEMBYROOM?NAMELIST
  +--> ?PR?_HS_MEMCPY?DRIVER
  +--> ?PR?_STRLEN?DRIVER
  +--> ?PR?SHOWCONFIRMDEL?SYSSTRING
  +--> ?PR?NAMESETCON?NAMELIST
  +--> ?PR?_SHOWNAME?NAMELIST

?PR?_DELNAMEITEMBYROOM?NAMELIST            -----    -----      -----    -----      -----    -----
  +--> ?PR?_GETIDXBYROOM?SYSSTATUS
  +--> ?PR?_DELNAMEITEMBYIDX?NAMELIST

?PR?_DELNAMEITEMBYIDX?NAMELIST             -----    -----      -----    -----      10C8H    0052H
  +--> ?PR?SAVENAMECOUNT?NAMELIST
  +--> ?PR?_READNAMEITEMBYIDX?NAMELIST
  +--> ?PR?_WRITENAMEITEMBYIDX?NAMELIST

?PR?SHOWDELETEOK?SYSSTRING                 -----    -----      -----    -----      -----    -----
  +--> ?PR?LCDCLEAR?LCD12864
  +--> ?CO?SYSSTRING
  +--> ?PR?_DISPLAYSTRING?LCD12864
  +--> ?PR?_MP3_STARTPLAY?AUDIO

?PR?SHOWCONFIRMDEL?SYSSTRING               -----    -----      -----    -----      -----    -----
  +--> ?PR?LCDCLEAR?LCD12864
  +--> ?CO?SYSSTRING
  +--> ?PR?_DISPLAYSTRING?LCD12864

?PR?_NAMEDELALLKEY?NAMELIST                -----    -----      -----    -----      -----    -----
  +--> ?PR?CLEARNAMELIST?NAMELIST
  +--> ?PR?SHOWDELETEOK?SYSSTRING
  +--> ?PR?NAMESETCON?NAMELIST

?PR?_PSWSETKEY?UNLOCKPASSWORD              -----    -----      -----    -----      -----    -----
  +--> ?PR?EDITPSWCON?UNLOCKPASSWORD
  +--> ?PR?DELETEPSWCON?UNLOCKPASSWORD
  +--> ?PR?DELETEALLPSWCON?UNLOCKPASSWORD
  +--> ?PR?SYSSETTINGCON?SYSSTATUS

?PR?EDITPSWCON?UNLOCKPASSWORD              -----    -----      -----    -----      -----    -----
BL51 BANKED LINKER/LOCATER V6.22.2.0                                                  08/04/2022  14:17:00  PAGE 17


  +--> ?PR?_CLEARBUF?DRIVER
  +--> ?PR?_SHOWPSW?UNLOCKPASSWORD

?PR?DELETEPSWCON?UNLOCKPASSWORD            -----    -----      -----    -----      -----    -----
  +--> ?PR?_CLEARBUF?DRIVER
  +--> ?PR?_SHOWPSW?UNLOCKPASSWORD

?PR?DELETEALLPSWCON?UNLOCKPASSWORD         -----    -----      -----    -----      -----    -----
  +--> ?PR?LCDCLEAR?LCD12864
  +--> ?CO?SYSSTRING
  +--> ?PR?_DISPLAYSTRING?LCD12864

?PR?_PSWEDITKEY?UNLOCKPASSWORD             -----    -----      -----    -----      1075H    0007H
  +--> ?PR?_CLEARBUF?DRIVER
  +--> ?PR?_ADDPSWITEM?UNLOCKPASSWORD
  +--> ?PR?SHOWSAVEOK?SYSSTRING
  +--> ?PR?SHOWERR?SYSSTRING
  +--> ?PR?SHOWCONFIRMSAVE?SYSSTRING
  +--> ?PR?PSWSETCON?UNLOCKPASSWORD
  +--> ?PR?_SHOWPSW?UNLOCKPASSWORD

?PR?_ADDPSWITEM?UNLOCKPASSWORD             -----    -----      -----    -----      107CH    0005H
  +--> ?PR?_GETIDXBYROOM?SYSSTATUS
  +--> ?CO?UNLOCKPASSWORD
  +--> ?PR?PRINTF?PRINTF
  +--> ?PR?_WRITEPSWBYIDX?UNLOCKPASSWORD
  +--> ?PR?SAVEPSWCOUNT?UNLOCKPASSWORD

?PR?_WRITEPSWBYIDX?UNLOCKPASSWORD          -----    -----      -----    -----      -----    -----
  +--> ?PR?_WRITEBUF_AT24C02?EEPROM

?PR?_PSWDELETEKEY?UNLOCKPASSWORD           -----    -----      -----    -----      1075H    0003H
  +--> ?PR?_CLEARBUF?DRIVER
  +--> ?PR?_DELPSWBYROOM?UNLOCKPASSWORD
  +--> ?PR?SHOWDELETEOK?SYSSTRING
  +--> ?PR?SHOWCONFIRMDEL?SYSSTRING
  +--> ?PR?PSWSETCON?UNLOCKPASSWORD
  +--> ?PR?_SHOWPSW?UNLOCKPASSWORD

?PR?_DELPSWBYROOM?UNLOCKPASSWORD           -----    -----      -----    -----      1078H    0002H
  +--> ?PR?_DELPSWBYIDX?UNLOCKPASSWORD
  +--> ?PR?_GETIDXBYROOM?SYSSTATUS

?PR?_DELPSWBYIDX?UNLOCKPASSWORD            -----    -----      -----    -----      107AH    0006H
  +--> ?PR?SAVEPSWCOUNT?UNLOCKPASSWORD
  +--> ?PR?_READPSWBYIDX?UNLOCKPASSWORD
  +--> ?PR?_WRITEPSWBYIDX?UNLOCKPASSWORD

?PR?_READPSWBYIDX?UNLOCKPASSWORD           -----    -----      -----    -----      -----    -----
  +--> ?PR?_READBUF_AT24C02?EEPROM

?PR?_PSWDELALLKEY?UNLOCKPASSWORD           -----    -----      -----    -----      -----    -----
  +--> ?PR?CLEARPSW?UNLOCKPASSWORD
  +--> ?PR?SHOWDELETEOK?SYSSTRING
  +--> ?PR?PSWSETCON?UNLOCKPASSWORD

?PR?_PSWINPUTKEY?UNLOCKPASSWORD            -----    -----      -----    -----      1075H    0001H
BL51 BANKED LINKER/LOCATER V6.22.2.0                                                  08/04/2022  14:17:00  PAGE 18


  +--> ?PR?SYSIDLECON?SYSSTATUS
  +--> ?PR?_CHECKPSW?UNLOCKPASSWORD
  +--> ?PR?_UNLOCK?DRIVER
  +--> ?PR?SHOWERR?SYSSTRING
  +--> ?PR?_MP3_STARTPLAY?AUDIO
  +--> ?PR?_SHOWPSW?UNLOCKPASSWORD

?PR?_CHECKPSW?UNLOCKPASSWORD               -----    -----      -----    -----      1076H    0008H
  +--> ?CO?UNLOCKPASSWORD
  +--> ?PR?PRINTF?PRINTF
  +--> ?PR?_READPSWBYIDX?UNLOCKPASSWORD

?PR?_SYSINPUTROOM?SYSSTATUS                -----    -----      -----    -----      1075H    0001H
  +--> ?PR?_GETNAMEITEMBYROOM?NAMELIST
  +--> ?PR?_CALLBYNAMEITEM?NAMELIST
  +--> ?PR?_MP3_STARTPLAY?AUDIO
  +--> ?PR?_STRLEN?DRIVER
  +--> ?PR?SHOWERR?SYSSTRING
  +--> ?PR?SHOWGSMERR?SYSSTRING
  +--> ?PR?SHOWROOMERR?SYSSTRING
  +--> ?PR?SHOWINPUTROOM?SYSSTATUS
  +--> ?PR?MP3_STOP?AUDIO
  +--> ?PR?SYSIDLECON?SYSSTATUS

?PR?SHOWROOMERR?SYSSTRING                  -----    -----      -----    -----      -----    -----
  +--> ?PR?LCDCLEAR?LCD12864
  +--> ?CO?SYSSTRING
  +--> ?PR?_DISPLAYSTRING?LCD12864

?PR?_INPUTSYSPSW?SYSSTATUS                 -----    -----      -----    -----      1075H    0001H
  +--> ?PR?SYSSETTINGCON?SYSSTATUS
  +--> ?PR?SHOWERR?SYSSTRING
  +--> ?PR?_MP3_STARTPLAY?AUDIO
  +--> ?PR?SHOWINPUTPSW?SYSSTATUS
  +--> ?PR?MP3_STOP?AUDIO
  +--> ?PR?SYSIDLECON?SYSSTATUS

?PR?_SYSPSWEDITKEY?UNLOCKPASSWORD          -----    -----      -----    -----      1075H    0001H
  +--> ?PR?_CLEARBUF?DRIVER
  +--> ?PR?SAVESYSPSW?UNLOCKPASSWORD
  +--> ?PR?SHOWSAVEOK?SYSSTRING
  +--> ?PR?SHOWERR?SYSSTRING
  +--> ?PR?SHOWCONFIRMSAVE?SYSSTRING
  +--> ?PR?SYSSETTINGCON?SYSSTATUS
  +--> ?PR?_SHOWPSW?UNLOCKPASSWORD

?PR?SAVESYSPSW?UNLOCKPASSWORD              -----    -----      -----    -----      -----    -----
  +--> ?PR?_WRITEBUF_AT24C02?EEPROM

?PR?_CARDSETKEY?CARD                       -----    -----      -----    -----      -----    -----
  +--> ?PR?EDITCARDCON?CARD
  +--> ?PR?DELETECARDCON?CARD
  +--> ?PR?DELETEALLCARDCON?CARD
  +--> ?PR?SYSSETTINGCON?SYSSTATUS

?PR?EDITCARDCON?CARD                       -----    -----      -----    -----      -----    -----
  +--> ?PR?_CLEARBUF?DRIVER
BL51 BANKED LINKER/LOCATER V6.22.2.0                                                  08/04/2022  14:17:00  PAGE 19


  +--> ?PR?_SHOWCARD?CARD

?PR?_SHOWCARD?CARD                         0020H.0  0000H.1    -----    -----      107AH    0043H
  +--> ?PR?LCDCLEAR?LCD12864
  +--> ?CO?CARD
  +--> ?CO?SYSSTRING
  +--> ?PR?PRINTF?PRINTF
  +--> ?PR?_DISPLAYSTRING?LCD12864
  +--> ?PR?_STRLEN?DRIVER
  +--> ?PR?_SETFLASH?LCD12864
  +--> ?PR?_MEMISEMPTY?DRIVER
  +--> ?PR?_HBSTRLEN?DRIVER

?PR?_MEMISEMPTY?DRIVER                     -----    -----      -----    -----      10BDH    0003H

?PR?DELETECARDCON?CARD                     -----    -----      -----    -----      -----    -----
  +--> ?PR?_CLEARBUF?DRIVER
  +--> ?PR?_MEMISEMPTY?DRIVER
  +--> ?PR?_SHOWCARD?CARD

?PR?DELETEALLCARDCON?CARD                  -----    -----      -----    -----      -----    -----
  +--> ?PR?LCDCLEAR?LCD12864
  +--> ?CO?SYSSTRING
  +--> ?PR?_DISPLAYSTRING?LCD12864

?PR?_CARDEDITKEY?CARD                      -----    -----      -----    -----      1075H    0003H
  +--> ?PR?_CLEARBUF?DRIVER
  +--> ?PR?_MEMISEMPTY?DRIVER
  +--> ?PR?_ADDCARDITEM?CARD
  +--> ?PR?SHOWSAVEOK?SYSSTRING
  +--> ?PR?SHOWERR?SYSSTRING
  +--> ?PR?SHOWCONFIRMSAVE?SYSSTRING
  +--> ?PR?CARDSETCON?CARD
  +--> ?PR?_SHOWCARD?CARD

?PR?_ADDCARDITEM?CARD                      -----    -----      -----    -----      1078H    000BH
  +--> ?PR?_READCARDBYIDX?CARD
  +--> ?PR?_WRITECARDBYIDX?CARD
  +--> ?PR?SAVECARDCOUNT?CARD

?PR?_READCARDBYIDX?CARD                    -----    -----      -----    -----      1086H    0003H
  +--> ?PR?_READBUF_AT24C02?EEPROM

?PR?_WRITECARDBYIDX?CARD                   -----    -----      -----    -----      1083H    0003H
  +--> ?PR?_WRITEBUF_AT24C02?EEPROM

?PR?_CARDDELETEKEY?CARD                    -----    -----      -----    -----      1075H    0003H
  +--> ?PR?_CLEARBUF?DRIVER
  +--> ?PR?_MEMISEMPTY?DRIVER
  +--> ?PR?_DELCARDBYCARD?CARD
  +--> ?PR?_DELCARDBYROOM?CARD
  +--> ?PR?SHOWDELETEOK?SYSSTRING
  +--> ?PR?SHOWCONFIRMDEL?SYSSTRING
  +--> ?PR?CARDSETCON?CARD
  +--> ?PR?_SHOWCARD?CARD

?PR?_DELCARDBYCARD?CARD                    -----    -----      -----    -----      1078H    0003H
BL51 BANKED LINKER/LOCATER V6.22.2.0                                                  08/04/2022  14:17:00  PAGE 20


  +--> ?PR?_DELCARDBYIDX?CARD
  +--> ?PR?_CHECKCARD?CARD

?PR?_DELCARDBYIDX?CARD                     -----    -----      -----    -----      107BH    0008H
  +--> ?PR?SAVECARDCOUNT?CARD
  +--> ?PR?_READCARDBYIDX?CARD
  +--> ?PR?_WRITECARDBYIDX?CARD

?PR?_CHECKCARD?CARD                        -----    -----      -----    -----      107BH    000BH
  +--> ?PR?_READCARDBYIDX?CARD
  +--> ?CO?CARD
  +--> ?PR?PRINTF?PRINTF

?PR?_DELCARDBYROOM?CARD                    -----    -----      -----    -----      1078H    0002H
  +--> ?PR?_DELCARDBYIDX?CARD
  +--> ?PR?_GETIDXBYROOM?SYSSTATUS

?PR?_CARDDELALLKEY?CARD                    -----    -----      -----    -----      -----    -----
  +--> ?PR?CLEARCARD?CARD
  +--> ?PR?SHOWDELETEOK?SYSSTRING
  +--> ?PR?CARDSETCON?CARD

?PR?_SYSTALKKEY?SYSSTATUS                  -----    -----      -----    -----      1075H    0001H
  +--> ?PR?_GSM_SEND_DTMF?GSM
  +--> ?PR?GSM_HUANGUP?GSM
  +--> ?PR?SYSIDLECON?SYSSTATUS
  +--> ?PR?_GSM_SETVOLUM?GSM

?PR?_GSM_SEND_DTMF?GSM                     -----    -----      -----    -----      1076H    000EH
  +--> ?CO?GSM
  +--> ?PR?_PRINTSTRING3?UART

?PR?_SYSSUBSETKEY?SYSSTATUS                -----    -----      -----    -----      1075H    0001H
  +--> ?PR?SHOWSUBPARA?SYSSTATUS
  +--> ?PR?_SAVESUBPARA?SYSSTATUS
  +--> ?PR?SYSSETTINGCON?SYSSTATUS

?PR?_SAVESUBPARA?SYSSTATUS                 -----    -----      -----    -----      1076H    0002H
  +--> ?PR?_WRITEBUF_AT24C02?EEPROM
  +--> ?PR?SHOWSAVEOK?SYSSTRING

?PR?SKEYSCAN?DRIVER                        -----    -----      -----    -----      -----    -----
  +--> ?PR?_UNLOCK?DRIVER
  +--> ?CO?DRIVER
  +--> ?PR?PRINTF?PRINTF
  +--> ?PR?INITSYSPARA?SYSSTATUS
  +--> ?PR?SHOWRESET?SYSSTRING

?PR?SHOWRESET?SYSSTRING                    -----    -----      -----    -----      -----    -----
  +--> ?PR?LCDCLEAR?LCD12864
  +--> ?CO?SYSSTRING
  +--> ?PR?_DISPLAYSTRING?LCD12864

?PR?GSM_INITTASK?GSM                       -----    -----      -----    -----      -----    -----
  +--> ?PR?GSM_STARTINIT?GSM
  +--> ?CO?GSM
  +--> ?PR?PRINTF?PRINTF
BL51 BANKED LINKER/LOCATER V6.22.2.0                                                  08/04/2022  14:17:00  PAGE 21


  +--> ?PR?_PRINTSTRING3?UART
  +--> ?PR?GSM_REPOWER?GSM
  +--> ?PR?GSM_GETCSQ?GSM
  +--> ?PR?GSM_HUANGUP?GSM
  +--> ?PR?_MP3_STARTPLAY?AUDIO
  +--> ?PR?_STRLEN?DRIVER
  +--> ?PR?SHOWERR?SYSSTRING
  +--> ?PR?_GSM_SETVOLUM?GSM
  +--> ?PR?_CALLBYNAMEITEM?NAMELIST
  +--> ?PR?SYSIDLECON?SYSSTATUS

?PR?GSM_GETCSQ?GSM                         -----    -----      -----    -----      -----    -----
  +--> ?CO?GSM
  +--> ?PR?PRINTF?PRINTF

?PR?FLASHTASK?LCD12864                     -----    -----      -----    -----      -----    -----
  +--> ?PR?_DISPLAYFL?LCD12864

?PR?_DISPLAYFL?LCD12864                    0020H.0  0000H.1    -----    -----      -----    -----
  +--> ?PR?_LCD_WCMD?LCD12864
  +--> ?PR?_LCD_WDAT?LCD12864

?PR?SHOWTALKTIME?SYSSTRING                 -----    -----      -----    -----      -----    -----
  +--> ?PR?LCDCLEAR?LCD12864
  +--> ?CO?SYSSTRING
  +--> ?PR?PRINTF?PRINTF
  +--> ?PR?_DISPLAYSTRING?LCD12864

?PR?CHECKRFIDCARD?CARDREAD                 -----    -----      -----    -----      1074H    0008H
  +--> ?CO?CARDREAD
  +--> ?PR?PRINTF?PRINTF

?PR?_SYSCARD?SYSSTATUS                     -----    -----      -----    -----      1074H    0003H
  +--> ?PR?_CARDEDITCARDIN?CARD
  +--> ?PR?_CHECKCARD?CARD
  +--> ?PR?_UNLOCK?DRIVER
  +--> ?PR?SHOWCARDERR?SYSSTRING

?PR?_CARDEDITCARDIN?CARD                   -----    -----      -----    -----      1077H    0003H
  +--> ?PR?_HS_MEMCPY?DRIVER
  +--> ?PR?_SHOWCARD?CARD

?PR?SHOWCARDERR?SYSSTRING                  -----    -----      -----    -----      -----    -----
  +--> ?PR?LCDCLEAR?LCD12864
  +--> ?CO?SYSSTRING
  +--> ?PR?_DISPLAYSTRING?LCD12864
  +--> ?PR?_MP3_STARTPLAY?AUDIO

?C_INITSEG                                 -----    -----      -----    -----      -----    -----
  +--> ?CO?GSM
  +--> ?PR?_ATCMDCB_AT?GSM
  +--> ?PR?_ATCMDCB_CPIN?GSM
  +--> ?PR?_ATCMDCB_CREG?GSM
  +--> ?PR?_ATCMDCB_CLCC?GSM
  +--> ?PR?_ATCMDCB_CSQ?GSM

?PR?_ATCMDCB_AT?GSM                        -----    -----      -----    -----      -----    -----
BL51 BANKED LINKER/LOCATER V6.22.2.0                                                  08/04/2022  14:17:00  PAGE 22


  +--> ?CO?GSM
  +--> ?PR?_LOOKFORSTR?DRIVER

?PR?_ATCMDCB_CPIN?GSM                      -----    -----      -----    -----      1074H    0009H
  +--> ?CO?GSM
  +--> ?PR?_LOOKFORSTR?DRIVER
  +--> ?PR?_STRLEN?DRIVER
  +--> ?PR?SCANF?SCANF
  +--> ?PR?PRINTF?PRINTF

?PR?_ATCMDCB_CREG?GSM                      -----    -----      -----    -----      1074H    0009H
  +--> ?CO?GSM
  +--> ?PR?_LOOKFORSTR?DRIVER
  +--> ?PR?_STRLEN?DRIVER
  +--> ?PR?SCANF?SCANF
  +--> ?PR?PRINTF?PRINTF

?PR?_ATCMDCB_CLCC?GSM                      -----    -----      -----    -----      -----    -----
  +--> ?CO?GSM
  +--> ?PR?_LOOKFORSTR?DRIVER

?PR?_ATCMDCB_CSQ?GSM                       -----    -----      -----    -----      1074H    0009H
  +--> ?CO?GSM
  +--> ?PR?_LOOKFORSTR?DRIVER
  +--> ?PR?_STRLEN?DRIVER
  +--> ?PR?SCANF?SCANF
  +--> ?PR?PRINTF?PRINTF

*** NEW ROOT ***************************************************

?PR?TIMER0_INT?TIMER                       -----    -----      -----    -----      -----    -----
  +--> ?PR?KEYBEEPTASK?AUDIO

*** NEW ROOT ***************************************************

?PR?TIMER4_INT?TIMER                       -----    -----      -----    -----      -----    -----
  +--> ?PR?PWMTASK?AUDIO

*** NEW ROOT ***************************************************

?PR?EXT_INT0?EXTI                          -----    -----      -----    -----      -----    -----
  +--> ?PR?CARDIRQ?CARDREAD



SYMBOL TABLE OF MODULE:  .\Objects\GSM (?C_STARTUP)

  VALUE           TYPE          NAME
  ----------------------------------

  -------         MODULE        ?C_STARTUP
  C:7A88H         SEGMENT       ?C_C51STARTUP
  I:0024H         SEGMENT       ?STACK
  C:0000H         PUBLIC        ?C_STARTUP
  D:00E0H         SYMBOL        ACC
  D:00F0H         SYMBOL        B
  D:0083H         SYMBOL        DPH
BL51 BANKED LINKER/LOCATER V6.22.2.0                                                  08/04/2022  14:17:00  PAGE 23


  D:0082H         SYMBOL        DPL
  N:0000H         SYMBOL        IBPSTACK
  N:0100H         SYMBOL        IBPSTACKTOP
  N:0080H         SYMBOL        IDATALEN
  C:7A8BH         SYMBOL        IDATALOOP
  N:0000H         SYMBOL        PBPSTACK
  N:0100H         SYMBOL        PBPSTACKTOP
  N:0000H         SYMBOL        PDATALEN
  N:0000H         SYMBOL        PDATASTART
  N:0000H         SYMBOL        PPAGE
  N:0000H         SYMBOL        PPAGEENABLE
  D:00A0H         SYMBOL        PPAGE_SFR
  D:0081H         SYMBOL        SP
  C:7A88H         SYMBOL        STARTUP1
  N:0000H         SYMBOL        XBPSTACK
  N:0000H         SYMBOL        XBPSTACKTOP
  N:0000H         SYMBOL        XDATALEN
  N:0000H         SYMBOL        XDATASTART
  C:0000H         LINE#         126
  C:7A88H         LINE#         133
  C:7A8AH         LINE#         134
  C:7A8BH         LINE#         135
  C:7A8CH         LINE#         136
  C:7A8EH         LINE#         185
  C:7A91H         LINE#         196
  -------         ENDMOD        ?C_STARTUP

  -------         MODULE        MAIN
  C:0000H         SYMBOL        _ICE_DUMMY_
  D:0080H         PUBLIC        P0
  D:0090H         PUBLIC        P1
  D:00A0H         PUBLIC        P2
  D:00B0H         PUBLIC        P3
  D:00C0H         PUBLIC        P4
  D:00C8H         PUBLIC        P5
  B:00A8H.7       PUBLIC        EA
  D:00E8H         PUBLIC        P6
  D:00F8H         PUBLIC        P7
  D:00A8H         PUBLIC        IE
  X:137EH         PUBLIC        MainTime
  D:00B8H         PUBLIC        IP
  D:00D8H         PUBLIC        CCON
  C:420CH         PUBLIC        main
  B:0080H.1       PUBLIC        P01
  B:00C0H.0       PUBLIC        P40
  D:0098H         PUBLIC        SCON
  D:0088H         PUBLIC        TCON
  D:00F0H         PUBLIC        B
  D:00E0H         PUBLIC        ACC
  X:1380H         PUBLIC        UsrKey
  D:00D0H         PUBLIC        PSW
  -------         PROC          MAIN
  C:420CH         LINE#         18
  C:420CH         LINE#         19
  C:420CH         LINE#         20
  C:4213H         LINE#         21
  C:4215H         LINE#         22
BL51 BANKED LINKER/LOCATER V6.22.2.0                                                  08/04/2022  14:17:00  PAGE 24


  C:4218H         LINE#         23
  C:421BH         LINE#         24
  C:421EH         LINE#         25
  C:4221H         LINE#         26
  C:4224H         LINE#         28
  C:4227H         LINE#         29
  C:422AH         LINE#         31
  C:4231H         LINE#         32
  C:4234H         LINE#         33
  C:4236H         LINE#         34
  C:423DH         LINE#         35
  C:4242H         LINE#         36
  C:4245H         LINE#         37
  C:424CH         LINE#         38
  C:424FH         LINE#         39
  C:4252H         LINE#         40
  C:4255H         LINE#         41
  C:425AH         LINE#         45
  C:425AH         LINE#         46
  C:425AH         LINE#         47
  C:4260H         LINE#         48
  C:4260H         LINE#         50
  C:4269H         LINE#         51
  C:426CH         LINE#         52
  C:426CH         LINE#         53
  C:4272H         LINE#         54
  C:4272H         LINE#         55
  C:4289H         LINE#         56
  C:429AH         LINE#         57
  C:429DH         LINE#         58
  C:429DH         LINE#         67
  C:42A0H         LINE#         69
  C:42A7H         LINE#         70
  C:42A7H         LINE#         71
  C:42B4H         LINE#         72
  C:42C0H         LINE#         73
  C:42C0H         LINE#         74
  C:42CCH         LINE#         75
  C:42CCH         LINE#         76
  C:42D8H         LINE#         77
  C:42D8H         LINE#         78
  C:42E4H         LINE#         79
  C:42E4H         LINE#         80
  C:42E9H         LINE#         81
  C:42E9H         LINE#         82
  C:42EFH         LINE#         83
  C:42EFH         LINE#         84
  C:42F1H         LINE#         86
  C:42F4H         LINE#         87
  C:42FCH         LINE#         88
  C:42FFH         LINE#         89
  C:42FFH         LINE#         92
  C:4304H         LINE#         96
  C:4315H         LINE#         97
  C:431DH         LINE#         98
  C:431DH         LINE#         99
  C:4320H         LINE#         101
BL51 BANKED LINKER/LOCATER V6.22.2.0                                                  08/04/2022  14:17:00  PAGE 25


  C:4323H         LINE#         102
  C:4326H         LINE#         103
  C:4329H         LINE#         107
  C:4341H         LINE#         108
  C:4341H         LINE#         109
  C:4348H         LINE#         110
  C:434AH         LINE#         111
  C:434DH         LINE#         112
  C:436BH         LINE#         113
  C:436BH         LINE#         114
  C:4379H         LINE#         115
  C:4379H         LINE#         116
  C:437CH         LINE#         117
  C:437CH         LINE#         118
  C:437CH         LINE#         119
  C:4384H         LINE#         120
  C:4384H         LINE#         121
  C:4387H         LINE#         124
  C:43A2H         LINE#         125
  C:43A2H         LINE#         126
  C:43A7H         LINE#         127
  C:43A7H         LINE#         128
  C:43BFH         LINE#         129
  C:43BFH         LINE#         130
  C:43C2H         LINE#         131
  C:43C7H         LINE#         132
  C:43CAH         LINE#         133
  C:43CAH         LINE#         134
  C:43CAH         LINE#         143
  C:43D0H         LINE#         144
  C:43D8H         LINE#         145
  C:4406H         LINE#         146
  C:4406H         LINE#         147
  C:441EH         LINE#         148
  C:441EH         LINE#         158
  C:441EH         LINE#         160
  C:4434H         LINE#         161
  C:4434H         LINE#         162
  C:4442H         LINE#         163
  C:4449H         LINE#         164
  C:4449H         LINE#         165
  C:444EH         LINE#         166
  C:444EH         LINE#         167
  C:444EH         LINE#         168
  C:444EH         LINE#         170
  C:4458H         LINE#         171
  C:4458H         LINE#         176
  C:445AH         LINE#         177
  C:445AH         LINE#         178
  C:4460H         LINE#         179
  C:4460H         LINE#         180
  C:4463H         LINE#         181
  C:4466H         LINE#         182
  C:4466H         LINE#         184
  C:446BH         LINE#         188
  C:4474H         LINE#         189
  C:4474H         LINE#         190
BL51 BANKED LINKER/LOCATER V6.22.2.0                                                  08/04/2022  14:17:00  PAGE 26


  C:4477H         LINE#         191
  C:4477H         LINE#         204
  -------         ENDPROC       MAIN
  -------         ENDMOD        MAIN

  -------         MODULE        DRIVER
  C:0000H         SYMBOL        _ICE_DUMMY_
  D:0080H         PUBLIC        P0
  D:0090H         PUBLIC        P1
  D:00A0H         PUBLIC        P2
  D:00B0H         PUBLIC        P3
  D:00C0H         PUBLIC        P4
  D:00C8H         PUBLIC        P5
  D:00E8H         PUBLIC        P6
  D:00F8H         PUBLIC        P7
  C:8E0CH         PUBLIC        _ClearBuf
  X:136FH         PUBLIC        DtmfData
  C:7147H         PUBLIC        GPIO_config
  C:8904H         PUBLIC        _HS_memcpy
  D:00A8H         PUBLIC        IE
  C:9023H         PUBLIC        _delay
  C:9493H         PUBLIC        RelayTask
  C:86E6H         PUBLIC        UART_config
  D:00B8H         PUBLIC        IP
  C:9049H         PUBLIC        _strlen
  D:00D8H         PUBLIC        CCON
  C:868CH         PUBLIC        _HS_strcpy
  C:67D4H         PUBLIC        SkeyScan
  X:1370H         PUBLIC        SkeyStatus
  C:956DH         PUBLIC        _HBstrlen
  C:6A37H         PUBLIC        KeyScan
  B:00C0H.0       PUBLIC        P40
  B:0080H.4       PUBLIC        P04
  D:0098H         PUBLIC        SCON
  B:00C0H.1       PUBLIC        P41
  B:0080H.5       PUBLIC        P05
  D:0088H         PUBLIC        TCON
  B:0080H.6       PUBLIC        P06
  B:00F8H.0       PUBLIC        P70
  B:00C0H.3       PUBLIC        P43
  B:00F8H.1       PUBLIC        P71
  B:00F8H.2       PUBLIC        P72
  B:00C8H.4       PUBLIC        P54
  B:00F8H.3       PUBLIC        P73
  B:00C8H.5       PUBLIC        P55
  D:00F0H         PUBLIC        B
  X:1371H         PUBLIC        ResetKeyTime
  D:00E0H         PUBLIC        ACC
  X:1373H         PUBLIC        SkeyStatusOld
  C:6F63H         PUBLIC        _lookforstr
  C:8790H         PUBLIC        Timer_config
  C:9359H         PUBLIC        _Unlock
  C:8DB0H         PUBLIC        _MemIsEmpty
  C:947AH         PUBLIC        Exti_config
  D:00D0H         PUBLIC        PSW
  X:1374H         PUBLIC        Rly1Time
  C:9769H         PUBLIC        _putchar
BL51 BANKED LINKER/LOCATER V6.22.2.0                                                  08/04/2022  14:17:00  PAGE 27


  -------         PROC          _DELAY
  D:0006H         SYMBOL        t
  -------         DO            
  D:0004H         SYMBOL        i
  D:0002H         SYMBOL        j
  -------         ENDDO         
  C:9023H         LINE#         14
  C:9023H         LINE#         15
  C:9023H         LINE#         17
  C:902AH         LINE#         18
  C:9033H         LINE#         19
  C:9048H         LINE#         20
  -------         ENDPROC       _DELAY
  -------         PROC          _PUTCHAR
  X:1144H         SYMBOL        ch
  C:9769H         LINE#         22
  C:976EH         LINE#         23
  C:976EH         LINE#         24
  C:9771H         LINE#         25
  C:9776H         LINE#         26
  -------         ENDPROC       _PUTCHAR
  -------         PROC          _STRLEN
  X:111CH         SYMBOL        pch
  -------         DO            
  D:0007H         SYMBOL        len
  -------         ENDDO         
  C:9049H         LINE#         27
  C:9054H         LINE#         28
  C:9054H         LINE#         29
  C:9056H         LINE#         30
  C:906EH         LINE#         31
  C:906EH         LINE#         32
  -------         ENDPROC       _STRLEN
  -------         PROC          _HBSTRLEN
  D:0001H         SYMBOL        pch
  -------         DO            
  D:0007H         SYMBOL        len
  -------         ENDDO         
  C:956DH         LINE#         33
  C:956DH         LINE#         34
  C:956DH         LINE#         35
  C:956FH         LINE#         36
  C:9574H         LINE#         37
  C:9574H         LINE#         38
  C:9575H         LINE#         39
  C:9578H         LINE#         40
  C:9578H         LINE#         41
  C:9579H         LINE#         42
  C:9579H         LINE#         43
  C:9580H         LINE#         44
  C:9582H         LINE#         45
  C:9582H         LINE#         46
  -------         ENDPROC       _HBSTRLEN
  -------         PROC          _LOOKFORSTR
  X:10CDH         SYMBOL        srcBuf
  X:10D0H         SYMBOL        detBuf
  -------         DO            
BL51 BANKED LINKER/LOCATER V6.22.2.0                                                  08/04/2022  14:17:00  PAGE 28


  X:10D3H         SYMBOL        i
  X:10D5H         SYMBOL        j
  -------         ENDDO         
  C:6F63H         LINE#         48
  C:6F6EH         LINE#         49
  C:6F6EH         LINE#         51
  C:6F75H         LINE#         52
  C:6F79H         LINE#         53
  C:6F98H         LINE#         54
  C:6F98H         LINE#         55
  C:6FACH         LINE#         56
  C:6FACH         LINE#         57
  C:6FCDH         LINE#         58
  C:6FCDH         LINE#         59
  C:700EH         LINE#         60
  C:700EH         LINE#         61
  C:700EH         LINE#         62
  C:700EH         LINE#         63
  C:701EH         LINE#         64
  C:7039H         LINE#         65
  C:7039H         LINE#         66
  C:7042H         LINE#         67
  C:7042H         LINE#         68
  C:7042H         LINE#         69
  C:7053H         LINE#         70
  C:7056H         LINE#         71
  C:705AH         LINE#         72
  -------         ENDPROC       _LOOKFORSTR
  -------         PROC          _CLEARBUF
  X:111CH         SYMBOL        buf
  D:0004H         SYMBOL        len
  C:8E0CH         LINE#         74
  C:8E17H         LINE#         75
  C:8E17H         LINE#         76
  C:8E21H         LINE#         77
  C:8E21H         LINE#         78
  C:8E35H         LINE#         79
  C:8E37H         LINE#         80
  -------         ENDPROC       _CLEARBUF
  -------         PROC          _HS_MEMCPY
  X:10C8H         SYMBOL        dst
  X:10CBH         SYMBOL        src
  X:10CEH         SYMBOL        len
  C:8904H         LINE#         81
  C:890FH         LINE#         82
  C:890FH         LINE#         83
  C:891DH         LINE#         84
  C:891DH         LINE#         85
  C:8945H         LINE#         86
  C:8947H         LINE#         87
  -------         ENDPROC       _HS_MEMCPY
  -------         PROC          _HS_STRCPY
  X:1094H         SYMBOL        dst
  X:1097H         SYMBOL        src
  -------         DO            
  D:0006H         SYMBOL        i
  -------         ENDDO         
BL51 BANKED LINKER/LOCATER V6.22.2.0                                                  08/04/2022  14:17:00  PAGE 29


  C:868CH         LINE#         88
  C:8697H         LINE#         89
  C:8697H         LINE#         90
  C:869AH         LINE#         91
  C:86AAH         LINE#         92
  C:86AAH         LINE#         93
  C:86D0H         LINE#         94
  C:86D5H         LINE#         95
  C:86D7H         LINE#         96
  -------         ENDPROC       _HS_STRCPY
  -------         PROC          _MEMISEMPTY
  X:10BDH         SYMBOL        buf
  D:0004H         SYMBOL        len
  C:8DB0H         LINE#         99
  C:8DBBH         LINE#         100
  C:8DBBH         LINE#         101
  C:8DC5H         LINE#         102
  C:8DC5H         LINE#         103
  C:8DDAH         LINE#         104
  C:8DDAH         LINE#         105
  C:8DDCH         LINE#         106
  C:8DDCH         LINE#         107
  C:8DDCH         LINE#         108
  C:8DDDH         LINE#         109
  -------         ENDPROC       _MEMISEMPTY
  -------         PROC          GPIO_CONFIG
  -------         DO            
  X:1074H         SYMBOL        GPIO_InitStructure
  -------         ENDDO         
  C:7147H         LINE#         111
  C:7147H         LINE#         112
  C:7147H         LINE#         114
  C:714DH         LINE#         118
  C:7152H         LINE#         119
  C:715DH         LINE#         121
  C:7168H         LINE#         124
  C:7173H         LINE#         126
  C:7179H         LINE#         127
  C:7184H         LINE#         129
  C:718AH         LINE#         130
  C:7194H         LINE#         132
  C:719AH         LINE#         133
  C:71A5H         LINE#         135
  C:71ABH         LINE#         136
  C:71B6H         LINE#         138
  C:71BCH         LINE#         139
  C:71C7H         LINE#         142
  C:71CDH         LINE#         144
  C:71D1H         LINE#         145
  C:71DCH         LINE#         147
  C:71E2H         LINE#         148
  C:71EDH         LINE#         150
  C:71F3H         LINE#         151
  C:71FEH         LINE#         153
  C:7204H         LINE#         154
  C:720FH         LINE#         156
  C:7215H         LINE#         157
BL51 BANKED LINKER/LOCATER V6.22.2.0                                                  08/04/2022  14:17:00  PAGE 30


  C:7220H         LINE#         159
  C:7222H         LINE#         160
  C:7224H         LINE#         162
  C:7226H         LINE#         163
  C:7228H         LINE#         164
  C:722AH         LINE#         166
  C:722CH         LINE#         167
  C:722EH         LINE#         170
  -------         ENDPROC       GPIO_CONFIG
  -------         PROC          UART_CONFIG
  -------         DO            
  X:1074H         SYMBOL        COMx_InitStructure
  -------         ENDDO         
  C:86E6H         LINE#         172
  C:86E6H         LINE#         173
  C:86E6H         LINE#         175
  C:86ECH         LINE#         176
  C:86F0H         LINE#         177
  C:86F8H         LINE#         178
  C:86FEH         LINE#         179
  C:8701H         LINE#         180
  C:8704H         LINE#         181
  C:8706H         LINE#         182
  C:8709H         LINE#         183
  C:8714H         LINE#         184
  C:871DH         LINE#         187
  C:8723H         LINE#         188
  C:872EH         LINE#         189
  C:8733H         LINE#         190
  -------         ENDPROC       UART_CONFIG
  -------         PROC          TIMER_CONFIG
  -------         DO            
  X:1074H         SYMBOL        TIM_InitStructure
  -------         ENDDO         
  C:8790H         LINE#         203
  C:8790H         LINE#         204
  C:8790H         LINE#         206
  C:8795H         LINE#         207
  C:8797H         LINE#         208
  C:879AH         LINE#         209
  C:879DH         LINE#         210
  C:879FH         LINE#         211
  C:87A7H         LINE#         212
  C:87ABH         LINE#         214
  C:87B5H         LINE#         216
  C:87BFH         LINE#         217
  C:87CAH         LINE#         219
  C:87D4H         LINE#         220
  -------         ENDPROC       TIMER_CONFIG
  -------         PROC          EXTI_CONFIG
  -------         DO            
  X:1074H         SYMBOL        Exti_InitStructure
  -------         ENDDO         
  C:947AH         LINE#         224
  C:947AH         LINE#         225
  C:947AH         LINE#         228
  C:9480H         LINE#         229
BL51 BANKED LINKER/LOCATER V6.22.2.0                                                  08/04/2022  14:17:00  PAGE 31


  C:9485H         LINE#         230
  C:9489H         LINE#         231
  -------         ENDPROC       EXTI_CONFIG
  -------         PROC          KEYSCAN
  -------         DO            
  X:136BH         SYMBOL        KeyStep
  X:136CH         SYMBOL        KeyTime
  X:1074H         SYMBOL        key
  -------         ENDDO         
  C:6A37H         LINE#         238
  C:6A37H         LINE#         239
  C:6A37H         LINE#         243
  C:6A57H         LINE#         244
  C:6A57H         LINE#         245
  C:6A57H         LINE#         246
  C:6A5AH         LINE#         247
  C:6A65H         LINE#         248
  C:6A65H         LINE#         249
  C:6A6BH         LINE#         250
  C:6A71H         LINE#         251
  C:6A71H         LINE#         252
  C:6A74H         LINE#         253
  C:6A74H         LINE#         254
  C:6A7CH         LINE#         255
  C:6A7CH         LINE#         256
  C:6A7DH         LINE#         257
  C:6A80H         LINE#         258
  C:6A8BH         LINE#         259
  C:6A8BH         LINE#         260
  C:6A91H         LINE#         261
  C:6A91H         LINE#         262
  C:6A94H         LINE#         263
  C:6A94H         LINE#         264
  C:6A9CH         LINE#         265
  C:6A9FH         LINE#         266
  C:6AA5H         LINE#         267
  C:6AA8H         LINE#         268
  C:6AA8H         LINE#         269
  C:6AAEH         LINE#         270
  C:6AB1H         LINE#         271
  C:6AB7H         LINE#         272
  C:6AF2H         LINE#         273
  C:6AF2H         LINE#         274
  C:6AF2H         LINE#         275
  C:6AF5H         LINE#         276
  C:6AF5H         LINE#         277
  C:6AF8H         LINE#         278
  C:6AF8H         LINE#         279
  C:6AFBH         LINE#         280
  C:6AFBH         LINE#         281
  C:6AFEH         LINE#         282
  C:6AFEH         LINE#         283
  C:6B01H         LINE#         284
  C:6B01H         LINE#         285
  C:6B04H         LINE#         286
  C:6B04H         LINE#         287
  C:6B07H         LINE#         288
BL51 BANKED LINKER/LOCATER V6.22.2.0                                                  08/04/2022  14:17:00  PAGE 32


  C:6B07H         LINE#         289
  C:6B0AH         LINE#         290
  C:6B0AH         LINE#         291
  C:6B0DH         LINE#         292
  C:6B0DH         LINE#         293
  C:6B10H         LINE#         294
  C:6B10H         LINE#         295
  C:6B13H         LINE#         296
  C:6B13H         LINE#         297
  C:6B16H         LINE#         298
  C:6B16H         LINE#         299
  C:6B19H         LINE#         300
  C:6B19H         LINE#         301
  C:6B1CH         LINE#         302
  C:6B1CH         LINE#         303
  C:6B1FH         LINE#         304
  C:6B1FH         LINE#         305
  C:6B22H         LINE#         306
  C:6B22H         LINE#         307
  C:6B22H         LINE#         308
  C:6B22H         LINE#         309
  C:6B2AH         LINE#         310
  C:6B2AH         LINE#         311
  C:6B30H         LINE#         312
  C:6B34H         LINE#         313
  C:6B34H         LINE#         314
  C:6B36H         LINE#         315
  C:6B36H         LINE#         316
  C:6B3EH         LINE#         317
  C:6B3EH         LINE#         318
  C:6B44H         LINE#         319
  C:6B46H         LINE#         320
  C:6B4EH         LINE#         321
  C:6B4EH         LINE#         322
  C:6B52H         LINE#         323
  C:6B52H         LINE#         324
  C:6B52H         LINE#         326
  C:6B52H         LINE#         327
  C:6B54H         LINE#         328
  -------         ENDPROC       KEYSCAN
  -------         PROC          SKEYSCAN
  -------         DO            
  X:136DH         SYMBOL        SkeyStep
  X:136EH         SYMBOL        SkeyTime
  D:0007H         SYMBOL        key
  -------         ENDDO         
  C:67D4H         LINE#         333
  C:67D4H         LINE#         334
  C:67D4H         LINE#         338
  C:67D4H         LINE#         339
  C:67E1H         LINE#         340
  C:67E1H         LINE#         341
  C:67E1H         LINE#         342
  C:67E8H         LINE#         343
  C:67F0H         LINE#         344
  C:67F8H         LINE#         345
  C:6800H         LINE#         346
BL51 BANKED LINKER/LOCATER V6.22.2.0                                                  08/04/2022  14:17:00  PAGE 33


  C:6806H         LINE#         348
  C:680DH         LINE#         349
  C:680DH         LINE#         350
  C:6813H         LINE#         351
  C:6819H         LINE#         352
  C:6819H         LINE#         353
  C:681BH         LINE#         354
  C:681BH         LINE#         355
  C:6822H         LINE#         356
  C:682AH         LINE#         357
  C:6832H         LINE#         358
  C:683AH         LINE#         359
  C:6840H         LINE#         361
  C:6847H         LINE#         362
  C:6847H         LINE#         363
  C:684CH         LINE#         364
  C:684EH         LINE#         365
  C:6856H         LINE#         366
  C:6856H         LINE#         367
  C:685AH         LINE#         368
  C:685FH         LINE#         369
  C:685FH         LINE#         370
  C:685FH         LINE#         372
  C:685FH         LINE#         373
  C:686CH         LINE#         374
  C:686CH         LINE#         376
  C:687DH         LINE#         377
  C:687DH         LINE#         378
  C:6889H         LINE#         379
  C:6892H         LINE#         380
  C:6892H         LINE#         381
  C:68A7H         LINE#         382
  C:68A7H         LINE#         383
  C:68B3H         LINE#         384
  C:68BCH         LINE#         385
  C:68BCH         LINE#         386
  C:68CCH         LINE#         387
  C:68CCH         LINE#         388
  C:68D4H         LINE#         389
  C:68DDH         LINE#         390
  C:68DDH         LINE#         391
  C:68DDH         LINE#         392
  C:68DDH         LINE#         394
  C:68DDH         LINE#         395
  C:68DDH         LINE#         396
  C:68DDH         LINE#         398
  C:68DDH         LINE#         399
  C:68E5H         LINE#         400
  C:68E5H         LINE#         401
  C:68ECH         LINE#         402
  C:68ECH         LINE#         403
  C:68F6H         LINE#         404
  C:68F6H         LINE#         405
  C:6904H         LINE#         406
  C:6904H         LINE#         407
  C:6909H         LINE#         408
  C:690CH         LINE#         409
BL51 BANKED LINKER/LOCATER V6.22.2.0                                                  08/04/2022  14:17:00  PAGE 34


  C:6915H         LINE#         410
  C:6915H         LINE#         411
  C:6915H         LINE#         412
  C:6915H         LINE#         413
  -------         ENDPROC       SKEYSCAN
  -------         PROC          _UNLOCK
  D:0007H         SYMBOL        idx
  D:0005H         SYMBOL        time
  B:0020H.0       SYMBOL        sound
  C:9359H         LINE#         416
  C:9359H         LINE#         417
  C:9359H         LINE#         418
  C:9365H         LINE#         419
  C:9368H         LINE#         420
  C:9368H         LINE#         421
  C:936AH         LINE#         422
  C:936CH         LINE#         423
  C:9370H         LINE#         424
  C:9370H         LINE#         425
  C:9372H         LINE#         426
  C:9372H         LINE#         427
  -------         ENDPROC       _UNLOCK
  -------         PROC          RELAYTASK
  C:9493H         LINE#         429
  C:9493H         LINE#         430
  C:9493H         LINE#         431
  C:9499H         LINE#         432
  C:9499H         LINE#         433
  C:949DH         LINE#         434
  C:949DH         LINE#         435
  C:949FH         LINE#         436
  C:949FH         LINE#         437
  C:949FH         LINE#         438
  C:94A5H         LINE#         439
  C:94A5H         LINE#         440
  C:94A9H         LINE#         441
  C:94A9H         LINE#         442
  C:94ABH         LINE#         443
  C:94ABH         LINE#         444
  C:94ABH         LINE#         445
  -------         ENDPROC       RELAYTASK
  -------         ENDMOD        DRIVER

  -------         MODULE        LCD12864
  C:0000H         SYMBOL        _ICE_DUMMY_
  C:942AH         PUBLIC        LcdClear
  D:0080H         PUBLIC        P0
  D:0090H         PUBLIC        P1
  D:00A0H         PUBLIC        P2
  X:0896H         PUBLIC        FlashTime
  D:00B0H         PUBLIC        P3
  C:848CH         PUBLIC        _DisplayCsq
  D:00C0H         PUBLIC        P4
  D:00C8H         PUBLIC        P5
  C:0136H         PUBLIC        AsciiFont
  D:00E8H         PUBLIC        P6
  C:8BFEH         PUBLIC        FlashTask
BL51 BANKED LINKER/LOCATER V6.22.2.0                                                  08/04/2022  14:17:00  PAGE 35


  D:00F8H         PUBLIC        P7
  C:7B14H         PUBLIC        _DisplayFl
  D:00A8H         PUBLIC        IE
  C:9719H         PUBLIC        LCDAddRow
  D:00B8H         PUBLIC        IP
  C:9795H         PUBLIC        _SetFlash
  C:8116H         PUBLIC        _WriteLCDico
  B:0022H.6       PUBLIC        bRight2Left
  D:00D8H         PUBLIC        CCON
  C:93B6H         PUBLIC        _CheckUnicode
  X:0898H         PUBLIC        mapGDRAM
  D:0098H         PUBLIC        SCON
  D:0088H         PUBLIC        TCON
  C:00A6H         PUBLIC        IcoFont
  B:00C8H.2       PUBLIC        P52
  B:00C8H.3       PUBLIC        P53
  B:00C0H.4       PUBLIC        P44
  B:0022H.7       PUBLIC        flg
  D:00F0H         PUBLIC        B
  C:9510H         PUBLIC        _lcd_wcmd
  C:7EBBH         PUBLIC        _BitBlt
  C:929CH         PUBLIC        _lcd_wdat
  D:00E0H         PUBLIC        ACC
  X:0C98H         SYMBOL        lcdCol
  C:9583H         PUBLIC        _DisplayString
  C:9399H         PUBLIC        lcd_busy
  C:63F3H         PUBLIC        _WriteLCD
  X:0C99H         PUBLIC        Fl_X
  X:0C9AH         PUBLIC        Fl_Y
  X:0C9BH         SYMBOL        lcdRow
  C:96E4H         PUBLIC        _DisplayIco
  C:0736H         PUBLIC        HebrewFont
  D:00D0H         PUBLIC        PSW
  C:91BBH         PUBLIC        Init_12864
  -------         PROC          LCD_BUSY
  -------         DO            
  B:0020H.2       SYMBOL        result
  -------         ENDDO         
  C:9399H         LINE#         8
  C:9399H         LINE#         9
  C:9399H         LINE#         12
  C:939CH         LINE#         13
  C:939EH         LINE#         14
  C:93A0H         LINE#         15
  C:93A2H         LINE#         16
  C:93A4H         LINE#         17
  C:93AFH         LINE#         18
  C:93B3H         LINE#         20
  C:93B5H         LINE#         21
  -------         ENDPROC       LCD_BUSY
  -------         PROC          _LCD_WCMD
  D:0007H         SYMBOL        cmd
  C:9510H         LINE#         27
  C:9510H         LINE#         28
  C:9510H         LINE#         29
  C:9515H         LINE#         31
  C:9517H         LINE#         32
BL51 BANKED LINKER/LOCATER V6.22.2.0                                                  08/04/2022  14:17:00  PAGE 36


  C:9519H         LINE#         33
  C:951BH         LINE#         34
  C:951CH         LINE#         35
  C:951DH         LINE#         36
  C:951FH         LINE#         37
  C:9521H         LINE#         39
  C:9523H         LINE#         40
  C:9525H         LINE#         41
  C:9527H         LINE#         42
  -------         ENDPROC       _LCD_WCMD
  -------         PROC          L?0070
  -------         ENDPROC       L?0070
  -------         PROC          _LCD_WDAT
  D:0007H         SYMBOL        dat
  C:929CH         LINE#         49
  C:929CH         LINE#         50
  C:929CH         LINE#         51
  C:92A1H         LINE#         53
  C:92A3H         LINE#         54
  C:92A5H         LINE#         55
  C:92A7H         LINE#         56
  C:92A9H         LINE#         57
  C:92ABH         LINE#         59
  C:92ADH         LINE#         60
  C:92AFH         LINE#         61
  C:92B1H         LINE#         62
  -------         ENDPROC       _LCD_WDAT
  -------         PROC          INIT_12864
  C:91BBH         LINE#         63
  C:91BBH         LINE#         64
  C:91BBH         LINE#         65
  C:91BDH         LINE#         67
  C:91C2H         LINE#         69
  C:91C4H         LINE#         70
  C:91C7H         LINE#         71
  C:91C9H         LINE#         72
  C:91CEH         LINE#         73
  C:91D0H         LINE#         74
  C:91D5H         LINE#         75
  C:91D7H         LINE#         76
  C:91DCH         LINE#         77
  C:91DEH         LINE#         78
  -------         ENDPROC       INIT_12864
  -------         PROC          LCDCLEAR
  C:942AH         LINE#         80
  C:942AH         LINE#         81
  C:942AH         LINE#         82
  C:942FH         LINE#         83
  C:9431H         LINE#         85
  C:943EH         LINE#         87
  -------         ENDPROC       LCDCLEAR
  -------         PROC          _BITBLT
  X:111CH         SYMBOL        pBmp
  -------         DO            
  X:111FH         SYMBOL        i
  D:0006H         SYMBOL        j
  X:1120H         SYMBOL        pNextFrame
BL51 BANKED LINKER/LOCATER V6.22.2.0                                                  08/04/2022  14:17:00  PAGE 37


  -------         ENDDO         
  C:7EBBH         LINE#         158
  C:7EC6H         LINE#         159
  C:7EC6H         LINE#         161
  C:7ED8H         LINE#         163
  C:7EDDH         LINE#         164
  C:7EDDH         LINE#         165
  C:7EE2H         LINE#         166
  C:7EECH         LINE#         167
  C:7EF1H         LINE#         168
  C:7EF6H         LINE#         170
  C:7EFCH         LINE#         172
  C:7EFEH         LINE#         173
  C:7EFEH         LINE#         174
  C:7F04H         LINE#         175
  C:7F0EH         LINE#         176
  C:7F13H         LINE#         177
  C:7F15H         LINE#         178
  C:7F15H         LINE#         179
  C:7F1BH         LINE#         180
  C:7F25H         LINE#         181
  C:7F2AH         LINE#         183
  C:7F36H         LINE#         184
  -------         ENDPROC       _BITBLT
  -------         PROC          _DISPLAYFL
  D:0006H         SYMBOL        X
  D:0005H         SYMBOL        Y
  B:0020H.0       SYMBOL        e
  C:7B14H         LINE#         186
  C:7B16H         LINE#         187
  C:7B16H         LINE#         189
  C:7B1BH         LINE#         190
  C:7B35H         LINE#         191
  C:7B4DH         LINE#         192
  C:7B52H         LINE#         193
  C:7B56H         LINE#         194
  C:7B56H         LINE#         195
  C:7B77H         LINE#         196
  C:7B77H         LINE#         197
  -------         ENDPROC       _DISPLAYFL
  -------         PROC          _CHECKUNICODE
  D:0001H         SYMBOL        pInfo
  C:93B6H         LINE#         204
  C:93B6H         LINE#         205
  C:93B6H         LINE#         206
  C:93C0H         LINE#         207
  C:93C0H         LINE#         208
  C:93C6H         LINE#         209
  C:93C6H         LINE#         210
  C:93C8H         LINE#         211
  C:93C8H         LINE#         212
  C:93CFH         LINE#         213
  C:93D1H         LINE#         214
  C:93D2H         LINE#         215
  -------         ENDPROC       _CHECKUNICODE
  -------         PROC          LCDADDROW
  C:9719H         LINE#         216
BL51 BANKED LINKER/LOCATER V6.22.2.0                                                  08/04/2022  14:17:00  PAGE 38


  C:9719H         LINE#         217
  C:9719H         LINE#         218
  C:971FH         LINE#         219
  C:9723H         LINE#         220
  C:9728H         LINE#         221
  -------         ENDPROC       LCDADDROW
  -------         PROC          _WRITELCD
  X:111CH         SYMBOL        pInfo
  -------         DO            
  X:111FH         SYMBOL        x
  D:0007H         SYMBOL        y
  X:1120H         SYMBOL        c
  X:1121H         SYMBOL        Font
  D:0006H         SYMBOL        iUnicode
  -------         ENDDO         
  C:63F3H         LINE#         222
  C:63FEH         LINE#         223
  C:63FEH         LINE#         230
  C:6403H         LINE#         232
  C:6411H         LINE#         234
  C:642CH         LINE#         235
  C:642CH         LINE#         237
  C:6431H         LINE#         239
  C:6437H         LINE#         240
  C:643DH         LINE#         246
  C:6440H         LINE#         247
  C:6440H         LINE#         249
  C:644EH         LINE#         250
  C:6458H         LINE#         251
  C:6458H         LINE#         252
  C:645EH         LINE#         253
  C:646CH         LINE#         254
  C:646EH         LINE#         256
  C:646EH         LINE#         257
  C:6478H         LINE#         261
  C:6478H         LINE#         266
  C:647CH         LINE#         267
  C:647FH         LINE#         268
  C:647FH         LINE#         269
  C:6492H         LINE#         270
  C:64A4H         LINE#         271
  C:64C6H         LINE#         272
  C:64C6H         LINE#         276
  C:64C6H         LINE#         277
  C:64C6H         LINE#         278
  C:64C6H         LINE#         279
  C:64CCH         LINE#         280
  C:64D3H         LINE#         281
  C:64D3H         LINE#         282
  C:64D8H         LINE#         283
  C:64DDH         LINE#         284
  C:64DDH         LINE#         286
  C:64E0H         LINE#         287
  C:64EAH         LINE#         288
  C:64EAH         LINE#         289
  C:64ECH         LINE#         290
  C:64ECH         LINE#         291
BL51 BANKED LINKER/LOCATER V6.22.2.0                                                  08/04/2022  14:17:00  PAGE 39


  C:652DH         LINE#         292
  C:6532H         LINE#         293
  C:653CH         LINE#         294
  C:653FH         LINE#         296
  -------         ENDPROC       _WRITELCD
  -------         PROC          _WRITELCDICO
  X:1081H         SYMBOL        Row
  X:1082H         SYMBOL        Col
  D:0003H         SYMBOL        ico
  X:1084H         SYMBOL        mask
  -------         DO            
  D:0007H         SYMBOL        y
  X:1085H         SYMBOL        Font
  -------         ENDDO         
  C:8116H         LINE#         298
  C:811EH         LINE#         299
  C:811EH         LINE#         303
  C:8137H         LINE#         304
  C:8139H         LINE#         305
  C:8139H         LINE#         306
  C:8180H         LINE#         307
  C:8185H         LINE#         308
  -------         ENDPROC       _WRITELCDICO
  -------         PROC          _DISPLAYSTRING
  D:0007H         SYMBOL        X
  D:0005H         SYMBOL        Y
  D:0001H         SYMBOL        ptr
  C:9583H         LINE#         310
  C:9583H         LINE#         311
  C:9583H         LINE#         312
  C:9588H         LINE#         313
  C:958DH         LINE#         314
  C:9590H         LINE#         315
  -------         ENDPROC       _DISPLAYSTRING
  -------         PROC          _DISPLAYICO
  D:0007H         SYMBOL        X
  D:0005H         SYMBOL        Y
  D:0003H         SYMBOL        ico
  C:96E4H         LINE#         318
  C:96E4H         LINE#         319
  C:96E4H         LINE#         320
  C:96EDH         LINE#         321
  -------         ENDPROC       _DISPLAYICO
  -------         PROC          _DISPLAYCSQ
  X:1381H         SYMBOL        X
  X:1382H         SYMBOL        Y
  D:0004H         SYMBOL        csq
  -------         DO            
  D:0006H         SYMBOL        i
  X:1383H         SYMBOL        msk
  -------         ENDDO         
  C:848CH         LINE#         323
  C:8496H         LINE#         324
  C:8496H         LINE#         326
  C:8499H         LINE#         327
  C:849FH         LINE#         328
  C:84A4H         LINE#         329
BL51 BANKED LINKER/LOCATER V6.22.2.0                                                  08/04/2022  14:17:00  PAGE 40


  C:84A4H         LINE#         330
  C:84A6H         LINE#         331
  C:84A6H         LINE#         332
  C:84ADH         LINE#         333
  C:84ADH         LINE#         334
  C:84B6H         LINE#         335
  C:84B9H         LINE#         336
  C:84BCH         LINE#         337
  C:84DAH         LINE#         338
  C:84EEH         LINE#         339
  -------         ENDPROC       _DISPLAYCSQ
  -------         PROC          _SETFLASH
  D:0007H         SYMBOL        X
  D:0005H         SYMBOL        Y
  C:9795H         LINE#         346
  C:9795H         LINE#         347
  C:9795H         LINE#         348
  C:979AH         LINE#         349
  C:979DH         LINE#         350
  -------         ENDPROC       _SETFLASH
  -------         PROC          FLASHTASK
  C:8BFEH         LINE#         351
  C:8BFEH         LINE#         352
  C:8BFEH         LINE#         353
  C:8C0CH         LINE#         354
  C:8C0CH         LINE#         356
  C:8C0CH         LINE#         357
  C:8C1FH         LINE#         358
  C:8C1FH         LINE#         359
  C:8C26H         LINE#         360
  C:8C2DH         LINE#         361
  C:8C2FH         LINE#         362
  C:8C2FH         LINE#         363
  -------         ENDPROC       FLASHTASK
  -------         ENDMOD        LCD12864

  -------         MODULE        GSM
  C:0000H         SYMBOL        _ICE_DUMMY_
  C:5CDBH         PUBLIC        _AtCmdCb_cpin
  X:1252H         PUBLIC        StrSetVolum
  D:0080H         PUBLIC        P0
  D:0090H         PUBLIC        P1
  D:00A0H         PUBLIC        P2
  C:8E64H         PUBLIC        _GSM_send_dtmf
  D:00B0H         PUBLIC        P3
  D:00C0H         PUBLIC        P4
  D:00C8H         PUBLIC        P5
  D:00E8H         PUBLIC        P6
  D:00F8H         PUBLIC        P7
  C:7DB8H         PUBLIC        _GSM_SetVolum
  C:1843H         PUBLIC        _ModemReceiveHandle
  D:00A8H         PUBLIC        IE
  C:8E8FH         PUBLIC        GSM_GetCsq
  D:00B8H         PUBLIC        IP
  C:6137H         PUBLIC        _AtCmdCb_csq
  X:1266H         PUBLIC        TalkTime
  D:00D8H         PUBLIC        CCON
BL51 BANKED LINKER/LOCATER V6.22.2.0                                                  08/04/2022  14:17:00  PAGE 41


  C:94ACH         PUBLIC        GSM_Huangup
  C:8CF4H         PUBLIC        _AtCmdCb_at
  B:0080H.0       PUBLIC        P00
  C:91DFH         PUBLIC        GSM_Repower
  X:1268H         PUBLIC        GsmStatus
  D:0098H         PUBLIC        SCON
  B:00C0H.1       PUBLIC        P41
  D:0088H         PUBLIC        TCON
  B:00F8H.0       PUBLIC        P70
  B:0021H.2       PUBLIC        WaitCsq
  D:00F0H         PUBLIC        B
  C:399DH         SYMBOL        _?ix1000
  C:8562H         PUBLIC        _GSM_Call
  D:00E0H         PUBLIC        ACC
  X:1269H         PUBLIC        CallInTime
  X:126BH         PUBLIC        CallOutTime
  B:0021H.3       PUBLIC        GsmCsqFlag
  X:126DH         PUBLIC        GsmInitTime
  X:126FH         PUBLIC        GsmCsq
  X:1270H         PUBLIC        PaOpenTime
  B:0021H.4       PUBLIC        GsmCallOk
  C:8D23H         PUBLIC        _AtCmdCb_clcc
  X:1271H         PUBLIC        AtCmdBuf
  C:92B2H         PUBLIC        GSM_StartInit
  X:12A1H         PUBLIC        AtCmdIdx
  C:3013H         PUBLIC        GSM_InitTask
  C:5FC7H         PUBLIC        _AtCmdCb_creg
  X:12A2H         PUBLIC        AtCmdRetryTime
  D:00D0H         PUBLIC        PSW
  C:6916H         PUBLIC        _GsmUARTCmd
  -------         PROC          _ATCMDCB_AT
  D:0001H         SYMBOL        pRspStr
  -------         DO            
  D:0001H         SYMBOL        p
  X:124DH         SYMBOL        count
  -------         ENDDO         
  C:8CF4H         LINE#         22
  C:8CF4H         LINE#         23
  C:8CF4H         LINE#         27
  C:8CF4H         LINE#         35
  C:8D0DH         LINE#         36
  C:8D0DH         LINE#         37
  C:8D10H         LINE#         38
  C:8D10H         LINE#         41
  C:8D1BH         LINE#         42
  C:8D1BH         LINE#         43
  C:8D1DH         LINE#         44
  C:8D20H         LINE#         45
  C:8D20H         LINE#         46
  C:8D22H         LINE#         47
  -------         ENDPROC       _ATCMDCB_AT
  -------         PROC          _ATCMDCB_CPIN
  D:0001H         SYMBOL        pRspStr
  -------         DO            
  X:1074H         SYMBOL        rspValue
  C:395EH         SYMBOL        rspStrTable
  X:1075H         SYMBOL        rspType
BL51 BANKED LINKER/LOCATER V6.22.2.0                                                  08/04/2022  14:17:00  PAGE 42


  X:1077H         SYMBOL        n
  X:1078H         SYMBOL        stat
  X:1079H         SYMBOL        i
  X:107AH         SYMBOL        p
  X:124EH         SYMBOL        count
  -------         ENDDO         
  C:5CDBH         LINE#         49
  C:5CDBH         LINE#         50
  C:5CDBH         LINE#         51
  C:5CE0H         LINE#         53
  C:5CE6H         LINE#         54
  C:5CE9H         LINE#         55
  C:5CEBH         LINE#         56
  C:5CEDH         LINE#         57
  C:5CF6H         LINE#         66
  C:5D08H         LINE#         67
  C:5D08H         LINE#         68
  C:5D41H         LINE#         69
  C:5D41H         LINE#         70
  C:5D50H         LINE#         71
  C:5D54H         LINE#         72
  C:5DB5H         LINE#         73
  C:5DB5H         LINE#         74
  C:5DB7H         LINE#         75
  C:5DB7H         LINE#         76
  C:5DC0H         LINE#         80
  C:5DD9H         LINE#         81
  C:5DD9H         LINE#         82
  C:5DD9H         LINE#         83
  C:5DDFH         LINE#         84
  C:5DE4H         LINE#         86
  C:5DE6H         LINE#         87
  C:5DE6H         LINE#         88
  C:5DEFH         LINE#         89
  C:5DEFH         LINE#         90
  C:5DF5H         LINE#         91
  C:5DFAH         LINE#         92
  C:5DFCH         LINE#         93
  C:5DFCH         LINE#         94
  C:5E01H         LINE#         95
  C:5E07H         LINE#         96
  C:5E07H         LINE#         97
  C:5E0DH         LINE#         99
  C:5E0FH         LINE#         100
  C:5E0FH         LINE#         101
  C:5E18H         LINE#         102
  C:5E18H         LINE#         103
  C:5E1EH         LINE#         104
  C:5E23H         LINE#         105
  C:5E25H         LINE#         106
  C:5E25H         LINE#         107
  C:5E2AH         LINE#         108
  C:5E30H         LINE#         109
  C:5E30H         LINE#         110
  C:5E32H         LINE#         112
  C:5E32H         LINE#         113
  C:5E38H         LINE#         115
BL51 BANKED LINKER/LOCATER V6.22.2.0                                                  08/04/2022  14:17:00  PAGE 43


  C:5E3EH         LINE#         116
  C:5E3EH         LINE#         117
  C:5E3EH         LINE#         118
  C:5E3EH         LINE#         119
  C:5E3EH         LINE#         121
  C:5E4FH         LINE#         122
  C:5E54H         LINE#         123
  -------         ENDPROC       _ATCMDCB_CPIN
  -------         PROC          _ATCMDCB_CREG
  D:0001H         SYMBOL        pRspStr
  -------         DO            
  X:1074H         SYMBOL        rspValue
  C:396AH         SYMBOL        rspStrTable
  X:1075H         SYMBOL        rspType
  X:1077H         SYMBOL        n
  X:1078H         SYMBOL        stat
  X:1079H         SYMBOL        i
  X:107AH         SYMBOL        p
  D:0006H         SYMBOL        tmp
  X:124FH         SYMBOL        count
  -------         ENDDO         
  C:5FC7H         LINE#         125
  C:5FC7H         LINE#         126
  C:5FC7H         LINE#         127
  C:5FCCH         LINE#         129
  C:5FD2H         LINE#         130
  C:5FD5H         LINE#         131
  C:5FD7H         LINE#         132
  C:5FD9H         LINE#         133
  C:5FE2H         LINE#         143
  C:5FF4H         LINE#         144
  C:5FF4H         LINE#         145
  C:6025H         LINE#         146
  C:6030H         LINE#         147
  C:6030H         LINE#         148
  C:6039H         LINE#         149
  C:6048H         LINE#         150
  C:604FH         LINE#         151
  C:60B0H         LINE#         152
  C:60C9H         LINE#         153
  C:60C9H         LINE#         154
  C:60CBH         LINE#         155
  C:60CBH         LINE#         156
  C:60D4H         LINE#         160
  C:60E6H         LINE#         161
  C:60E6H         LINE#         163
  C:60E6H         LINE#         164
  C:60EFH         LINE#         165
  C:60EFH         LINE#         166
  C:60EFH         LINE#         167
  C:60F1H         LINE#         174
  C:60F1H         LINE#         175
  C:60F8H         LINE#         176
  C:60F8H         LINE#         177
  C:60FDH         LINE#         178
  C:60FDH         LINE#         179
  C:60FFH         LINE#         180
BL51 BANKED LINKER/LOCATER V6.22.2.0                                                  08/04/2022  14:17:00  PAGE 44


  C:60FFH         LINE#         181
  C:6108H         LINE#         185
  C:610EH         LINE#         188
  C:6113H         LINE#         189
  C:6115H         LINE#         190
  C:6115H         LINE#         191
  C:611AH         LINE#         192
  C:6120H         LINE#         193
  C:6120H         LINE#         194
  C:6120H         LINE#         195
  C:6120H         LINE#         197
  C:6120H         LINE#         198
  C:6120H         LINE#         199
  C:6120H         LINE#         201
  C:6131H         LINE#         203
  C:6136H         LINE#         204
  -------         ENDPROC       _ATCMDCB_CREG
  -------         PROC          _ATCMDCB_CSQ
  D:0001H         SYMBOL        pRspStr
  -------         DO            
  X:1074H         SYMBOL        rspValue
  C:3970H         SYMBOL        rspStrTable
  X:1075H         SYMBOL        rspType
  X:1077H         SYMBOL        csq
  X:1078H         SYMBOL        stat
  X:1079H         SYMBOL        i
  X:107AH         SYMBOL        p
  D:0006H         SYMBOL        tmp
  X:1250H         SYMBOL        count
  -------         ENDDO         
  C:6137H         LINE#         268
  C:6137H         LINE#         269
  C:6137H         LINE#         270
  C:613CH         LINE#         272
  C:6142H         LINE#         273
  C:6145H         LINE#         274
  C:6147H         LINE#         275
  C:6149H         LINE#         276
  C:6152H         LINE#         280
  C:6154H         LINE#         288
  C:6166H         LINE#         289
  C:6166H         LINE#         290
  C:6197H         LINE#         291
  C:61A2H         LINE#         292
  C:61A2H         LINE#         293
  C:61ABH         LINE#         294
  C:61BAH         LINE#         295
  C:61C1H         LINE#         296
  C:6222H         LINE#         297
  C:623BH         LINE#         298
  C:623BH         LINE#         299
  C:623DH         LINE#         300
  C:623DH         LINE#         301
  C:6246H         LINE#         305
  C:6258H         LINE#         306
  C:6258H         LINE#         308
  C:6258H         LINE#         309
BL51 BANKED LINKER/LOCATER V6.22.2.0                                                  08/04/2022  14:17:00  PAGE 45


  C:625FH         LINE#         310
  C:6265H         LINE#         311
  C:626AH         LINE#         312
  C:626CH         LINE#         313
  C:626CH         LINE#         314
  C:6271H         LINE#         315
  C:6277H         LINE#         316
  C:6277H         LINE#         317
  C:6279H         LINE#         319
  C:6279H         LINE#         320
  C:6281H         LINE#         321
  C:6283H         LINE#         322
  C:6289H         LINE#         323
  C:6289H         LINE#         325
  C:6289H         LINE#         326
  C:6289H         LINE#         327
  C:6289H         LINE#         329
  C:629AH         LINE#         331
  C:629FH         LINE#         332
  -------         ENDPROC       _ATCMDCB_CSQ
  -------         PROC          _ATCMDCB_CLCC
  D:0001H         SYMBOL        pRspStr
  -------         DO            
  D:0001H         SYMBOL        p
  X:1251H         SYMBOL        count
  -------         ENDDO         
  C:8D23H         LINE#         334
  C:8D23H         LINE#         335
  C:8D23H         LINE#         339
  C:8D23H         LINE#         341
  C:8D3CH         LINE#         342
  C:8D3CH         LINE#         343
  C:8D3FH         LINE#         344
  C:8D3FH         LINE#         345
  C:8D4AH         LINE#         346
  C:8D4AH         LINE#         347
  C:8D4CH         LINE#         348
  C:8D4FH         LINE#         349
  C:8D4FH         LINE#         350
  C:8D51H         LINE#         351
  -------         ENDPROC       _ATCMDCB_CLCC
  -------         PROC          GSM_REPOWER
  C:91DFH         LINE#         395
  C:91DFH         LINE#         396
  C:91DFH         LINE#         397
  C:91E8H         LINE#         398
  C:91EEH         LINE#         399
  C:91F8H         LINE#         402
  C:91FAH         LINE#         404
  -------         ENDPROC       GSM_REPOWER
  -------         PROC          GSM_STARTINIT
  C:92B2H         LINE#         406
  C:92B2H         LINE#         407
  C:92B2H         LINE#         411
  C:92B4H         LINE#         412
  C:92BEH         LINE#         413
  C:92C4H         LINE#         415
BL51 BANKED LINKER/LOCATER V6.22.2.0                                                  08/04/2022  14:17:00  PAGE 46


  C:92CAH         LINE#         416
  C:92CCH         LINE#         417
  -------         ENDPROC       GSM_STARTINIT
  -------         PROC          GSM_GETCSQ
  C:8E8FH         LINE#         421
  C:8E8FH         LINE#         422
  C:8E8FH         LINE#         423
  C:8E97H         LINE#         424
  C:8E97H         LINE#         426
  C:8E97H         LINE#         427
  C:8EA1H         LINE#         428
  C:8EA7H         LINE#         429
  C:8EADH         LINE#         430
  C:8EAFH         LINE#         431
  C:8EB8H         LINE#         432
  -------         ENDPROC       GSM_GETCSQ
  -------         PROC          _GSM_SETVOLUM
  X:1080H         SYMBOL        volum
  C:7DB8H         LINE#         433
  C:7DBDH         LINE#         434
  C:7DBDH         LINE#         435
  C:7DC7H         LINE#         436
  C:7DCDH         LINE#         437
  C:7DD3H         LINE#         439
  C:7DEDH         LINE#         444
  C:7E0AH         LINE#         445
  -------         ENDPROC       _GSM_SETVOLUM
  -------         PROC          _GSM_CALL
  X:10ACH         SYMBOL        tel
  C:8562H         LINE#         451
  C:856DH         LINE#         452
  C:856DH         LINE#         453
  C:857EH         LINE#         454
  C:857EH         LINE#         455
  C:8587H         LINE#         456
  C:8595H         LINE#         457
  C:859EH         LINE#         458
  C:85ABH         LINE#         459
  C:85B3H         LINE#         460
  C:85B9H         LINE#         461
  C:85BBH         LINE#         464
  C:85C0H         LINE#         465
  C:85C2H         LINE#         466
  C:85C4H         LINE#         467
  C:85C4H         LINE#         468
  C:85C5H         LINE#         469
  -------         ENDPROC       _GSM_CALL
  -------         PROC          GSM_HUANGUP
  C:94ACH         LINE#         470
  C:94ACH         LINE#         471
  C:94ACH         LINE#         472
  C:94AEH         LINE#         474
  C:94B7H         LINE#         478
  C:94BDH         LINE#         479
  C:94C4H         LINE#         481
  -------         ENDPROC       GSM_HUANGUP
  -------         PROC          GSM_INITTASK
BL51 BANKED LINKER/LOCATER V6.22.2.0                                                  08/04/2022  14:17:00  PAGE 47


  C:3013H         LINE#         483
  C:3013H         LINE#         484
  C:3013H         LINE#         485
  C:3047H         LINE#         486
  C:3047H         LINE#         487
  C:3047H         LINE#         488
  C:3058H         LINE#         489
  C:3058H         LINE#         490
  C:305AH         LINE#         491
  C:3064H         LINE#         492
  C:3069H         LINE#         493
  C:306DH         LINE#         494
  C:306DH         LINE#         495
  C:306EH         LINE#         496
  C:306EH         LINE#         497
  C:307FH         LINE#         498
  C:307FH         LINE#         499
  C:3082H         LINE#         500
  C:3082H         LINE#         501
  C:3082H         LINE#         502
  C:3082H         LINE#         503
  C:3093H         LINE#         504
  C:3093H         LINE#         505
  C:3095H         LINE#         506
  C:309FH         LINE#         507
  C:30A5H         LINE#         508
  C:30ABH         LINE#         509
  C:30ABH         LINE#         510
  C:30AEH         LINE#         511
  C:30AEH         LINE#         512
  C:30BFH         LINE#         513
  C:30BFH         LINE#         514
  C:30C1H         LINE#         515
  C:30CBH         LINE#         516
  C:30D1H         LINE#         517
  C:30D7H         LINE#         518
  C:30D7H         LINE#         519
  C:30DAH         LINE#         520
  C:30DAH         LINE#         521
  C:30EBH         LINE#         522
  C:30EBH         LINE#         524
  C:30F1H         LINE#         525
  C:30F6H         LINE#         526
  C:30F8H         LINE#         529
  C:3117H         LINE#         533
  C:3125H         LINE#         535
  C:3141H         LINE#         536
  C:314BH         LINE#         537
  C:3151H         LINE#         538
  C:3151H         LINE#         539
  C:3153H         LINE#         540
  C:3153H         LINE#         541
  C:3164H         LINE#         542
  C:3164H         LINE#         543
  C:3173H         LINE#         544
  C:3173H         LINE#         545
  C:318BH         LINE#         546
BL51 BANKED LINKER/LOCATER V6.22.2.0                                                  08/04/2022  14:17:00  PAGE 48


  C:3195H         LINE#         547
  C:31AEH         LINE#         548
  C:31AEH         LINE#         550
  C:31AEH         LINE#         551
  C:31DAH         LINE#         552
  C:31DDH         LINE#         553
  C:31DDH         LINE#         554
  C:31DDH         LINE#         555
  C:31DDH         LINE#         556
  C:31DDH         LINE#         557
  C:31EEH         LINE#         558
  C:31EEH         LINE#         559
  C:31F1H         LINE#         560
  C:31F1H         LINE#         561
  C:31F1H         LINE#         562
  C:31F1H         LINE#         563
  C:3202H         LINE#         564
  C:3202H         LINE#         565
  C:320CH         LINE#         566
  C:3224H         LINE#         567
  C:3232H         LINE#         568
  C:3232H         LINE#         569
  C:3235H         LINE#         570
  C:323AH         LINE#         571
  C:3241H         LINE#         581
  C:325CH         LINE#         582
  C:325CH         LINE#         583
  C:3262H         LINE#         584
  C:326CH         LINE#         586
  C:326CH         LINE#         588
  C:326FH         LINE#         589
  C:3278H         LINE#         590
  C:3278H         LINE#         592
  C:3278H         LINE#         593
  C:3281H         LINE#         596
  C:3281H         LINE#         597
  C:3281H         LINE#         598
  C:3281H         LINE#         599
  C:3281H         LINE#         600
  C:3292H         LINE#         601
  C:3292H         LINE#         602
  C:329CH         LINE#         603
  C:32ADH         LINE#         604
  C:32ADH         LINE#         605
  C:32B6H         LINE#         606
  C:32BCH         LINE#         607
  C:32C2H         LINE#         609
  C:32C4H         LINE#         611
  C:32D3H         LINE#         612
  C:32DCH         LINE#         613
  C:32DFH         LINE#         614
  C:32DFH         LINE#         616
  C:32DFH         LINE#         620
  C:32DFH         LINE#         621
  C:32DFH         LINE#         622
  C:32DFH         LINE#         623
  C:32DFH         LINE#         624
BL51 BANKED LINKER/LOCATER V6.22.2.0                                                  08/04/2022  14:17:00  PAGE 49


  C:32EDH         LINE#         625
  C:32EDH         LINE#         626
  C:32F7H         LINE#         632
  C:32F7H         LINE#         633
  C:32F8H         LINE#         634
  C:32F8H         LINE#         635
  C:3306H         LINE#         636
  C:3306H         LINE#         637
  C:3310H         LINE#         638
  C:331EH         LINE#         639
  C:331EH         LINE#         640
  C:3327H         LINE#         641
  C:3327H         LINE#         642
  C:332AH         LINE#         643
  C:3337H         LINE#         644
  C:3337H         LINE#         645
  C:333DH         LINE#         646
  C:3342H         LINE#         648
  C:3342H         LINE#         649
  C:3342H         LINE#         650
  C:3345H         LINE#         651
  C:334AH         LINE#         652
  C:334DH         LINE#         653
  C:334DH         LINE#         654
  C:334DH         LINE#         655
  C:334DH         LINE#         656
  C:334DH         LINE#         657
  C:334DH         LINE#         658
  C:334DH         LINE#         659
  -------         ENDPROC       GSM_INITTASK
  -------         PROC          _MODEMRECEIVEHANDLE
  D:0001H         SYMBOL        buf
  -------         DO            
  C:3976H         SYMBOL        rspStrTable
  X:1077H         SYMBOL        rspType
  X:1079H         SYMBOL        i
  X:107BH         SYMBOL        p
  X:107EH         SYMBOL        j
  X:107FH         SYMBOL        stat
  -------         ENDDO         
  C:1843H         LINE#         661
  C:1843H         LINE#         662
  C:1843H         LINE#         677
  C:184BH         LINE#         678
  C:1850H         LINE#         679
  C:1859H         LINE#         682
  C:1872H         LINE#         683
  C:1872H         LINE#         684
  C:18B0H         LINE#         685
  C:18B0H         LINE#         686
  C:18BFH         LINE#         687
  C:18C1H         LINE#         688
  C:18C1H         LINE#         689
  C:18D1H         LINE#         690
  C:18F1H         LINE#         691
  C:192DH         LINE#         692
  C:192DH         LINE#         693
BL51 BANKED LINKER/LOCATER V6.22.2.0                                                  08/04/2022  14:17:00  PAGE 50


  C:192DH         LINE#         694
  C:192DH         LINE#         695
  C:192DH         LINE#         696
  C:193FH         LINE#         697
  C:193FH         LINE#         699
  C:1942H         LINE#         700
  C:194BH         LINE#         701
  C:194BH         LINE#         702
  C:194EH         LINE#         703
  C:194EH         LINE#         704
  C:194EH         LINE#         706
  C:1970H         LINE#         707
  C:1970H         LINE#         708
  C:1976H         LINE#         709
  C:197BH         LINE#         711
  C:197BH         LINE#         712
  C:1986H         LINE#         713
  C:1986H         LINE#         715
  C:1986H         LINE#         716
  C:1986H         LINE#         717
  C:1986H         LINE#         718
  C:1986H         LINE#         719
  C:1989H         LINE#         720
  C:1989H         LINE#         723
  C:1994H         LINE#         724
  C:1994H         LINE#         725
  C:1997H         LINE#         727
  C:199EH         LINE#         728
  C:199EH         LINE#         729
  C:19A7H         LINE#         730
  C:19A8H         LINE#         732
  C:19A8H         LINE#         733
  C:19ABH         LINE#         734
  C:19B0H         LINE#         735
  C:19B0H         LINE#         736
  C:19B0H         LINE#         748
  C:19B0H         LINE#         749
  C:19B0H         LINE#         750
  C:19B0H         LINE#         751
  C:19DEH         LINE#         752
  C:19EDH         LINE#         753
  C:19EDH         LINE#         754
  C:1A12H         LINE#         755
  C:1A52H         LINE#         756
  C:1A63H         LINE#         758
  C:1A69H         LINE#         759
  C:1A69H         LINE#         760
  C:1A6FH         LINE#         761
  C:1A75H         LINE#         763
  C:1A7CH         LINE#         764
  C:1A8BH         LINE#         765
  C:1A94H         LINE#         766
  C:1A97H         LINE#         767
  C:1A99H         LINE#         768
  C:1A9AH         LINE#         769
  C:1AA2H         LINE#         770
  C:1AA2H         LINE#         771
BL51 BANKED LINKER/LOCATER V6.22.2.0                                                  08/04/2022  14:17:00  PAGE 51


  C:1AA5H         LINE#         772
  C:1AA5H         LINE#         773
  C:1AA7H         LINE#         774
  C:1AB4H         LINE#         775
  C:1AB4H         LINE#         777
  C:1AC1H         LINE#         778
  C:1AC1H         LINE#         779
  C:1ACAH         LINE#         780
  C:1ACCH         LINE#         781
  C:1ACCH         LINE#         783
  C:1ACDH         LINE#         784
  C:1AD8H         LINE#         785
  C:1AD8H         LINE#         786
  C:1AE3H         LINE#         787
  C:1AE3H         LINE#         789
  C:1AE3H         LINE#         790
  C:1AE6H         LINE#         791
  C:1AEBH         LINE#         792
  C:1AEEH         LINE#         794
  C:1AEEH         LINE#         795
  C:1AEEH         LINE#         796
  C:1AEEH         LINE#         797
  C:1AEEH         LINE#         798
  C:1AEEH         LINE#         799
  C:1AEEH         LINE#         807
  C:1AEEH         LINE#         808
  C:1AEEH         LINE#         809
  C:1AEEH         LINE#         810
  C:1B1CH         LINE#         811
  C:1B2BH         LINE#         812
  C:1B2BH         LINE#         813
  C:1B50H         LINE#         814
  C:1B78H         LINE#         815
  C:1B83H         LINE#         816
  C:1B8DH         LINE#         817
  C:1B90H         LINE#         818
  C:1B90H         LINE#         819
  C:1B90H         LINE#         820
  C:1B90H         LINE#         821
  C:1B90H         LINE#         822
  C:1B90H         LINE#         823
  C:1BBEH         LINE#         824
  C:1BCDH         LINE#         825
  C:1BCDH         LINE#         826
  C:1BF2H         LINE#         827
  C:1C1AH         LINE#         828
  C:1C22H         LINE#         829
  C:1C2BH         LINE#         830
  C:1C2EH         LINE#         831
  C:1C2EH         LINE#         832
  C:1C2EH         LINE#         833
  C:1C2EH         LINE#         834
  C:1C2EH         LINE#         835
  C:1C2EH         LINE#         836
  C:1C5CH         LINE#         837
  C:1C68H         LINE#         838
  C:1C68H         LINE#         839
BL51 BANKED LINKER/LOCATER V6.22.2.0                                                  08/04/2022  14:17:00  PAGE 52


  C:1C8DH         LINE#         840
  C:1CB5H         LINE#         841
  C:1CBFH         LINE#         842
  C:1CCCH         LINE#         843
  C:1CCCH         LINE#         844
  C:1CCCH         LINE#         845
  C:1CCCH         LINE#         846
  C:1CCCH         LINE#         881
  C:1CCCH         LINE#         882
  -------         ENDPROC       _MODEMRECEIVEHANDLE
  -------         PROC          _GSMUARTCMD
  X:1074H         SYMBOL        buf
  D:0004H         SYMBOL        len
  -------         DO            
  D:0007H         SYMBOL        CmdRes
  -------         ENDDO         
  C:6916H         LINE#         884
  C:6921H         LINE#         885
  C:6921H         LINE#         887
  C:6938H         LINE#         888
  C:6950H         LINE#         889
  C:6950H         LINE#         890
  C:6969H         LINE#         891
  C:6969H         LINE#         892
  C:6995H         LINE#         893
  C:69A5H         LINE#         894
  C:69A5H         LINE#         895
  C:69A5H         LINE#         896
  C:69A5H         LINE#         897
  C:69AAH         LINE#         898
  C:69B4H         LINE#         899
  C:69B4H         LINE#         900
  C:69B7H         LINE#         901
  C:69D0H         LINE#         902
  C:69DAH         LINE#         903
  C:69F3H         LINE#         904
  C:69F3H         LINE#         906
  C:69F3H         LINE#         907
  C:69FDH         LINE#         908
  C:6A03H         LINE#         909
  C:6A0BH         LINE#         910
  C:6A0BH         LINE#         911
  C:6A0BH         LINE#         912
  C:6A0BH         LINE#         913
  C:6A0BH         LINE#         914
  C:6A0BH         LINE#         921
  C:6A0DH         LINE#         922
  C:6A0DH         LINE#         924
  C:6A0DH         LINE#         925
  C:6A0DH         LINE#         926
  C:6A14H         LINE#         927
  C:6A14H         LINE#         928
  C:6A1EH         LINE#         929
  C:6A24H         LINE#         930
  C:6A25H         LINE#         932
  C:6A25H         LINE#         933
  C:6A28H         LINE#         934
BL51 BANKED LINKER/LOCATER V6.22.2.0                                                  08/04/2022  14:17:00  PAGE 53


  C:6A28H         LINE#         935
  C:6A28H         LINE#         936
  C:6A28H         LINE#         937
  C:6A28H         LINE#         938
  C:6A28H         LINE#         940
  C:6A28H         LINE#         941
  C:6A36H         LINE#         942
  C:6A36H         LINE#         943
  -------         ENDPROC       _GSMUARTCMD
  -------         PROC          _GSM_SEND_DTMF
  X:1076H         SYMBOL        k
  -------         DO            
  X:1077H         SYMBOL        dtmf_cmd
  -------         ENDDO         
  C:8E64H         LINE#         945
  C:8E69H         LINE#         946
  C:8E69H         LINE#         947
  C:8E7CH         LINE#         948
  C:8E86H         LINE#         951
  -------         ENDPROC       _GSM_SEND_DTMF
  -------         ENDMOD        GSM

  -------         MODULE        NAMELIST
  C:0000H         SYMBOL        _ICE_DUMMY_
  D:0080H         PUBLIC        P0
  D:0090H         PUBLIC        P1
  D:00A0H         PUBLIC        P2
  B:0023H.2       SYMBOL        NameEditSaved
  D:00B0H         PUBLIC        P3
  D:00C0H         PUBLIC        P4
  D:00C8H         PUBLIC        P5
  C:4924H         PUBLIC        _NameDeleteKey
  D:00E8H         PUBLIC        P6
  D:00F8H         PUBLIC        P7
  C:8A15H         PUBLIC        _WriteNameItemByIdx
  X:12A4H         PUBLIC        EditChar
  C:9708H         PUBLIC        _DelNameItemByRoom
  C:92D4H         PUBLIC        _ShowNameByIdx
  C:7599H         PUBLIC        NameEditChageType
  C:000EH         PUBLIC        ClearNameList
  D:00A8H         PUBLIC        IE
  C:8186H         PUBLIC        _DelNameItemByIdx
  C:882AH         PUBLIC        _GetNameItemByRoom
  C:9599H         PUBLIC        DeleteAllNameCon
  D:00B8H         PUBLIC        IP
  X:12A5H         PUBLIC        EditTime
  X:12A7H         PUBLIC        NameEditItem
  C:8028H         PUBLIC        _AddNameItem
  C:9227H         PUBLIC        SaveNameCount
  D:00D8H         PUBLIC        CCON
  C:447AH         PUBLIC        _ShowName
  X:12F7H         SYMBOL        NameEditType
  X:12F8H         SYMBOL        NameEditIdx
  D:0098H         PUBLIC        SCON
  D:0088H         PUBLIC        TCON
  C:253EH         PUBLIC        _NameEditKey
  C:9698H         PUBLIC        InitNameList
BL51 BANKED LINKER/LOCATER V6.22.2.0                                                  08/04/2022  14:17:00  PAGE 54


  C:0026H         PUBLIC        EditNameItemCon
  D:00F0H         PUBLIC        B
  C:6F48H         PUBLIC        HBtab
  D:00E0H         PUBLIC        ACC
  C:705BH         PUBLIC        _CallByNameItem
  C:81F5H         PUBLIC        NameSetCon
  C:92F6H         PUBLIC        _NameSetKey
  C:9528H         PUBLIC        _NameDelAllKey
  C:0E7EH         PUBLIC        _RevNamelist
  C:8CC4H         PUBLIC        _ReadNameItemByIdx
  D:00D0H         PUBLIC        PSW
  C:906FH         PUBLIC        DeleteNameCon
  -------         PROC          SAVENAMECOUNT
  C:9227H         LINE#         11
  C:9227H         LINE#         12
  C:9227H         LINE#         13
  -------         ENDPROC       SAVENAMECOUNT
  -------         PROC          CLEARNAMELIST
  C:000EH         LINE#         16
  C:000EH         LINE#         17
  C:000EH         LINE#         18
  C:0015H         LINE#         19
  -------         ENDPROC       CLEARNAMELIST
  -------         PROC          INITNAMELIST
  C:9698H         LINE#         22
  C:9698H         LINE#         23
  C:9698H         LINE#         24
  C:96A7H         LINE#         25
  C:96A7H         LINE#         26
  C:96AAH         LINE#         27
  C:96AAH         LINE#         28
  -------         ENDPROC       INITNAMELIST
  -------         PROC          L?0235
  -------         ENDPROC       L?0235
  -------         PROC          _WRITENAMEITEMBYIDX
  D:0006H         SYMBOL        idx
  X:111AH         SYMBOL        pItem
  -------         DO            
  D:0006H         SYMBOL        addr
  -------         ENDDO         
  C:8A15H         LINE#         31
  C:8A20H         LINE#         32
  C:8A20H         LINE#         33
  C:8A20H         LINE#         34
  C:8A27H         LINE#         35
  -------         ENDPROC       _WRITENAMEITEMBYIDX
  -------         PROC          _READNAMEITEMBYIDX
  D:0006H         SYMBOL        idx
  X:111AH         SYMBOL        pItem
  -------         DO            
  D:0006H         SYMBOL        addr
  -------         ENDDO         
  C:8CC4H         LINE#         40
  C:8CCFH         LINE#         41
  C:8CCFH         LINE#         42
  C:8CCFH         LINE#         43
  C:8CD6H         LINE#         44
BL51 BANKED LINKER/LOCATER V6.22.2.0                                                  08/04/2022  14:17:00  PAGE 55


  -------         ENDPROC       _READNAMEITEMBYIDX
  -------         PROC          _GETNAMEITEMBYROOM
  D:0006H         SYMBOL        room
  X:10C8H         SYMBOL        pItem
  -------         DO            
  X:10CBH         SYMBOL        idx
  -------         ENDDO         
  C:882AH         LINE#         48
  C:8835H         LINE#         49
  C:8835H         LINE#         50
  C:883BH         LINE#         51
  C:8848H         LINE#         52
  C:884FH         LINE#         53
  C:884FH         LINE#         54
  C:8865H         LINE#         55
  C:886EH         LINE#         56
  C:886EH         LINE#         57
  C:8872H         LINE#         58
  -------         ENDPROC       _GETNAMEITEMBYROOM
  -------         PROC          _ADDNAMEITEM
  X:10CDH         SYMBOL        pItem
  -------         DO            
  X:10D0H         SYMBOL        idx
  -------         ENDDO         
  C:8028H         LINE#         59
  C:8033H         LINE#         60
  C:8033H         LINE#         61
  C:8039H         LINE#         62
  C:804CH         LINE#         63
  C:8053H         LINE#         64
  C:8053H         LINE#         65
  C:805EH         LINE#         66
  C:8067H         LINE#         67
  C:8067H         LINE#         68
  C:8077H         LINE#         69
  C:8077H         LINE#         70
  C:807AH         LINE#         71
  C:8088H         LINE#         72
  C:808BH         LINE#         73
  C:809AH         LINE#         74
  C:809AH         LINE#         75
  C:809EH         LINE#         76
  -------         ENDPROC       _ADDNAMEITEM
  -------         PROC          _DELNAMEITEMBYIDX
  X:10C8H         SYMBOL        idx
  -------         DO            
  X:10CAH         SYMBOL        tmpItem
  -------         ENDDO         
  C:8186H         LINE#         77
  C:818EH         LINE#         78
  C:818EH         LINE#         80
  C:819CH         LINE#         81
  C:819CH         LINE#         82
  C:81B0H         LINE#         83
  C:81B0H         LINE#         84
  C:81BEH         LINE#         85
  C:81C1H         LINE#         86
BL51 BANKED LINKER/LOCATER V6.22.2.0                                                  08/04/2022  14:17:00  PAGE 56


  C:81C1H         LINE#         88
  C:81C1H         LINE#         89
  C:81CFH         LINE#         90
  C:81D2H         LINE#         91
  C:81E3H         LINE#         92
  C:81F4H         LINE#         93
  C:81F4H         LINE#         94
  C:81F4H         LINE#         95
  -------         ENDPROC       _DELNAMEITEMBYIDX
  -------         PROC          _DELNAMEITEMBYROOM
  D:0006H         SYMBOL        room
  -------         DO            
  D:0006H         SYMBOL        idx
  -------         ENDDO         
  C:9708H         LINE#         96
  C:9708H         LINE#         97
  C:9708H         LINE#         98
  C:970DH         LINE#         99
  C:9715H         LINE#         100
  C:9715H         LINE#         101
  C:9718H         LINE#         102
  C:9718H         LINE#         103
  -------         ENDPROC       _DELNAMEITEMBYROOM
  -------         PROC          _SHOWNAME
  X:10C8H         SYMBOL        pItem
  B:0020H.0       SYMBOL        tel
  -------         DO            
  X:10CBH         SYMBOL        Disbuf
  X:111BH         SYMBOL        i
  -------         ENDDO         
  C:447AH         LINE#         110
  C:4485H         LINE#         111
  C:4485H         LINE#         114
  C:4488H         LINE#         116
  C:448EH         LINE#         117
  C:448EH         LINE#         118
  C:44B6H         LINE#         119
  C:44B6H         LINE#         120
  C:44C5H         LINE#         121
  C:44C5H         LINE#         122
  C:44ECH         LINE#         123
  C:44FDH         LINE#         127
  C:4523H         LINE#         129
  C:4540H         LINE#         130
  C:4540H         LINE#         134
  C:456BH         LINE#         135
  C:4594H         LINE#         136
  C:4594H         LINE#         137
  C:459FH         LINE#         138
  C:459FH         LINE#         140
  C:459FH         LINE#         141
  C:45A8H         LINE#         142
  C:45A8H         LINE#         143
  C:45A8H         LINE#         145
  C:45A8H         LINE#         146
  C:45BFH         LINE#         147
  C:45BFH         LINE#         149
BL51 BANKED LINKER/LOCATER V6.22.2.0                                                  08/04/2022  14:17:00  PAGE 57


  C:45CCH         LINE#         156
  C:4607H         LINE#         157
  C:4614H         LINE#         160
  C:4628H         LINE#         161
  C:4628H         LINE#         165
  C:462EH         LINE#         167
  C:462EH         LINE#         168
  C:4630H         LINE#         170
  C:4630H         LINE#         171
  C:463DH         LINE#         172
  C:4650H         LINE#         173
  C:4650H         LINE#         177
  C:4660H         LINE#         179
  C:4660H         LINE#         180
  C:4660H         LINE#         182
  C:469EH         LINE#         183
  C:46ABH         LINE#         184
  C:46BFH         LINE#         185
  C:46BFH         LINE#         198
  C:46CFH         LINE#         200
  C:46CFH         LINE#         201
  C:46CFH         LINE#         202
  -------         ENDPROC       _SHOWNAME
  -------         PROC          EDITNAMEITEMCON
  C:0026H         LINE#         204
  C:0026H         LINE#         205
  C:0026H         LINE#         206
  C:0033H         LINE#         207
  C:0038H         LINE#         208
  C:003AH         LINE#         209
  C:0040H         LINE#         210
  -------         ENDPROC       EDITNAMEITEMCON
  -------         PROC          NAMEEDITCHAGETYPE
  -------         DO            
  X:1076H         SYMBOL        tmp
  X:1078H         SYMBOL        tmpItem
  -------         ENDDO         
  C:7599H         LINE#         212
  C:7599H         LINE#         213
  C:7599H         LINE#         216
  C:75B3H         LINE#         217
  C:75B3H         LINE#         218
  C:75B3H         LINE#         219
  C:75B8H         LINE#         220
  C:75BAH         LINE#         221
  C:75C7H         LINE#         222
  C:75DAH         LINE#         223
  C:75DAH         LINE#         224
  C:75E0H         LINE#         225
  C:75EFH         LINE#         226
  C:75F1H         LINE#         227
  C:75F1H         LINE#         228
  C:75F1H         LINE#         229
  C:7601H         LINE#         230
  C:7612H         LINE#         231
  C:7612H         LINE#         232
  C:7630H         LINE#         233
BL51 BANKED LINKER/LOCATER V6.22.2.0                                                  08/04/2022  14:17:00  PAGE 58


  C:7630H         LINE#         234
  C:7636H         LINE#         235
  C:7638H         LINE#         236
  C:7638H         LINE#         237
  C:7638H         LINE#         238
  C:7638H         LINE#         239
  C:7652H         LINE#         240
  C:7653H         LINE#         241
  C:7653H         LINE#         242
  C:7656H         LINE#         243
  C:7658H         LINE#         244
  C:7658H         LINE#         245
  C:7658H         LINE#         246
  -------         ENDPROC       NAMEEDITCHAGETYPE
  -------         PROC          _NAMEEDITKEY
  X:1075H         SYMBOL        key
  -------         DO            
  X:12A3H         SYMBOL        OldKey
  D:0005H         SYMBOL        HBtmp
  -------         ENDDO         
  C:253EH         LINE#         248
  C:2543H         LINE#         249
  C:2543H         LINE#         255
  C:254AH         LINE#         256
  C:254AH         LINE#         257
  C:2552H         LINE#         258
  C:2552H         LINE#         259
  C:2555H         LINE#         260
  C:2555H         LINE#         261
  C:2561H         LINE#         262
  C:2566H         LINE#         263
  C:2568H         LINE#         265
  C:2568H         LINE#         266
  C:2586H         LINE#         269
  C:2586H         LINE#         270
  C:2597H         LINE#         271
  C:2597H         LINE#         272
  C:259AH         LINE#         273
  C:259CH         LINE#         275
  C:259CH         LINE#         276
  C:259FH         LINE#         277
  C:259FH         LINE#         278
  C:25ACH         LINE#         279
  C:25AEH         LINE#         281
  C:25AEH         LINE#         282
  C:25B1H         LINE#         283
  C:25B1H         LINE#         284
  C:25B4H         LINE#         286
  C:25B4H         LINE#         287
  C:25B4H         LINE#         288
  C:25BAH         LINE#         289
  C:25C2H         LINE#         290
  C:25C5H         LINE#         291
  C:25CAH         LINE#         292
  C:25CEH         LINE#         293
  C:25D9H         LINE#         294
  C:25DAH         LINE#         296
BL51 BANKED LINKER/LOCATER V6.22.2.0                                                  08/04/2022  14:17:00  PAGE 59


  C:25DAH         LINE#         297
  C:25DAH         LINE#         298
  C:25E1H         LINE#         299
  C:25E1H         LINE#         300
  C:25EAH         LINE#         301
  C:25EAH         LINE#         302
  C:25EDH         LINE#         303
  C:25EFH         LINE#         305
  C:25EFH         LINE#         306
  C:25F4H         LINE#         307
  C:25F4H         LINE#         308
  C:25F4H         LINE#         309
  C:25F4H         LINE#         310
  C:25F4H         LINE#         311
  C:25F6H         LINE#         312
  C:25FDH         LINE#         313
  C:25FDH         LINE#         314
  C:2606H         LINE#         315
  C:2606H         LINE#         316
  C:2609H         LINE#         317
  C:260BH         LINE#         319
  C:260BH         LINE#         320
  C:2611H         LINE#         321
  C:2611H         LINE#         322
  C:2614H         LINE#         323
  C:2614H         LINE#         324
  C:2614H         LINE#         325
  C:2617H         LINE#         326
  C:2622H         LINE#         327
  C:2622H         LINE#         328
  C:263CH         LINE#         329
  C:263CH         LINE#         330
  C:263CH         LINE#         331
  C:2645H         LINE#         332
  C:2645H         LINE#         333
  C:2648H         LINE#         334
  C:265FH         LINE#         335
  C:2662H         LINE#         337
  C:2662H         LINE#         338
  C:2665H         LINE#         340
  C:2665H         LINE#         341
  C:2665H         LINE#         342
  C:2665H         LINE#         343
  C:2680H         LINE#         344
  C:2680H         LINE#         345
  C:2686H         LINE#         346
  C:2686H         LINE#         347
  C:2695H         LINE#         348
  C:269BH         LINE#         349
  C:26ACH         LINE#         350
  C:26ACH         LINE#         351
  C:26B8H         LINE#         352
  C:26BEH         LINE#         353
  C:26BEH         LINE#         354
  C:26C0H         LINE#         356
  C:26C0H         LINE#         357
  C:26C5H         LINE#         358
BL51 BANKED LINKER/LOCATER V6.22.2.0                                                  08/04/2022  14:17:00  PAGE 60


  C:26C8H         LINE#         359
  C:26C8H         LINE#         360
  C:26C8H         LINE#         361
  C:26D8H         LINE#         362
  C:26E0H         LINE#         363
  C:26E2H         LINE#         364
  C:26E2H         LINE#         365
  C:26E2H         LINE#         366
  C:26E2H         LINE#         367
  C:26EBH         LINE#         368
  C:26EBH         LINE#         369
  C:26EEH         LINE#         370
  C:270DH         LINE#         371
  C:270FH         LINE#         373
  C:270FH         LINE#         374
  C:2714H         LINE#         375
  C:2714H         LINE#         376
  C:2714H         LINE#         377
  C:2716H         LINE#         378
  C:2716H         LINE#         379
  C:271BH         LINE#         380
  C:271EH         LINE#         381
  C:271EH         LINE#         382
  C:271EH         LINE#         383
  C:271EH         LINE#         384
  C:271EH         LINE#         385
  C:2720H         LINE#         386
  C:2727H         LINE#         387
  C:2727H         LINE#         388
  C:272AH         LINE#         390
  C:272AH         LINE#         391
  C:2747H         LINE#         392
  C:2747H         LINE#         393
  C:274CH         LINE#         394
  C:274CH         LINE#         395
  C:2752H         LINE#         396
  C:2752H         LINE#         397
  C:2758H         LINE#         398
  C:275DH         LINE#         399
  C:2761H         LINE#         400
  C:2761H         LINE#         401
  C:2777H         LINE#         402
  C:2777H         LINE#         403
  C:278DH         LINE#         404
  C:278DH         LINE#         405
  C:278DH         LINE#         406
  C:2796H         LINE#         407
  C:2796H         LINE#         408
  C:27ADH         LINE#         409
  C:27BFH         LINE#         410
  C:27C5H         LINE#         411
  C:27C5H         LINE#         412
  C:27D2H         LINE#         413
  C:27D2H         LINE#         414
  C:27D6H         LINE#         415
  C:27D6H         LINE#         416
  C:27D9H         LINE#         417
BL51 BANKED LINKER/LOCATER V6.22.2.0                                                  08/04/2022  14:17:00  PAGE 61


  C:27D9H         LINE#         573
  C:27F5H         LINE#         574
  C:27F5H         LINE#         575
  C:27FAH         LINE#         576
  C:27FAH         LINE#         577
  C:2800H         LINE#         578
  C:2800H         LINE#         579
  C:2806H         LINE#         580
  C:280BH         LINE#         581
  C:280BH         LINE#         582
  C:2812H         LINE#         583
  C:2812H         LINE#         584
  C:282AH         LINE#         585
  C:282DH         LINE#         592
  C:282DH         LINE#         593
  C:283DH         LINE#         594
  C:2842H         LINE#         595
  C:2847H         LINE#         596
  C:2847H         LINE#         597
  C:284DH         LINE#         598
  C:2856H         LINE#         599
  C:285FH         LINE#         600
  C:2874H         LINE#         601
  C:2878H         LINE#         602
  C:288AH         LINE#         605
  C:288FH         LINE#         606
  C:289FH         LINE#         607
  C:28A1H         LINE#         609
  C:28A1H         LINE#         610
  C:28CAH         LINE#         611
  C:28CAH         LINE#         612
  C:28CAH         LINE#         613
  C:28D0H         LINE#         614
  C:28D8H         LINE#         615
  C:28E0H         LINE#         617
  C:28E2H         LINE#         618
  C:28E2H         LINE#         619
  C:28E2H         LINE#         620
  C:28E2H         LINE#         621
  C:28EBH         LINE#         622
  C:28EBH         LINE#         623
  C:2913H         LINE#         624
  C:2913H         LINE#         625
  C:2913H         LINE#         626
  C:2913H         LINE#         627
  C:2913H         LINE#         629
  C:291BH         LINE#         630
  C:2933H         LINE#         631
  -------         ENDPROC       _NAMEEDITKEY
  -------         PROC          DELETENAMECON
  C:906FH         LINE#         633
  C:906FH         LINE#         634
  C:906FH         LINE#         635
  C:907CH         LINE#         636
  C:9081H         LINE#         637
  C:9083H         LINE#         638
  C:9089H         LINE#         639
BL51 BANKED LINKER/LOCATER V6.22.2.0                                                  08/04/2022  14:17:00  PAGE 62


  -------         ENDPROC       DELETENAMECON
  -------         PROC          _NAMEDELETEKEY
  X:1075H         SYMBOL        key
  -------         DO            
  X:1076H         SYMBOL        tmp
  X:1078H         SYMBOL        tmpItem
  -------         ENDDO         
  C:4924H         LINE#         642
  C:4929H         LINE#         643
  C:4929H         LINE#         646
  C:4930H         LINE#         647
  C:4930H         LINE#         648
  C:4938H         LINE#         649
  C:4938H         LINE#         650
  C:493BH         LINE#         651
  C:493BH         LINE#         652
  C:4947H         LINE#         653
  C:494CH         LINE#         654
  C:4950H         LINE#         655
  C:4952H         LINE#         657
  C:4952H         LINE#         658
  C:495DH         LINE#         659
  C:495FH         LINE#         660
  C:4962H         LINE#         662
  C:4962H         LINE#         663
  C:4962H         LINE#         664
  C:4968H         LINE#         665
  C:4971H         LINE#         666
  C:4981H         LINE#         667
  C:4981H         LINE#         668
  C:4981H         LINE#         669
  C:4986H         LINE#         670
  C:4993H         LINE#         671
  C:49A3H         LINE#         672
  C:49A3H         LINE#         673
  C:49A9H         LINE#         674
  C:49B8H         LINE#         675
  C:49BAH         LINE#         676
  C:49BAH         LINE#         677
  C:49BAH         LINE#         678
  C:49D3H         LINE#         679
  C:49D3H         LINE#         680
  C:49F1H         LINE#         681
  C:49F1H         LINE#         682
  C:49FFH         LINE#         683
  C:4A02H         LINE#         684
  C:4A02H         LINE#         685
  C:4A05H         LINE#         686
  C:4A08H         LINE#         688
  C:4A08H         LINE#         689
  C:4A08H         LINE#         690
  C:4A08H         LINE#         691
  C:4A0BH         LINE#         692
  C:4A16H         LINE#         693
  C:4A16H         LINE#         694
  C:4A27H         LINE#         695
  C:4A27H         LINE#         696
BL51 BANKED LINKER/LOCATER V6.22.2.0                                                  08/04/2022  14:17:00  PAGE 63


  C:4A27H         LINE#         697
  C:4A30H         LINE#         698
  C:4A30H         LINE#         699
  C:4A33H         LINE#         700
  C:4A4AH         LINE#         701
  C:4A4DH         LINE#         703
  C:4A4DH         LINE#         704
  C:4A50H         LINE#         706
  C:4A50H         LINE#         707
  C:4A50H         LINE#         708
  C:4A50H         LINE#         709
  C:4A55H         LINE#         710
  C:4A59H         LINE#         711
  C:4A68H         LINE#         712
  C:4A6DH         LINE#         713
  C:4A7DH         LINE#         714
  C:4A7DH         LINE#         715
  C:4A83H         LINE#         716
  C:4A92H         LINE#         717
  C:4A94H         LINE#         718
  C:4A94H         LINE#         719
  C:4A94H         LINE#         720
  C:4A99H         LINE#         721
  C:4A9DH         LINE#         722
  C:4AACH         LINE#         723
  C:4AB1H         LINE#         724
  C:4AC1H         LINE#         725
  C:4AC1H         LINE#         726
  C:4AC7H         LINE#         727
  C:4AD6H         LINE#         728
  C:4AD8H         LINE#         729
  C:4AD8H         LINE#         730
  C:4AD8H         LINE#         731
  C:4ADDH         LINE#         732
  C:4AE1H         LINE#         733
  C:4AE3H         LINE#         734
  C:4AEAH         LINE#         735
  C:4AEAH         LINE#         736
  C:4AEDH         LINE#         738
  C:4AEDH         LINE#         739
  C:4B03H         LINE#         740
  C:4B03H         LINE#         741
  C:4B0AH         LINE#         742
  C:4B0AH         LINE#         743
  C:4B21H         LINE#         744
  C:4B33H         LINE#         745
  C:4B39H         LINE#         746
  C:4B39H         LINE#         747
  C:4B43H         LINE#         748
  C:4B43H         LINE#         749
  C:4B47H         LINE#         750
  C:4B47H         LINE#         751
  C:4B47H         LINE#         752
  C:4B52H         LINE#         753
  -------         ENDPROC       _NAMEDELETEKEY
  -------         PROC          DELETEALLNAMECON
  C:9599H         LINE#         755
BL51 BANKED LINKER/LOCATER V6.22.2.0                                                  08/04/2022  14:17:00  PAGE 64


  C:9599H         LINE#         756
  C:9599H         LINE#         757
  C:959FH         LINE#         758
  C:95A2H         LINE#         759
  -------         ENDPROC       DELETEALLNAMECON
  -------         PROC          _NAMEDELALLKEY
  D:0007H         SYMBOL        key
  C:9528H         LINE#         761
  C:9528H         LINE#         762
  C:9528H         LINE#         763
  C:9535H         LINE#         764
  C:9535H         LINE#         765
  C:9535H         LINE#         766
  C:9538H         LINE#         767
  C:953BH         LINE#         768
  C:953BH         LINE#         769
  C:953BH         LINE#         770
  C:953BH         LINE#         771
  C:953EH         LINE#         772
  C:953EH         LINE#         773
  C:953EH         LINE#         774
  -------         ENDPROC       _NAMEDELALLKEY
  -------         PROC          NAMESETCON
  -------         DO            
  X:10C8H         SYMBOL        Disbuf
  -------         ENDDO         
  C:81F5H         LINE#         776
  C:81F5H         LINE#         777
  C:81F5H         LINE#         779
  C:81FBH         LINE#         780
  C:81FEH         LINE#         781
  C:820AH         LINE#         782
  C:8217H         LINE#         783
  C:8224H         LINE#         784
  C:8231H         LINE#         785
  C:8257H         LINE#         789
  -------         ENDPROC       NAMESETCON
  -------         PROC          _NAMESETKEY
  D:0007H         SYMBOL        key
  C:92F6H         LINE#         792
  C:92F6H         LINE#         793
  C:92F6H         LINE#         794
  C:930AH         LINE#         795
  C:930AH         LINE#         796
  C:930AH         LINE#         797
  C:930DH         LINE#         798
  C:930DH         LINE#         799
  C:930DH         LINE#         800
  C:9310H         LINE#         801
  C:9310H         LINE#         802
  C:9310H         LINE#         803
  C:9313H         LINE#         804
  C:9313H         LINE#         805
  C:9313H         LINE#         806
  C:9313H         LINE#         807
  C:9316H         LINE#         808
  C:9316H         LINE#         809
BL51 BANKED LINKER/LOCATER V6.22.2.0                                                  08/04/2022  14:17:00  PAGE 65


  C:9316H         LINE#         810
  -------         ENDPROC       _NAMESETKEY
  -------         PROC          _SHOWNAMEBYIDX
  D:0006H         SYMBOL        idx
  -------         DO            
  X:1076H         SYMBOL        tmpItem
  -------         ENDDO         
  C:92D4H         LINE#         812
  C:92D4H         LINE#         813
  C:92D4H         LINE#         815
  C:92E1H         LINE#         816
  C:92E1H         LINE#         817
  C:92EAH         LINE#         818
  C:92F5H         LINE#         819
  C:92F5H         LINE#         820
  -------         ENDPROC       _SHOWNAMEBYIDX
  -------         PROC          _CALLBYNAMEITEM
  X:1076H         SYMBOL        NameItem
  X:1079H         SYMBOL        telIdx
  -------         DO            
  X:107AH         SYMBOL        Disbuf
  -------         ENDDO         
  C:705BH         LINE#         859
  C:706BH         LINE#         860
  C:706BH         LINE#         863
  C:7089H         LINE#         864
  C:7089H         LINE#         865
  C:70ADH         LINE#         866
  C:70ADH         LINE#         867
  C:70B0H         LINE#         869
  C:70C9H         LINE#         870
  C:70C9H         LINE#         871
  C:70F7H         LINE#         872
  C:70F9H         LINE#         874
  C:70F9H         LINE#         875
  C:7134H         LINE#         877
  C:7134H         LINE#         879
  C:7141H         LINE#         885
  C:7143H         LINE#         886
  C:7143H         LINE#         887
  C:7145H         LINE#         888
  C:7145H         LINE#         889
  C:7146H         LINE#         890
  -------         ENDPROC       _CALLBYNAMEITEM
  -------         PROC          _REVNAMELIST
  D:0001H         SYMBOL        buf
  -------         DO            
  X:1074H         SYMBOL        i
  X:1076H         SYMBOL        cnt
  X:1078H         SYMBOL        j
  X:107AH         SYMBOL        tmpItem
  X:10CAH         SYMBOL        p
  -------         ENDDO         
  C:0E7EH         LINE#         892
  C:0E7EH         LINE#         893
  C:0E7EH         LINE#         897
  C:0E89H         LINE#         899
BL51 BANKED LINKER/LOCATER V6.22.2.0                                                  08/04/2022  14:17:00  PAGE 66


  C:0E91H         LINE#         900
  C:0E91H         LINE#         901
  C:0E9AH         LINE#         902
  C:0EA5H         LINE#         904
  C:0EA5H         LINE#         905
  C:0EAEH         LINE#         906
  C:0ED2H         LINE#         907
  C:0ED9H         LINE#         908
  C:0ED9H         LINE#         909
  C:0EEBH         LINE#         910
  C:0F13H         LINE#         911
  C:0F13H         LINE#         912
  C:0F2BH         LINE#         913
  C:0F50H         LINE#         914
  C:0F50H         LINE#         915
  C:0F74H         LINE#         916
  C:0F7EH         LINE#         917
  C:0F7EH         LINE#         918
  C:0F90H         LINE#         920
  C:0F9DH         LINE#         921
  C:0FC5H         LINE#         923
  C:0FE9H         LINE#         924
  C:0FF3H         LINE#         925
  C:0FF3H         LINE#         926
  C:1005H         LINE#         928
  C:100CH         LINE#         929
  C:1030H         LINE#         930
  C:1030H         LINE#         931
  C:104EH         LINE#         932
  C:105CH         LINE#         933
  C:105EH         LINE#         934
  C:1070H         LINE#         935
  C:1070H         LINE#         937
  C:1094H         LINE#         938
  C:109EH         LINE#         939
  C:109EH         LINE#         940
  C:10B0H         LINE#         942
  C:10B7H         LINE#         943
  C:10DBH         LINE#         944
  C:10DBH         LINE#         945
  C:10F9H         LINE#         946
  C:1107H         LINE#         947
  C:1109H         LINE#         948
  C:111BH         LINE#         949
  C:111BH         LINE#         951
  C:113FH         LINE#         952
  C:1149H         LINE#         953
  C:1149H         LINE#         954
  C:115BH         LINE#         956
  C:1162H         LINE#         957
  C:1186H         LINE#         958
  C:1186H         LINE#         959
  C:11A4H         LINE#         960
  C:11B2H         LINE#         961
  C:11B4H         LINE#         962
  C:11C6H         LINE#         963
  C:11C6H         LINE#         965
BL51 BANKED LINKER/LOCATER V6.22.2.0                                                  08/04/2022  14:17:00  PAGE 67


  C:11EAH         LINE#         966
  C:11F4H         LINE#         967
  C:11F4H         LINE#         968
  C:1206H         LINE#         970
  C:120DH         LINE#         971
  C:1231H         LINE#         972
  C:1231H         LINE#         973
  C:124FH         LINE#         974
  C:125DH         LINE#         975
  C:125FH         LINE#         976
  C:1271H         LINE#         977
  C:1271H         LINE#         978
  C:1284H         LINE#         979
  C:12EBH         LINE#         980
  C:12F1H         LINE#         981
  C:12F1H         LINE#         983
  C:12FDH         LINE#         984
  C:12FDH         LINE#         985
  C:12FDH         LINE#         986
  C:12FDH         LINE#         987
  C:130EH         LINE#         988
  C:1322H         LINE#         989
  C:1322H         LINE#         990
  C:1332H         LINE#         991
  C:1334H         LINE#         993
  C:1334H         LINE#         994
  C:135BH         LINE#         995
  C:135BH         LINE#         996
  C:1361H         LINE#         997
  -------         ENDPROC       _REVNAMELIST
  -------         ENDMOD        NAMELIST

  -------         MODULE        EEPROM
  C:0000H         SYMBOL        _ICE_DUMMY_
  C:95C5H         PUBLIC        IIC_stop
  D:0080H         PUBLIC        P0
  D:0090H         PUBLIC        P1
  D:00A0H         PUBLIC        P2
  D:00B0H         PUBLIC        P3
  D:00C0H         PUBLIC        P4
  D:00C8H         PUBLIC        P5
  D:00E8H         PUBLIC        P6
  D:00F8H         PUBLIC        P7
  D:00A8H         PUBLIC        IE
  D:00B8H         PUBLIC        IP
  C:85C6H         PUBLIC        _readBuf_at24c02
  D:00D8H         PUBLIC        CCON
  C:96ABH         PUBLIC        IIC_Aack
  C:96F6H         PUBLIC        _IIC_delayms
  C:7B9FH         PUBLIC        _writeBuf_at24c02
  D:0098H         PUBLIC        SCON
  D:0088H         PUBLIC        TCON
  B:00F8H.1       PUBLIC        P71
  B:00F8H.2       PUBLIC        P72
  B:00F8H.3       PUBLIC        P73
  D:00F0H         PUBLIC        B
  D:00E0H         PUBLIC        ACC
BL51 BANKED LINKER/LOCATER V6.22.2.0                                                  08/04/2022  14:17:00  PAGE 68


  C:008EH         PUBLIC        IIC_nack
  C:909CH         PUBLIC        IIC_ack
  C:95AFH         PUBLIC        IIC_start
  C:8DDEH         PUBLIC        IIC_read_byte
  C:8ABBH         PUBLIC        _IIC_send_byte
  D:00D0H         PUBLIC        PSW
  -------         PROC          _IIC_DELAYMS
  D:0007H         SYMBOL        t
  -------         DO            
  D:0006H         SYMBOL        j
  -------         ENDDO         
  C:96F6H         LINE#         13
  C:96F6H         LINE#         14
  C:96F6H         LINE#         16
  C:96FCH         LINE#         17
  C:9707H         LINE#         18
  -------         ENDPROC       _IIC_DELAYMS
  -------         PROC          IIC_START
  C:95AFH         LINE#         19
  C:95AFH         LINE#         20
  C:95AFH         LINE#         21
  C:95B1H         LINE#         22
  C:95B6H         LINE#         23
  C:95B8H         LINE#         24
  C:95BDH         LINE#         25
  C:95BFH         LINE#         26
  C:95C4H         LINE#         27
  -------         ENDPROC       IIC_START
  -------         PROC          IIC_STOP
  C:95C5H         LINE#         29
  C:95C5H         LINE#         30
  C:95C5H         LINE#         31
  C:95C7H         LINE#         32
  C:95CCH         LINE#         33
  C:95CEH         LINE#         34
  C:95D3H         LINE#         35
  C:95D5H         LINE#         36
  C:95DAH         LINE#         37
  -------         ENDPROC       IIC_STOP
  -------         PROC          L?0033
  -------         ENDPROC       L?0033
  -------         PROC          IIC_ACK
  -------         DO            
  D:0007H         SYMBOL        i
  -------         ENDDO         
  C:909CH         LINE#         39
  C:909CH         LINE#         40
  C:909CH         LINE#         41
  C:909EH         LINE#         42
  C:90A0H         LINE#         43
  C:90A5H         LINE#         44
  C:90B1H         LINE#         45
  C:90B3H         LINE#         46
  C:90B8H         LINE#         47
  -------         ENDPROC       IIC_ACK
  -------         PROC          IIC_NACK
  C:008EH         LINE#         49
BL51 BANKED LINKER/LOCATER V6.22.2.0                                                  08/04/2022  14:17:00  PAGE 69


  C:008EH         LINE#         50
  C:008EH         LINE#         51
  C:0090H         LINE#         52
  C:0092H         LINE#         53
  C:0097H         LINE#         54
  C:0099H         LINE#         55
  C:009EH         LINE#         56
  C:00A0H         LINE#         57
  C:00A2H         LINE#         58
  -------         ENDPROC       IIC_NACK
  -------         PROC          IIC_AACK
  C:96ABH         LINE#         60
  C:96ABH         LINE#         61
  C:96ABH         LINE#         62
  C:96ADH         LINE#         63
  C:96AFH         LINE#         64
  C:96B4H         LINE#         65
  C:96B6H         LINE#         66
  C:96BBH         LINE#         67
  C:96BDH         LINE#         68
  -------         ENDPROC       IIC_AACK
  -------         PROC          _IIC_SEND_BYTE
  D:0007H         SYMBOL        date
  -------         DO            
  D:0006H         SYMBOL        i
  D:0007H         SYMBOL        temp
  -------         ENDDO         
  C:8ABBH         LINE#         72
  C:8ABBH         LINE#         73
  C:8ABBH         LINE#         75
  C:8ABBH         LINE#         76
  C:8ABDH         LINE#         77
  C:8ABDH         LINE#         78
  C:8ABFH         LINE#         79
  C:8AC4H         LINE#         80
  C:8ACEH         LINE#         81
  C:8AD2H         LINE#         82
  C:8AD7H         LINE#         83
  C:8AD9H         LINE#         84
  C:8ADEH         LINE#         85
  C:8AE0H         LINE#         86
  C:8AE5H         LINE#         87
  C:8AE7H         LINE#         88
  C:8AECH         LINE#         89
  C:8AEEH         LINE#         90
  C:8AF3H         LINE#         93
  -------         ENDPROC       _IIC_SEND_BYTE
  -------         PROC          IIC_READ_BYTE
  -------         DO            
  D:0006H         SYMBOL        i
  D:0007H         SYMBOL        k
  -------         ENDDO         
  C:8DDEH         LINE#         95
  C:8DDEH         LINE#         96
  C:8DDEH         LINE#         97
  C:8DDEH         LINE#         98
  C:8DE0H         LINE#         99
BL51 BANKED LINKER/LOCATER V6.22.2.0                                                  08/04/2022  14:17:00  PAGE 70


  C:8DE5H         LINE#         100
  C:8DE7H         LINE#         101
  C:8DECH         LINE#         102
  C:8DEEH         LINE#         103
  C:8DEEH         LINE#         104
  C:8DF0H         LINE#         105
  C:8DF5H         LINE#         106
  C:8DF9H         LINE#         107
  C:8DFFH         LINE#         108
  C:8E01H         LINE#         109
  C:8E06H         LINE#         110
  C:8E0BH         LINE#         111
  C:8E0BH         LINE#         112
  -------         ENDPROC       IIC_READ_BYTE
  -------         PROC          _WRITEBUF_AT24C02
  X:111DH         SYMBOL        address
  X:111FH         SYMBOL        buf
  X:1122H         SYMBOL        len
  C:7B9FH         LINE#         150
  C:7BB0H         LINE#         151
  C:7BB0H         LINE#         152
  C:7BB2H         LINE#         153
  C:7BB2H         LINE#         154
  C:7BB2H         LINE#         155
  C:7BB2H         LINE#         156
  C:7BB2H         LINE#         157
  C:7BB2H         LINE#         158
  C:7BB2H         LINE#         159
  C:7BB4H         LINE#         160
  C:7BC2H         LINE#         161
  C:7BC2H         LINE#         162
  C:7BD9H         LINE#         163
  C:7BDCH         LINE#         164
  C:7BEAH         LINE#         165
  C:7C01H         LINE#         166
  C:7C01H         LINE#         167
  C:7C04H         LINE#         168
  C:7C09H         LINE#         169
  C:7C09H         LINE#         170
  C:7C09H         LINE#         171
  C:7C0CH         LINE#         172
  C:7C14H         LINE#         173
  C:7C17H         LINE#         174
  C:7C1DH         LINE#         175
  C:7C20H         LINE#         176
  C:7C20H         LINE#         177
  C:7C22H         LINE#         178
  C:7C25H         LINE#         179
  -------         ENDPROC       _WRITEBUF_AT24C02
  -------         PROC          _READBUF_AT24C02
  D:0004H         SYMBOL        address
  D:0001H         SYMBOL        buf
  X:1122H         SYMBOL        len
  -------         DO            
  X:1124H         SYMBOL        dat
  -------         ENDDO         
  C:85C6H         LINE#         182
BL51 BANKED LINKER/LOCATER V6.22.2.0                                                  08/04/2022  14:17:00  PAGE 71


  C:85CAH         LINE#         183
  C:85CAH         LINE#         185
  C:85CAH         LINE#         186
  C:85CAH         LINE#         187
  C:85CDH         LINE#         188
  C:85D2H         LINE#         189
  C:85D5H         LINE#         190
  C:85DAH         LINE#         191
  C:85DDH         LINE#         192
  C:85E0H         LINE#         193
  C:85E5H         LINE#         194
  C:85E8H         LINE#         195
  C:85F7H         LINE#         196
  C:85F7H         LINE#         197
  C:8603H         LINE#         198
  C:860AH         LINE#         199
  C:860DH         LINE#         200
  C:8614H         LINE#         201
  C:8616H         LINE#         202
  C:861DH         LINE#         203
  C:8620H         LINE#         204
  C:8623H         LINE#         205
  C:8628H         LINE#         206
  -------         ENDPROC       _READBUF_AT24C02
  -------         ENDMOD        EEPROM

  -------         MODULE        SYSSTATUS
  C:0000H         SYMBOL        _ICE_DUMMY_
  D:0080H         PUBLIC        P0
  D:0090H         PUBLIC        P1
  C:873CH         PUBLIC        _ReadRoomByIdx
  D:00A0H         PUBLIC        P2
  D:00B0H         PUBLIC        P3
  D:00C0H         PUBLIC        P4
  D:00C8H         PUBLIC        P5
  D:00E8H         PUBLIC        P6
  D:00F8H         PUBLIC        P7
  D:00A8H         PUBLIC        IE
  C:6D66H         PUBLIC        _InputSysPsw
  X:1145H         PUBLIC        IdleTime
  X:1147H         PUBLIC        NameItemCall
  X:1197H         PUBLIC        Volum
  D:00B8H         PUBLIC        IP
  D:00D8H         PUBLIC        CCON
  C:7C2AH         PUBLIC        _GetIdxByRoom
  X:1198H         PUBLIC        MainShow
  C:93D3H         PUBLIC        InputSysPswCon
  X:1199H         PUBLIC        InputRoom
  X:119BH         PUBLIC        InputLen
  D:0098H         PUBLIC        SCON
  D:0088H         PUBLIC        TCON
  B:00E8H.1       PUBLIC        P61
  X:119CH         PUBLIC        InputIdx
  X:119DH         PUBLIC        InputMax
  C:84F7H         PUBLIC        _SysCard
  C:7659H         PUBLIC        InitUserPara
  D:00F0H         PUBLIC        B
BL51 BANKED LINKER/LOCATER V6.22.2.0                                                  08/04/2022  14:17:00  PAGE 72


  X:119FH         PUBLIC        UsrPara
  C:516EH         PUBLIC        _SaveSubPara
  C:5850H         PUBLIC        _SysSubSetKey
  C:8AF4H         PUBLIC        SysSettingCon
  X:11A7H         PUBLIC        SysPara
  D:00E0H         PUBLIC        ACC
  X:11C3H         PUBLIC        NameListIdx
  X:11C5H         PUBLIC        SysStatus
  X:11C6H         PUBLIC        CallTleIdx
  C:74C8H         PUBLIC        _SysSettingKey
  X:11C7H         PUBLIC        InputPsw
  C:8D52H         PUBLIC        _InputRoomCon
  C:4D69H         PUBLIC        ShowSubPara
  C:8420H         PUBLIC        ShowInputRoom
  C:62A0H         PUBLIC        InitSysPara
  C:8EB9H         PUBLIC        SysIdleCon
  C:5B5BH         PUBLIC        _SysKey
  C:6540H         PUBLIC        _SysIdleKey
  C:7D3AH         PUBLIC        ShowInputPsw
  C:6C62H         PUBLIC        _SysInputRoom
  C:87DFH         PUBLIC        _SysTalkKey
  D:00D0H         PUBLIC        PSW
  C:5E55H         PUBLIC        _SubSetCon
  -------         PROC          INITSYSPARA
  B:0020H.0       SYMBOL        rst
  C:62A0H         LINE#         22
  C:62A0H         LINE#         23
  C:62A0H         LINE#         24
  C:62B5H         LINE#         25
  C:62C4H         LINE#         26
  C:62C4H         LINE#         27
  C:62CEH         LINE#         28
  C:62D5H         LINE#         29
  C:62D9H         LINE#         30
  C:62DDH         LINE#         31
  C:62E1H         LINE#         32
  C:62E3H         LINE#         33
  C:62E7H         LINE#         34
  C:62EBH         LINE#         35
  C:62EEH         LINE#         36
  C:62F2H         LINE#         37
  C:62FAH         LINE#         38
  C:6307H         LINE#         39
  C:631CH         LINE#         40
  C:631CH         LINE#         42
  C:6334H         LINE#         43
  C:6345H         LINE#         44
  C:6356H         LINE#         45
  C:6367H         LINE#         46
  C:6378H         LINE#         47
  C:6389H         LINE#         48
  C:639AH         LINE#         49
  C:63ABH         LINE#         50
  C:63BCH         LINE#         51
  C:63D3H         LINE#         53
  C:63DCH         LINE#         54
  C:63DCH         LINE#         55
BL51 BANKED LINKER/LOCATER V6.22.2.0                                                  08/04/2022  14:17:00  PAGE 73


  C:63DFH         LINE#         56
  C:63DFH         LINE#         57
  C:63E7H         LINE#         61
  C:63EDH         LINE#         62
  C:63EDH         LINE#         63
  C:63EFH         LINE#         64
  C:63F0H         LINE#         66
  C:63F0H         LINE#         67
  C:63F2H         LINE#         68
  C:63F2H         LINE#         69
  -------         ENDPROC       INITSYSPARA
  -------         PROC          INITUSERPARA
  C:7659H         LINE#         71
  C:7659H         LINE#         72
  C:7659H         LINE#         73
  C:766FH         LINE#         74
  C:767DH         LINE#         75
  C:767DH         LINE#         76
  C:7687H         LINE#         77
  C:768CH         LINE#         78
  C:7690H         LINE#         79
  C:7694H         LINE#         80
  C:76A9H         LINE#         81
  C:76A9H         LINE#         83
  C:76C1H         LINE#         84
  C:76D9H         LINE#         85
  C:76F1H         LINE#         87
  C:76F4H         LINE#         88
  C:76F7H         LINE#         89
  -------         ENDPROC       INITUSERPARA
  -------         PROC          _READROOMBYIDX
  D:0006H         SYMBOL        idx
  D:0005H         SYMBOL        type
  -------         DO            
  X:10D9H         SYMBOL        room
  D:0006H         SYMBOL        addr
  -------         ENDDO         
  C:873CH         LINE#         92
  C:873CH         LINE#         93
  C:873CH         LINE#         95
  C:873CH         LINE#         96
  C:8748H         LINE#         97
  C:8748H         LINE#         98
  C:8748H         LINE#         99
  C:874FH         LINE#         100
  C:8756H         LINE#         101
  C:8758H         LINE#         102
  C:8758H         LINE#         103
  C:8762H         LINE#         104
  C:8764H         LINE#         105
  C:8766H         LINE#         106
  C:8766H         LINE#         107
  C:876DH         LINE#         108
  C:8775H         LINE#         109
  C:8775H         LINE#         110
  C:8775H         LINE#         113
  C:8787H         LINE#         114
BL51 BANKED LINKER/LOCATER V6.22.2.0                                                  08/04/2022  14:17:00  PAGE 74


  C:878FH         LINE#         115
  -------         ENDPROC       _READROOMBYIDX
  -------         PROC          _GETIDXBYROOM
  X:10D2H         SYMBOL        room
  X:10D4H         SYMBOL        type
  -------         DO            
  X:10D5H         SYMBOL        i
  D:0006H         SYMBOL        DstRoom
  X:10D7H         SYMBOL        iMax
  -------         ENDDO         
  C:7C2AH         LINE#         117
  C:7C35H         LINE#         118
  C:7C35H         LINE#         119
  C:7C3AH         LINE#         122
  C:7C46H         LINE#         123
  C:7C46H         LINE#         124
  C:7C46H         LINE#         125
  C:7C49H         LINE#         126
  C:7C4BH         LINE#         127
  C:7C4BH         LINE#         128
  C:7C4EH         LINE#         129
  C:7C50H         LINE#         130
  C:7C50H         LINE#         131
  C:7C5FH         LINE#         132
  C:7C5FH         LINE#         133
  C:7C5FH         LINE#         134
  C:7C75H         LINE#         135
  C:7C75H         LINE#         136
  C:7C7DH         LINE#         137
  C:7C89H         LINE#         138
  C:7C89H         LINE#         139
  C:7C92H         LINE#         140
  C:7C92H         LINE#         141
  C:7C9AH         LINE#         142
  C:7C9AH         LINE#         143
  C:7C9AH         LINE#         144
  C:7C9AH         LINE#         145
  C:7CA8H         LINE#         146
  C:7CAAH         LINE#         147
  C:7CAEH         LINE#         148
  -------         ENDPROC       _GETIDXBYROOM
  -------         PROC          SYSIDLECON
  C:8EB9H         LINE#         153
  C:8EB9H         LINE#         154
  C:8EB9H         LINE#         155
  C:8EBFH         LINE#         156
  C:8EC7H         LINE#         157
  C:8ECEH         LINE#         158
  C:8ED2H         LINE#         159
  C:8ED8H         LINE#         160
  C:8EDEH         LINE#         161
  -------         ENDPROC       SYSIDLECON
  -------         PROC          SYSSETTINGCON
  C:8AF4H         LINE#         163
  C:8AF4H         LINE#         164
  C:8AF4H         LINE#         165
  C:8AFAH         LINE#         166
BL51 BANKED LINKER/LOCATER V6.22.2.0                                                  08/04/2022  14:17:00  PAGE 75


  C:8AFDH         LINE#         167
  C:8B0AH         LINE#         168
  C:8B17H         LINE#         169
  C:8B20H         LINE#         170
  C:8B27H         LINE#         171
  C:8B2BH         LINE#         172
  -------         ENDPROC       SYSSETTINGCON
  -------         PROC          SHOWINPUTROOM
  -------         DO            
  X:1076H         SYMBOL        Disbuf
  -------         ENDDO         
  C:8420H         LINE#         174
  C:8420H         LINE#         175
  C:8420H         LINE#         177
  C:8423H         LINE#         178
  C:8430H         LINE#         186
  C:8445H         LINE#         187
  C:8445H         LINE#         188
  C:845FH         LINE#         189
  C:8461H         LINE#         191
  C:8461H         LINE#         192
  C:847FH         LINE#         193
  C:847FH         LINE#         194
  -------         ENDPROC       SHOWINPUTROOM
  -------         PROC          _INPUTROOMCON
  D:0007H         SYMBOL        key
  C:8D52H         LINE#         202
  C:8D52H         LINE#         203
  C:8D52H         LINE#         204
  C:8D58H         LINE#         205
  C:8D62H         LINE#         206
  C:8D68H         LINE#         207
  C:8D6BH         LINE#         208
  C:8D6BH         LINE#         209
  C:8D6CH         LINE#         210
  C:8D6CH         LINE#         211
  C:8D6FH         LINE#         212
  C:8D7CH         LINE#         213
  -------         ENDPROC       _INPUTROOMCON
  -------         PROC          _SYSINPUTROOM
  X:1075H         SYMBOL        key
  C:6C62H         LINE#         216
  C:6C67H         LINE#         217
  C:6C67H         LINE#         218
  C:6C75H         LINE#         219
  C:6C75H         LINE#         220
  C:6C75H         LINE#         221
  C:6C85H         LINE#         222
  C:6C85H         LINE#         223
  C:6C96H         LINE#         224
  C:6C96H         LINE#         225
  C:6C9BH         LINE#         226
  C:6CA7H         LINE#         227
  C:6CA7H         LINE#         228
  C:6CACH         LINE#         229
  C:6CB2H         LINE#         230
  C:6CB3H         LINE#         231
BL51 BANKED LINKER/LOCATER V6.22.2.0                                                  08/04/2022  14:17:00  PAGE 76


  C:6CBFH         LINE#         232
  C:6CBFH         LINE#         233
  C:6CC2H         LINE#         234
  C:6CC2H         LINE#         235
  C:6CC4H         LINE#         237
  C:6CC4H         LINE#         238
  C:6CC7H         LINE#         239
  C:6CD0H         LINE#         240
  C:6CD1H         LINE#         242
  C:6CD1H         LINE#         243
  C:6CD1H         LINE#         244
  C:6CD4H         LINE#         245
  C:6CD9H         LINE#         246
  C:6CE2H         LINE#         247
  C:6CE9H         LINE#         248
  C:6CEDH         LINE#         249
  C:6CEFH         LINE#         250
  C:6CEFH         LINE#         251
  C:6CF8H         LINE#         252
  C:6CF8H         LINE#         253
  C:6CFBH         LINE#         254
  C:6D12H         LINE#         255
  C:6D15H         LINE#         256
  C:6D17H         LINE#         258
  C:6D17H         LINE#         260
  C:6D1AH         LINE#         262
  C:6D1DH         LINE#         263
  C:6D1DH         LINE#         264
  C:6D1DH         LINE#         265
  C:6D1DH         LINE#         266
  C:6D2DH         LINE#         267
  C:6D2DH         LINE#         268
  C:6D36H         LINE#         269
  C:6D36H         LINE#         270
  C:6D39H         LINE#         271
  C:6D50H         LINE#         272
  C:6D62H         LINE#         273
  C:6D65H         LINE#         274
  C:6D65H         LINE#         275
  C:6D65H         LINE#         276
  -------         ENDPROC       _SYSINPUTROOM
  -------         PROC          L?0301
  -------         ENDPROC       L?0301
  -------         PROC          SHOWINPUTPSW
  -------         DO            
  X:1076H         SYMBOL        Disbuf
  D:0005H         SYMBOL        i
  D:0006H         SYMBOL        l
  -------         ENDDO         
  C:7D3AH         LINE#         279
  C:7D3AH         LINE#         280
  C:7D3AH         LINE#         283
  C:7D3DH         LINE#         285
  C:7D44H         LINE#         286
  C:7D44H         LINE#         287
  C:7D51H         LINE#         288
  C:7D51H         LINE#         301
BL51 BANKED LINKER/LOCATER V6.22.2.0                                                  08/04/2022  14:17:00  PAGE 77


  C:7D68H         LINE#         303
  C:7D74H         LINE#         304
  C:7D74H         LINE#         305
  C:7D87H         LINE#         306
  C:7D8AH         LINE#         307
  C:7D9CH         LINE#         312
  C:7DA8H         LINE#         316
  -------         ENDPROC       SHOWINPUTPSW
  -------         PROC          INPUTSYSPSWCON
  C:93D3H         LINE#         319
  C:93D3H         LINE#         320
  C:93D3H         LINE#         321
  C:93D9H         LINE#         322
  C:93E3H         LINE#         323
  C:93E8H         LINE#         324
  C:93EBH         LINE#         325
  -------         ENDPROC       INPUTSYSPSWCON
  -------         PROC          _INPUTSYSPSW
  X:1075H         SYMBOL        key
  C:6D66H         LINE#         328
  C:6D6BH         LINE#         329
  C:6D6BH         LINE#         330
  C:6D7DH         LINE#         331
  C:6D7DH         LINE#         332
  C:6D7DH         LINE#         333
  C:6D9DH         LINE#         334
  C:6D9DH         LINE#         335
  C:6DBAH         LINE#         336
  C:6DBAH         LINE#         337
  C:6DBDH         LINE#         339
  C:6DBDH         LINE#         347
  C:6DBDH         LINE#         348
  C:6DC0H         LINE#         349
  C:6DC5H         LINE#         350
  C:6DCFH         LINE#         351
  C:6DD4H         LINE#         352
  C:6DD6H         LINE#         353
  C:6DD6H         LINE#         354
  C:6DDFH         LINE#         355
  C:6DDFH         LINE#         356
  C:6DE2H         LINE#         357
  C:6DF9H         LINE#         358
  C:6DFCH         LINE#         359
  C:6DFEH         LINE#         361
  C:6DFEH         LINE#         364
  C:6E01H         LINE#         366
  C:6E01H         LINE#         367
  C:6E01H         LINE#         368
  C:6E03H         LINE#         369
  C:6E03H         LINE#         370
  C:6E06H         LINE#         371
  C:6E06H         LINE#         372
  C:6E06H         LINE#         373
  C:6E16H         LINE#         374
  C:6E16H         LINE#         375
  C:6E1FH         LINE#         376
  C:6E1FH         LINE#         377
BL51 BANKED LINKER/LOCATER V6.22.2.0                                                  08/04/2022  14:17:00  PAGE 78


  C:6E22H         LINE#         378
  C:6E3FH         LINE#         379
  C:6E62H         LINE#         380
  C:6E65H         LINE#         381
  C:6E65H         LINE#         382
  C:6E65H         LINE#         383
  -------         ENDPROC       _INPUTSYSPSW
  -------         PROC          _SYSIDLEKEY
  X:1075H         SYMBOL        key
  C:6540H         LINE#         385
  C:6545H         LINE#         386
  C:6545H         LINE#         387
  C:655FH         LINE#         388
  C:655FH         LINE#         389
  C:655FH         LINE#         395
  C:655FH         LINE#         396
  C:6562H         LINE#         397
  C:6562H         LINE#         398
  C:6565H         LINE#         399
  C:6565H         LINE#         400
  C:6568H         LINE#         401
  C:656BH         LINE#         402
  C:656BH         LINE#         403
  C:656EH         LINE#         404
  C:6571H         LINE#         405
  C:6571H         LINE#         406
  C:6584H         LINE#         407
  C:6584H         LINE#         408
  C:6599H         LINE#         409
  C:6599H         LINE#         410
  C:65A5H         LINE#         411
  C:65A7H         LINE#         413
  C:65A7H         LINE#         414
  C:65AEH         LINE#         415
  C:65AEH         LINE#         416
  C:65AEH         LINE#         417
  C:65AEH         LINE#         418
  C:65B0H         LINE#         419
  C:65B0H         LINE#         420
  C:65C3H         LINE#         421
  C:65C3H         LINE#         422
  C:65D0H         LINE#         423
  C:65D0H         LINE#         424
  C:65D8H         LINE#         425
  C:65D8H         LINE#         426
  C:65E3H         LINE#         427
  C:65E5H         LINE#         429
  C:65E5H         LINE#         430
  C:65F3H         LINE#         431
  C:65F3H         LINE#         432
  C:65F5H         LINE#         434
  C:65F5H         LINE#         435
  C:6609H         LINE#         436
  C:6609H         LINE#         437
  C:6614H         LINE#         438
  C:6614H         LINE#         439
  C:6616H         LINE#         440
BL51 BANKED LINKER/LOCATER V6.22.2.0                                                  08/04/2022  14:17:00  PAGE 79


  C:6616H         LINE#         441
  C:662CH         LINE#         442
  C:662CH         LINE#         443
  C:6631H         LINE#         444
  C:663AH         LINE#         445
  C:6647H         LINE#         446
  C:6647H         LINE#         447
  C:664DH         LINE#         448
  C:6652H         LINE#         449
  C:6654H         LINE#         450
  C:6660H         LINE#         451
  C:6660H         LINE#         452
  C:6663H         LINE#         453
  C:6663H         LINE#         454
  C:6665H         LINE#         456
  C:6665H         LINE#         457
  C:6668H         LINE#         458
  C:6671H         LINE#         459
  C:6671H         LINE#         460
  C:6673H         LINE#         462
  C:6673H         LINE#         463
  C:6678H         LINE#         464
  C:6678H         LINE#         465
  C:6678H         LINE#         466
  C:6678H         LINE#         467
  C:6688H         LINE#         468
  C:6688H         LINE#         469
  C:668BH         LINE#         470
  C:668BH         LINE#         471
  -------         ENDPROC       _SYSIDLEKEY
  -------         PROC          _SYSSETTINGKEY
  X:1075H         SYMBOL        key
  C:74C8H         LINE#         473
  C:74CDH         LINE#         474
  C:74CDH         LINE#         475
  C:74D9H         LINE#         476
  C:74D9H         LINE#         477
  C:74E2H         LINE#         478
  C:74E2H         LINE#         479
  C:74E5H         LINE#         480
  C:74FCH         LINE#         481
  C:7509H         LINE#         482
  C:7519H         LINE#         483
  C:7519H         LINE#         484
  C:751AH         LINE#         485
  C:751AH         LINE#         486
  C:751AH         LINE#         487
  C:751CH         LINE#         489
  C:751CH         LINE#         490
  C:7529H         LINE#         491
  C:752FH         LINE#         492
  C:752FH         LINE#         493
  C:7530H         LINE#         494
  C:7537H         LINE#         495
  C:7537H         LINE#         496
  C:7537H         LINE#         497
  C:7539H         LINE#         498
BL51 BANKED LINKER/LOCATER V6.22.2.0                                                  08/04/2022  14:17:00  PAGE 80


  C:7540H         LINE#         499
  C:7540H         LINE#         500
  C:7543H         LINE#         501
  C:7543H         LINE#         502
  C:754BH         LINE#         503
  C:754BH         LINE#         504
  C:7563H         LINE#         505
  C:7563H         LINE#         506
  C:7569H         LINE#         508
  C:7569H         LINE#         509
  C:7587H         LINE#         510
  C:7587H         LINE#         511
  C:7587H         LINE#         512
  C:758AH         LINE#         513
  C:758AH         LINE#         514
  C:758AH         LINE#         515
  C:758DH         LINE#         516
  C:758DH         LINE#         517
  C:758DH         LINE#         518
  C:7590H         LINE#         519
  C:7590H         LINE#         520
  C:7590H         LINE#         521
  C:7593H         LINE#         522
  C:7593H         LINE#         523
  C:7593H         LINE#         524
  C:7598H         LINE#         525
  C:7598H         LINE#         541
  C:7598H         LINE#         542
  C:7598H         LINE#         570
  -------         ENDPROC       _SYSSETTINGKEY
  -------         PROC          _SYSTALKKEY
  X:1075H         SYMBOL        key
  C:87DFH         LINE#         572
  C:87E4H         LINE#         573
  C:87E4H         LINE#         575
  C:87F0H         LINE#         576
  C:87F0H         LINE#         577
  C:87F3H         LINE#         579
  C:87F3H         LINE#         580
  C:8805H         LINE#         581
  C:8805H         LINE#         582
  C:8805H         LINE#         583
  C:8805H         LINE#         584
  C:8808H         LINE#         585
  C:880BH         LINE#         586
  C:880BH         LINE#         587
  C:880BH         LINE#         588
  C:8814H         LINE#         589
  C:8814H         LINE#         590
  C:8816H         LINE#         591
  C:8816H         LINE#         592
  C:8816H         LINE#         593
  C:8818H         LINE#         594
  C:8818H         LINE#         595
  C:8821H         LINE#         596
  C:8821H         LINE#         597
  C:8824H         LINE#         598
BL51 BANKED LINKER/LOCATER V6.22.2.0                                                  08/04/2022  14:17:00  PAGE 81


  C:8829H         LINE#         599
  C:8829H         LINE#         600
  C:8829H         LINE#         601
  C:8829H         LINE#         602
  -------         ENDPROC       _SYSTALKKEY
  -------         PROC          SHOWSUBPARA
  -------         DO            
  X:1076H         SYMBOL        Disbuf
  -------         ENDDO         
  C:4D69H         LINE#         606
  C:4D69H         LINE#         607
  C:4D69H         LINE#         609
  C:4D6CH         LINE#         610
  C:4DA3H         LINE#         611
  C:4DA3H         LINE#         612
  C:4DA3H         LINE#         613
  C:4DBCH         LINE#         614
  C:4DBFH         LINE#         615
  C:4DBFH         LINE#         616
  C:4DD8H         LINE#         617
  C:4DDBH         LINE#         618
  C:4DDBH         LINE#         619
  C:4DF4H         LINE#         620
  C:4DF7H         LINE#         621
  C:4DF7H         LINE#         622
  C:4E10H         LINE#         623
  C:4E13H         LINE#         624
  C:4E13H         LINE#         625
  C:4E36H         LINE#         626
  C:4E40H         LINE#         627
  C:4E40H         LINE#         628
  C:4E42H         LINE#         629
  C:4E44H         LINE#         631
  C:4E44H         LINE#         632
  C:4E46H         LINE#         633
  C:4E46H         LINE#         634
  C:4E48H         LINE#         635
  C:4E48H         LINE#         636
  C:4E61H         LINE#         637
  C:4E63H         LINE#         638
  C:4E63H         LINE#         639
  C:4E7CH         LINE#         640
  C:4E7EH         LINE#         641
  C:4E7EH         LINE#         642
  C:4E97H         LINE#         643
  C:4E99H         LINE#         644
  C:4E99H         LINE#         645
  C:4EBCH         LINE#         646
  C:4EBCH         LINE#         647
  C:4EBCH         LINE#         648
  C:4EC4H         LINE#         649
  C:4EC4H         LINE#         651
  C:4ED0H         LINE#         652
  C:4EEFH         LINE#         654
  C:4EEFH         LINE#         655
  C:4EFDH         LINE#         656
  C:4EFDH         LINE#         657
BL51 BANKED LINKER/LOCATER V6.22.2.0                                                  08/04/2022  14:17:00  PAGE 82


  C:4F0AH         LINE#         658
  C:4F28H         LINE#         660
  C:4F28H         LINE#         665
  C:4F35H         LINE#         666
  C:4F45H         LINE#         667
  C:4F45H         LINE#         668
  C:4F62H         LINE#         669
  C:4F7DH         LINE#         670
  C:4F7DH         LINE#         672
  -------         ENDPROC       SHOWSUBPARA
  -------         PROC          _SUBSETCON
  D:0007H         SYMBOL        type
  -------         DO            
  D:0006H         SYMBOL        tmp
  -------         ENDDO         
  C:5E55H         LINE#         674
  C:5E55H         LINE#         675
  C:5E55H         LINE#         677
  C:5E5AH         LINE#         678
  C:5E8DH         LINE#         679
  C:5E8DH         LINE#         680
  C:5E8DH         LINE#         681
  C:5E93H         LINE#         682
  C:5E9DH         LINE#         683
  C:5EA8H         LINE#         684
  C:5EABH         LINE#         685
  C:5EABH         LINE#         686
  C:5EB1H         LINE#         687
  C:5EB9H         LINE#         688
  C:5EC2H         LINE#         689
  C:5EC5H         LINE#         690
  C:5EC5H         LINE#         691
  C:5ECBH         LINE#         692
  C:5ED4H         LINE#         693
  C:5EDDH         LINE#         694
  C:5EE0H         LINE#         695
  C:5EE0H         LINE#         696
  C:5EE6H         LINE#         697
  C:5EEEH         LINE#         698
  C:5EF7H         LINE#         699
  C:5EFAH         LINE#         700
  C:5EFAH         LINE#         701
  C:5F00H         LINE#         702
  C:5F08H         LINE#         703
  C:5F11H         LINE#         704
  C:5F13H         LINE#         705
  C:5F13H         LINE#         706
  C:5F19H         LINE#         707
  C:5F22H         LINE#         708
  C:5F2BH         LINE#         709
  C:5F2DH         LINE#         710
  C:5F2DH         LINE#         711
  C:5F33H         LINE#         712
  C:5F3CH         LINE#         713
  C:5F45H         LINE#         714
  C:5F47H         LINE#         715
  C:5F47H         LINE#         716
BL51 BANKED LINKER/LOCATER V6.22.2.0                                                  08/04/2022  14:17:00  PAGE 83


  C:5F4DH         LINE#         717
  C:5F56H         LINE#         718
  C:5F5FH         LINE#         719
  C:5F61H         LINE#         720
  C:5F61H         LINE#         721
  C:5F67H         LINE#         722
  C:5F70H         LINE#         723
  C:5F7DH         LINE#         724
  C:5F7DH         LINE#         725
  C:5F7DH         LINE#         726
  C:5F82H         LINE#         727
  C:5F8AH         LINE#         728
  C:5F93H         LINE#         729
  C:5F93H         LINE#         730
  C:5F99H         LINE#         731
  C:5FA0H         LINE#         732
  C:5FA2H         LINE#         733
  C:5FBEH         LINE#         734
  C:5FBEH         LINE#         735
  C:5FC4H         LINE#         736
  C:5FC4H         LINE#         737
  -------         ENDPROC       _SUBSETCON
  -------         PROC          _SAVESUBPARA
  D:0007H         SYMBOL        type
  X:1076H         SYMBOL        dat
  C:516EH         LINE#         740
  C:5176H         LINE#         741
  C:5176H         LINE#         742
  C:51AAH         LINE#         743
  C:51AAH         LINE#         744
  C:51AAH         LINE#         745
  C:51B9H         LINE#         746
  C:51D2H         LINE#         747
  C:51D5H         LINE#         748
  C:51D5H         LINE#         749
  C:51DEH         LINE#         750
  C:51F6H         LINE#         751
  C:51F9H         LINE#         752
  C:51F9H         LINE#         753
  C:5202H         LINE#         754
  C:521AH         LINE#         755
  C:521DH         LINE#         756
  C:521DH         LINE#         757
  C:5231H         LINE#         758
  C:5249H         LINE#         759
  C:524CH         LINE#         760
  C:524CH         LINE#         761
  C:5260H         LINE#         762
  C:5278H         LINE#         763
  C:527BH         LINE#         764
  C:527BH         LINE#         765
  C:5284H         LINE#         766
  C:529CH         LINE#         767
  C:529EH         LINE#         768
  C:529EH         LINE#         769
  C:52B1H         LINE#         770
  C:52B1H         LINE#         771
BL51 BANKED LINKER/LOCATER V6.22.2.0                                                  08/04/2022  14:17:00  PAGE 84


  C:52B6H         LINE#         772
  C:52CDH         LINE#         773
  C:52CDH         LINE#         774
  C:52CFH         LINE#         775
  C:52CFH         LINE#         776
  C:52DFH         LINE#         777
  C:52DFH         LINE#         778
  C:52E4H         LINE#         779
  C:52FFH         LINE#         780
  C:52FFH         LINE#         781
  C:5301H         LINE#         782
  C:5301H         LINE#         783
  C:5311H         LINE#         784
  C:5311H         LINE#         785
  C:5316H         LINE#         786
  C:5331H         LINE#         787
  C:5339H         LINE#         788
  C:5339H         LINE#         789
  C:5339H         LINE#         790
  C:5339H         LINE#         791
  -------         ENDPROC       _SAVESUBPARA
  -------         PROC          _SYSSUBSETKEY
  X:1075H         SYMBOL        key
  C:5850H         LINE#         794
  C:5855H         LINE#         795
  C:5855H         LINE#         796
  C:585CH         LINE#         797
  C:585CH         LINE#         798
  C:585EH         LINE#         800
  C:585EH         LINE#         801
  C:586EH         LINE#         802
  C:586EH         LINE#         803
  C:586EH         LINE#         804
  C:5887H         LINE#         805
  C:5887H         LINE#         806
  C:588DH         LINE#         807
  C:588DH         LINE#         808
  C:588FH         LINE#         809
  C:5891H         LINE#         811
  C:5891H         LINE#         812
  C:5893H         LINE#         813
  C:5893H         LINE#         814
  C:5895H         LINE#         816
  C:5895H         LINE#         818
  C:589BH         LINE#         819
  C:58B2H         LINE#         820
  C:58B5H         LINE#         821
  C:58B7H         LINE#         822
  C:58B7H         LINE#         823
  C:58B9H         LINE#         825
  C:58B9H         LINE#         826
  C:58C2H         LINE#         827
  C:58C2H         LINE#         828
  C:58D2H         LINE#         829
  C:58D8H         LINE#         830
  C:58D9H         LINE#         832
  C:58D9H         LINE#         833
BL51 BANKED LINKER/LOCATER V6.22.2.0                                                  08/04/2022  14:17:00  PAGE 85


  C:58DCH         LINE#         834
  C:58DCH         LINE#         836
  C:58DCH         LINE#         837
  C:58F2H         LINE#         838
  C:58F2H         LINE#         839
  C:5904H         LINE#         840
  C:5904H         LINE#         841
  C:590AH         LINE#         842
  C:5913H         LINE#         843
  C:5916H         LINE#         844
  C:5923H         LINE#         845
  C:5923H         LINE#         846
  C:5930H         LINE#         847
  C:5930H         LINE#         848
  C:5936H         LINE#         849
  C:593CH         LINE#         850
  C:593CH         LINE#         851
  C:593FH         LINE#         852
  C:5946H         LINE#         853
  C:5946H         LINE#         854
  C:5961H         LINE#         855
  C:5961H         LINE#         856
  C:5967H         LINE#         857
  C:596BH         LINE#         858
  C:596BH         LINE#         859
  C:596DH         LINE#         860
  C:5995H         LINE#         861
  C:5995H         LINE#         862
  C:599BH         LINE#         863
  C:59A3H         LINE#         864
  C:59B4H         LINE#         865
  C:59B4H         LINE#         866
  C:59C3H         LINE#         867
  C:59C5H         LINE#         869
  C:59C5H         LINE#         870
  C:59D4H         LINE#         871
  C:59D4H         LINE#         872
  C:59D4H         LINE#         873
  C:59D4H         LINE#         874
  C:59D7H         LINE#         875
  -------         ENDPROC       _SYSSUBSETKEY
  -------         PROC          _SYSKEY
  X:1074H         SYMBOL        Key
  C:5B5BH         LINE#         877
  C:5B60H         LINE#         878
  C:5B60H         LINE#         879
  C:5B69H         LINE#         880
  C:5BDEH         LINE#         881
  C:5BDEH         LINE#         882
  C:5BDEH         LINE#         883
  C:5BE6H         LINE#         884
  C:5BE9H         LINE#         885
  C:5BE9H         LINE#         886
  C:5BF1H         LINE#         887
  C:5BF4H         LINE#         888
  C:5BF4H         LINE#         889
  C:5BFCH         LINE#         890
BL51 BANKED LINKER/LOCATER V6.22.2.0                                                  08/04/2022  14:17:00  PAGE 86


  C:5BFFH         LINE#         891
  C:5BFFH         LINE#         892
  C:5C07H         LINE#         893
  C:5C0AH         LINE#         894
  C:5C0AH         LINE#         895
  C:5C12H         LINE#         896
  C:5C15H         LINE#         897
  C:5C15H         LINE#         898
  C:5C1DH         LINE#         899
  C:5C20H         LINE#         900
  C:5C20H         LINE#         901
  C:5C28H         LINE#         902
  C:5C2BH         LINE#         903
  C:5C2BH         LINE#         904
  C:5C33H         LINE#         905
  C:5C35H         LINE#         906
  C:5C35H         LINE#         907
  C:5C3DH         LINE#         908
  C:5C3FH         LINE#         909
  C:5C3FH         LINE#         910
  C:5C47H         LINE#         911
  C:5C49H         LINE#         912
  C:5C49H         LINE#         913
  C:5C51H         LINE#         914
  C:5C53H         LINE#         915
  C:5C53H         LINE#         916
  C:5C5BH         LINE#         917
  C:5C5DH         LINE#         918
  C:5C5DH         LINE#         919
  C:5C65H         LINE#         920
  C:5C67H         LINE#         921
  C:5C67H         LINE#         922
  C:5C6FH         LINE#         923
  C:5C71H         LINE#         924
  C:5C71H         LINE#         925
  C:5C79H         LINE#         926
  C:5C7BH         LINE#         927
  C:5C7BH         LINE#         928
  C:5C83H         LINE#         929
  C:5C85H         LINE#         930
  C:5C85H         LINE#         931
  C:5C8DH         LINE#         932
  C:5C8FH         LINE#         933
  C:5C8FH         LINE#         934
  C:5C97H         LINE#         935
  C:5C99H         LINE#         936
  C:5C99H         LINE#         937
  C:5C99H         LINE#         938
  C:5CA1H         LINE#         939
  C:5CA3H         LINE#         940
  C:5CA3H         LINE#         941
  C:5CA3H         LINE#         942
  C:5CA3H         LINE#         943
  C:5CA3H         LINE#         944
  C:5CA3H         LINE#         945
  C:5CA3H         LINE#         946
  C:5CA3H         LINE#         947
BL51 BANKED LINKER/LOCATER V6.22.2.0                                                  08/04/2022  14:17:00  PAGE 87


  C:5CA3H         LINE#         948
  C:5CA3H         LINE#         949
  C:5CABH         LINE#         950
  C:5CABH         LINE#         956
  C:5CABH         LINE#         957
  C:5CD1H         LINE#         958
  C:5CD1H         LINE#         959
  C:5CDAH         LINE#         960
  C:5CDAH         LINE#         961
  -------         ENDPROC       _SYSKEY
  -------         PROC          _SYSCARD
  X:1074H         SYMBOL        card
  C:84F7H         LINE#         963
  C:8502H         LINE#         964
  C:8502H         LINE#         965
  C:8515H         LINE#         966
  C:8515H         LINE#         967
  C:8515H         LINE#         968
  C:8515H         LINE#         969
  C:8523H         LINE#         970
  C:8523H         LINE#         971
  C:8523H         LINE#         972
  C:8523H         LINE#         973
  C:8523H         LINE#         974
  C:8523H         LINE#         975
  C:8523H         LINE#         976
  C:8539H         LINE#         977
  C:8539H         LINE#         978
  C:8545H         LINE#         979
  C:8547H         LINE#         981
  C:8547H         LINE#         982
  C:854AH         LINE#         983
  C:854AH         LINE#         984
  C:8558H         LINE#         985
  C:8558H         LINE#         986
  C:8561H         LINE#         987
  C:8561H         LINE#         988
  C:8561H         LINE#         990
  C:8561H         LINE#         991
  -------         ENDPROC       _SYSCARD
  -------         ENDMOD        SYSSTATUS

  -------         MODULE        UNLOCKPASSWORD
  C:0000H         SYMBOL        _ICE_DUMMY_
  D:0080H         PUBLIC        P0
  D:0090H         PUBLIC        P1
  D:00A0H         PUBLIC        P2
  D:00B0H         PUBLIC        P3
  D:00C0H         PUBLIC        P4
  D:00C8H         PUBLIC        P5
  D:00E8H         PUBLIC        P6
  D:00F8H         PUBLIC        P7
  C:82D3H         PUBLIC        PswSetCon
  D:00A8H         PUBLIC        IE
  C:940DH         PUBLIC        SaveSysPsw
  C:9317H         PUBLIC        _PswSetKey
  C:953FH         PUBLIC        _PswDelAllKey
BL51 BANKED LINKER/LOCATER V6.22.2.0                                                  08/04/2022  14:17:00  PAGE 88


  D:00B8H         PUBLIC        IP
  C:7FB0H         PUBLIC        _CheckPsw
  C:93F0H         PUBLIC        _ReadPswByIdx
  D:00D8H         PUBLIC        CCON
  C:9777H         PUBLIC        ClearPsw
  C:9128H         PUBLIC        EditSysPswCon
  C:8F68H         PUBLIC        _WritePswByIdx
  C:90B9H         PUBLIC        _DelPswByRoom
  C:3CCCH         PUBLIC        _SysPswEditKey
  D:0098H         PUBLIC        SCON
  C:9103H         PUBLIC        DeletePswCon
  D:0088H         PUBLIC        TCON
  C:8264H         PUBLIC        _DelPswByIdx
  C:56A6H         PUBLIC        _PswDeleteKey
  D:00F0H         PUBLIC        B
  D:00E0H         PUBLIC        ACC
  C:95DBH         PUBLIC        DeleteAllPswCon
  C:96BEH         PUBLIC        InitPsw
  X:135FH         PUBLIC        PswEditItem
  C:7E3BH         PUBLIC        _AddPswItem
  X:1369H         SYMBOL        PswEditMidx
  C:924AH         PUBLIC        SavePswCount
  C:3356H         PUBLIC        _ShowPsw
  C:90DEH         PUBLIC        EditPswCon
  X:136AH         SYMBOL        PswEditIdx
  C:2119H         PUBLIC        _PswEditKey
  C:9203H         PUBLIC        InputPswCon
  C:668CH         PUBLIC        _PswInputKey
  D:00D0H         PUBLIC        PSW
  -------         PROC          SAVEPSWCOUNT
  C:924AH         LINE#         11
  C:924AH         LINE#         12
  C:924AH         LINE#         13
  -------         ENDPROC       SAVEPSWCOUNT
  -------         PROC          CLEARPSW
  C:9777H         LINE#         16
  C:9777H         LINE#         17
  C:9777H         LINE#         18
  C:977EH         LINE#         19
  -------         ENDPROC       CLEARPSW
  -------         PROC          INITPSW
  C:96BEH         LINE#         22
  C:96BEH         LINE#         23
  C:96BEH         LINE#         24
  C:96CDH         LINE#         25
  C:96CDH         LINE#         26
  C:96D0H         LINE#         27
  C:96D0H         LINE#         28
  -------         ENDPROC       INITPSW
  -------         PROC          L?0236
  -------         ENDPROC       L?0236
  -------         PROC          _WRITEPSWBYIDX
  D:0006H         SYMBOL        idx
  D:0001H         SYMBOL        pItem
  -------         DO            
  D:0006H         SYMBOL        addr
  -------         ENDDO         
BL51 BANKED LINKER/LOCATER V6.22.2.0                                                  08/04/2022  14:17:00  PAGE 89


  C:8F68H         LINE#         30
  C:8F68H         LINE#         31
  C:8F68H         LINE#         32
  C:8F68H         LINE#         33
  C:8F72H         LINE#         34
  -------         ENDPROC       _WRITEPSWBYIDX
  -------         PROC          _READPSWBYIDX
  D:0006H         SYMBOL        idx
  D:0001H         SYMBOL        pItem
  -------         DO            
  D:0006H         SYMBOL        addr
  -------         ENDDO         
  C:93F0H         LINE#         37
  C:93F0H         LINE#         38
  C:93F0H         LINE#         39
  C:93F0H         LINE#         40
  C:93FAH         LINE#         41
  -------         ENDPROC       _READPSWBYIDX
  -------         PROC          _CHECKPSW
  X:1076H         SYMBOL        psw
  -------         DO            
  X:1078H         SYMBOL        i
  X:107AH         SYMBOL        pItem
  -------         ENDDO         
  C:7FB0H         LINE#         56
  C:7FB8H         LINE#         57
  C:7FB8H         LINE#         58
  C:7FBDH         LINE#         60
  C:7FCEH         LINE#         61
  C:7FD8H         LINE#         62
  C:7FD8H         LINE#         63
  C:7FDAH         LINE#         64
  C:7FDAH         LINE#         65
  C:7FF7H         LINE#         66
  C:7FF7H         LINE#         67
  C:8000H         LINE#         68
  C:8014H         LINE#         69
  C:8014H         LINE#         70
  C:8016H         LINE#         71
  C:8016H         LINE#         72
  C:8026H         LINE#         73
  C:8027H         LINE#         74
  -------         ENDPROC       _CHECKPSW
  -------         PROC          _ADDPSWITEM
  X:107CH         SYMBOL        pItem
  -------         DO            
  X:107FH         SYMBOL        idx
  -------         ENDDO         
  C:7E3BH         LINE#         76
  C:7E46H         LINE#         77
  C:7E46H         LINE#         78
  C:7E4CH         LINE#         79
  C:7E5FH         LINE#         81
  C:7E66H         LINE#         82
  C:7E66H         LINE#         83
  C:7E6FH         LINE#         84
  C:7E7AH         LINE#         85
BL51 BANKED LINKER/LOCATER V6.22.2.0                                                  08/04/2022  14:17:00  PAGE 90


  C:7E83H         LINE#         86
  C:7E83H         LINE#         87
  C:7E93H         LINE#         88
  C:7E93H         LINE#         90
  C:7E96H         LINE#         91
  C:7EA4H         LINE#         92
  C:7EA7H         LINE#         93
  C:7EB6H         LINE#         94
  C:7EB6H         LINE#         96
  C:7EBAH         LINE#         97
  -------         ENDPROC       _ADDPSWITEM
  -------         PROC          _DELPSWBYIDX
  X:107AH         SYMBOL        idx
  -------         DO            
  X:107CH         SYMBOL        tmpItem
  -------         ENDDO         
  C:8264H         LINE#         99
  C:826CH         LINE#         100
  C:826CH         LINE#         102
  C:827AH         LINE#         103
  C:827AH         LINE#         104
  C:828EH         LINE#         105
  C:828EH         LINE#         106
  C:829CH         LINE#         107
  C:829FH         LINE#         108
  C:829FH         LINE#         110
  C:829FH         LINE#         111
  C:82ADH         LINE#         112
  C:82B0H         LINE#         113
  C:82C1H         LINE#         114
  C:82D2H         LINE#         115
  C:82D2H         LINE#         116
  C:82D2H         LINE#         117
  -------         ENDPROC       _DELPSWBYIDX
  -------         PROC          _DELPSWBYROOM
  X:1078H         SYMBOL        room
  -------         DO            
  D:0006H         SYMBOL        idx
  -------         ENDDO         
  C:90B9H         LINE#         119
  C:90C1H         LINE#         120
  C:90C1H         LINE#         121
  C:90C3H         LINE#         122
  C:90CBH         LINE#         123
  C:90CBH         LINE#         124
  C:90CEH         LINE#         125
  C:90DBH         LINE#         126
  C:90DDH         LINE#         127
  -------         ENDPROC       _DELPSWBYROOM
  C:334EH         SYMBOL        L?0235
  -------         PROC          L?0234
  -------         ENDPROC       L?0234
  C:334EH         SYMBOL        L?0235
  -------         PROC          _SHOWPSW
  X:107CH         SYMBOL        pItem
  B:0020H.0       SYMBOL        edit
  -------         DO            
BL51 BANKED LINKER/LOCATER V6.22.2.0                                                  08/04/2022  14:17:00  PAGE 91


  X:107FH         SYMBOL        Disbuf
  X:109FH         SYMBOL        i
  X:10A0H         SYMBOL        tmp
  -------         ENDDO         
  C:3356H         LINE#         133
  C:3361H         LINE#         134
  C:3361H         LINE#         137
  C:3364H         LINE#         138
  C:336BH         LINE#         139
  C:336BH         LINE#         140
  C:3377H         LINE#         141
  C:337AH         LINE#         142
  C:3385H         LINE#         144
  C:3385H         LINE#         145
  C:33A5H         LINE#         146
  C:33A5H         LINE#         149
  C:33A8H         LINE#         154
  C:33E3H         LINE#         155
  C:33ECH         LINE#         157
  C:33EEH         LINE#         159
  C:33EEH         LINE#         160
  C:33F1H         LINE#         162
  C:33F1H         LINE#         164
  C:33F7H         LINE#         165
  C:33F7H         LINE#         170
  C:3407H         LINE#         172
  C:3407H         LINE#         173
  C:3407H         LINE#         174
  C:340DH         LINE#         175
  C:340DH         LINE#         176
  C:342CH         LINE#         177
  C:342CH         LINE#         180
  C:344EH         LINE#         181
  C:3462H         LINE#         182
  C:3480H         LINE#         183
  C:3480H         LINE#         184
  C:349AH         LINE#         185
  C:34B7H         LINE#         186
  C:34BFH         LINE#         187
  C:34D8H         LINE#         188
  C:34E4H         LINE#         189
  C:34F9H         LINE#         190
  C:34F9H         LINE#         195
  C:34FFH         LINE#         197
  C:34FFH         LINE#         198
  C:3501H         LINE#         200
  C:3501H         LINE#         201
  C:350EH         LINE#         202
  C:3523H         LINE#         203
  C:3523H         LINE#         208
  C:3533H         LINE#         210
  C:3533H         LINE#         211
  C:3533H         LINE#         212
  C:353EH         LINE#         213
  C:353EH         LINE#         214
  C:355DH         LINE#         215
  C:355DH         LINE#         218
BL51 BANKED LINKER/LOCATER V6.22.2.0                                                  08/04/2022  14:17:00  PAGE 92


  C:357FH         LINE#         219
  C:3593H         LINE#         220
  C:35B1H         LINE#         221
  C:35B1H         LINE#         222
  C:35CBH         LINE#         223
  C:35E8H         LINE#         224
  C:35F0H         LINE#         225
  C:3609H         LINE#         226
  C:3615H         LINE#         227
  C:3622H         LINE#         228
  C:3637H         LINE#         229
  C:3637H         LINE#         234
  C:363DH         LINE#         236
  C:363DH         LINE#         237
  C:363FH         LINE#         239
  C:363FH         LINE#         240
  C:364CH         LINE#         241
  C:3659H         LINE#         242
  C:366EH         LINE#         243
  C:366EH         LINE#         248
  C:367EH         LINE#         250
  C:367EH         LINE#         251
  C:367EH         LINE#         252
  C:367EH         LINE#         253
  C:367EH         LINE#         254
  -------         ENDPROC       _SHOWPSW
  -------         PROC          EDITPSWCON
  C:90DEH         LINE#         256
  C:90DEH         LINE#         257
  C:90DEH         LINE#         258
  C:90EBH         LINE#         259
  C:90F0H         LINE#         260
  C:90F2H         LINE#         261
  C:90F8H         LINE#         262
  -------         ENDPROC       EDITPSWCON
  -------         PROC          _PSWEDITKEY
  X:1075H         SYMBOL        key
  -------         DO            
  X:1076H         SYMBOL        tmp
  X:1078H         SYMBOL        tmpItem
  B:0021H.5       SYMBOL        Saved
  -------         ENDDO         
  C:2119H         LINE#         265
  C:211EH         LINE#         266
  C:211EH         LINE#         270
  C:2125H         LINE#         271
  C:2125H         LINE#         272
  C:2130H         LINE#         273
  C:2130H         LINE#         274
  C:2133H         LINE#         275
  C:2133H         LINE#         276
  C:213FH         LINE#         277
  C:2144H         LINE#         278
  C:2147H         LINE#         280
  C:2147H         LINE#         281
  C:218EH         LINE#         284
  C:218EH         LINE#         285
BL51 BANKED LINKER/LOCATER V6.22.2.0                                                  08/04/2022  14:17:00  PAGE 93


  C:219DH         LINE#         286
  C:21AEH         LINE#         287
  C:21BFH         LINE#         288
  C:21BFH         LINE#         289
  C:21C2H         LINE#         290
  C:21C4H         LINE#         292
  C:21C4H         LINE#         293
  C:21C7H         LINE#         294
  C:21C7H         LINE#         295
  C:21D4H         LINE#         296
  C:21D6H         LINE#         297
  C:21E0H         LINE#         298
  C:21EAH         LINE#         299
  C:21EBH         LINE#         301
  C:21EBH         LINE#         302
  C:21EEH         LINE#         303
  C:21EEH         LINE#         305
  C:21EEH         LINE#         306
  C:21EEH         LINE#         307
  C:21F4H         LINE#         308
  C:21F9H         LINE#         309
  C:21FCH         LINE#         310
  C:220DH         LINE#         311
  C:220DH         LINE#         312
  C:220DH         LINE#         313
  C:2212H         LINE#         314
  C:221FH         LINE#         315
  C:2232H         LINE#         316
  C:2232H         LINE#         317
  C:2238H         LINE#         318
  C:2247H         LINE#         319
  C:2249H         LINE#         320
  C:2249H         LINE#         321
  C:2249H         LINE#         322
  C:224CH         LINE#         323
  C:224CH         LINE#         330
  C:224EH         LINE#         331
  C:224EH         LINE#         332
  C:2258H         LINE#         333
  C:225DH         LINE#         340
  C:2260H         LINE#         341
  C:2260H         LINE#         342
  C:2263H         LINE#         343
  C:2266H         LINE#         345
  C:2266H         LINE#         346
  C:2266H         LINE#         347
  C:2271H         LINE#         348
  C:2271H         LINE#         349
  C:228BH         LINE#         350
  C:228BH         LINE#         351
  C:228BH         LINE#         352
  C:2294H         LINE#         353
  C:2294H         LINE#         354
  C:2297H         LINE#         355
  C:22AEH         LINE#         356
  C:22B1H         LINE#         358
  C:22B1H         LINE#         359
BL51 BANKED LINKER/LOCATER V6.22.2.0                                                  08/04/2022  14:17:00  PAGE 94


  C:22B4H         LINE#         361
  C:22B4H         LINE#         362
  C:22B4H         LINE#         363
  C:22B4H         LINE#         364
  C:22BDH         LINE#         365
  C:22BDH         LINE#         366
  C:22C0H         LINE#         367
  C:22DAH         LINE#         368
  C:22DCH         LINE#         370
  C:22DCH         LINE#         371
  C:22E2H         LINE#         372
  C:22E5H         LINE#         373
  C:22F2H         LINE#         374
  C:2305H         LINE#         375
  C:2305H         LINE#         376
  C:230BH         LINE#         377
  C:231AH         LINE#         378
  C:231CH         LINE#         379
  C:231CH         LINE#         380
  C:231CH         LINE#         381
  C:231CH         LINE#         382
  C:2325H         LINE#         383
  C:2325H         LINE#         384
  C:2328H         LINE#         385
  C:2345H         LINE#         386
  C:2348H         LINE#         388
  C:2348H         LINE#         389
  C:234EH         LINE#         390
  C:2351H         LINE#         391
  C:2360H         LINE#         392
  C:2370H         LINE#         393
  C:2370H         LINE#         394
  C:2376H         LINE#         395
  C:2385H         LINE#         396
  C:2387H         LINE#         397
  C:2387H         LINE#         398
  C:2387H         LINE#         399
  C:2387H         LINE#         400
  C:238CH         LINE#         401
  C:238EH         LINE#         402
  C:239BH         LINE#         403
  C:23ABH         LINE#         404
  C:23ABH         LINE#         405
  C:23B1H         LINE#         406
  C:23C0H         LINE#         407
  C:23C2H         LINE#         408
  C:23C2H         LINE#         409
  C:23C2H         LINE#         410
  C:23C2H         LINE#         411
  C:23C9H         LINE#         412
  C:23C9H         LINE#         413
  C:23CCH         LINE#         415
  C:23CCH         LINE#         417
  C:23E2H         LINE#         418
  C:23E2H         LINE#         419
  C:23F6H         LINE#         420
  C:23F6H         LINE#         421
BL51 BANKED LINKER/LOCATER V6.22.2.0                                                  08/04/2022  14:17:00  PAGE 95


  C:23F6H         LINE#         422
  C:23FFH         LINE#         423
  C:23FFH         LINE#         424
  C:2416H         LINE#         425
  C:2429H         LINE#         426
  C:242FH         LINE#         427
  C:243EH         LINE#         428
  C:243EH         LINE#         429
  C:2443H         LINE#         430
  C:2448H         LINE#         431
  C:2448H         LINE#         432
  C:2448H         LINE#         433
  C:2455H         LINE#         434
  C:2455H         LINE#         435
  C:2455H         LINE#         436
  C:2455H         LINE#         437
  C:2458H         LINE#         438
  C:2458H         LINE#         439
  C:2461H         LINE#         440
  C:2461H         LINE#         441
  C:247EH         LINE#         442
  C:24A7H         LINE#         443
  C:24ADH         LINE#         444
  C:24ADH         LINE#         445
  C:24C6H         LINE#         446
  C:24C6H         LINE#         447
  C:24C6H         LINE#         448
  C:24C6H         LINE#         449
  C:24C8H         LINE#         450
  C:24C8H         LINE#         451
  C:24D1H         LINE#         452
  C:24D1H         LINE#         453
  C:24EEH         LINE#         454
  C:2517H         LINE#         455
  C:251DH         LINE#         456
  C:251DH         LINE#         457
  C:2536H         LINE#         458
  C:2536H         LINE#         459
  C:253AH         LINE#         460
  C:253AH         LINE#         461
  C:253AH         LINE#         462
  C:253AH         LINE#         463
  C:253AH         LINE#         464
  C:253DH         LINE#         465
  -------         ENDPROC       _PSWEDITKEY
  -------         PROC          DELETEPSWCON
  C:9103H         LINE#         467
  C:9103H         LINE#         468
  C:9103H         LINE#         469
  C:9110H         LINE#         470
  C:9115H         LINE#         471
  C:9117H         LINE#         472
  C:911DH         LINE#         473
  -------         ENDPROC       DELETEPSWCON
  -------         PROC          _PSWDELETEKEY
  X:1075H         SYMBOL        key
  -------         DO            
BL51 BANKED LINKER/LOCATER V6.22.2.0                                                  08/04/2022  14:17:00  PAGE 96


  X:1076H         SYMBOL        tmp
  B:0021H.6       SYMBOL        Saved
  -------         ENDDO         
  C:56A6H         LINE#         476
  C:56ABH         LINE#         477
  C:56ABH         LINE#         480
  C:56B2H         LINE#         481
  C:56B2H         LINE#         482
  C:56BAH         LINE#         483
  C:56BAH         LINE#         484
  C:56BDH         LINE#         485
  C:56BDH         LINE#         486
  C:56C9H         LINE#         487
  C:56CEH         LINE#         488
  C:56D0H         LINE#         490
  C:56D0H         LINE#         491
  C:56E3H         LINE#         492
  C:56E3H         LINE#         493
  C:56E6H         LINE#         494
  C:56F3H         LINE#         495
  C:56F5H         LINE#         496
  C:56F8H         LINE#         497
  C:56F8H         LINE#         499
  C:56F8H         LINE#         500
  C:56F8H         LINE#         501
  C:56FEH         LINE#         502
  C:5703H         LINE#         503
  C:5706H         LINE#         504
  C:5710H         LINE#         505
  C:5710H         LINE#         506
  C:5710H         LINE#         507
  C:5715H         LINE#         508
  C:5722H         LINE#         509
  C:5735H         LINE#         510
  C:5735H         LINE#         511
  C:573BH         LINE#         512
  C:574AH         LINE#         513
  C:574CH         LINE#         514
  C:574CH         LINE#         515
  C:574CH         LINE#         516
  C:574FH         LINE#         517
  C:5752H         LINE#         519
  C:5752H         LINE#         520
  C:5752H         LINE#         521
  C:575AH         LINE#         522
  C:575AH         LINE#         523
  C:5764H         LINE#         524
  C:5764H         LINE#         525
  C:5764H         LINE#         526
  C:576DH         LINE#         527
  C:576DH         LINE#         528
  C:5770H         LINE#         529
  C:5787H         LINE#         530
  C:5789H         LINE#         535
  C:5789H         LINE#         536
  C:5789H         LINE#         537
  C:5789H         LINE#         538
BL51 BANKED LINKER/LOCATER V6.22.2.0                                                  08/04/2022  14:17:00  PAGE 97


  C:578EH         LINE#         539
  C:5790H         LINE#         540
  C:579DH         LINE#         541
  C:57ADH         LINE#         542
  C:57ADH         LINE#         543
  C:57B3H         LINE#         544
  C:57C2H         LINE#         545
  C:57C4H         LINE#         546
  C:57C4H         LINE#         547
  C:57C4H         LINE#         548
  C:57C4H         LINE#         549
  C:57CBH         LINE#         550
  C:57CBH         LINE#         551
  C:57CEH         LINE#         553
  C:57CEH         LINE#         555
  C:57DEH         LINE#         556
  C:57DEH         LINE#         557
  C:57E4H         LINE#         558
  C:57E4H         LINE#         559
  C:57E4H         LINE#         560
  C:57EDH         LINE#         561
  C:57EDH         LINE#         562
  C:5804H         LINE#         563
  C:5817H         LINE#         564
  C:581DH         LINE#         565
  C:582CH         LINE#         566
  C:582CH         LINE#         567
  C:5831H         LINE#         568
  C:5836H         LINE#         569
  C:5836H         LINE#         570
  C:5836H         LINE#         571
  C:5840H         LINE#         572
  C:5840H         LINE#         573
  C:5844H         LINE#         574
  C:5844H         LINE#         575
  C:5844H         LINE#         576
  C:5844H         LINE#         577
  C:5844H         LINE#         578
  C:584FH         LINE#         579
  -------         ENDPROC       _PSWDELETEKEY
  -------         PROC          DELETEALLPSWCON
  C:95DBH         LINE#         581
  C:95DBH         LINE#         582
  C:95DBH         LINE#         583
  C:95E1H         LINE#         584
  C:95E4H         LINE#         585
  -------         ENDPROC       DELETEALLPSWCON
  -------         PROC          _PSWDELALLKEY
  D:0007H         SYMBOL        key
  C:953FH         LINE#         587
  C:953FH         LINE#         588
  C:953FH         LINE#         589
  C:954CH         LINE#         590
  C:954CH         LINE#         591
  C:954CH         LINE#         592
  C:954FH         LINE#         593
  C:9552H         LINE#         594
BL51 BANKED LINKER/LOCATER V6.22.2.0                                                  08/04/2022  14:17:00  PAGE 98


  C:9552H         LINE#         595
  C:9552H         LINE#         596
  C:9552H         LINE#         597
  C:9555H         LINE#         598
  C:9555H         LINE#         599
  C:9555H         LINE#         600
  -------         ENDPROC       _PSWDELALLKEY
  -------         PROC          PSWSETCON
  -------         DO            
  X:107CH         SYMBOL        Disbuf
  -------         ENDDO         
  C:82D3H         LINE#         602
  C:82D3H         LINE#         603
  C:82D3H         LINE#         606
  C:82D9H         LINE#         608
  C:82DCH         LINE#         609
  C:82E8H         LINE#         610
  C:82F5H         LINE#         611
  C:8302H         LINE#         612
  C:830FH         LINE#         613
  C:8335H         LINE#         617
  -------         ENDPROC       PSWSETCON
  -------         PROC          _PSWSETKEY
  D:0007H         SYMBOL        key
  C:9317H         LINE#         621
  C:9317H         LINE#         622
  C:9317H         LINE#         623
  C:932BH         LINE#         624
  C:932BH         LINE#         625
  C:932BH         LINE#         626
  C:932EH         LINE#         627
  C:932EH         LINE#         628
  C:932EH         LINE#         629
  C:9331H         LINE#         630
  C:9331H         LINE#         631
  C:9331H         LINE#         632
  C:9334H         LINE#         633
  C:9334H         LINE#         634
  C:9334H         LINE#         635
  C:9334H         LINE#         636
  C:9337H         LINE#         637
  C:9337H         LINE#         638
  C:9337H         LINE#         639
  -------         ENDPROC       _PSWSETKEY
  -------         PROC          INPUTPSWCON
  C:9203H         LINE#         641
  C:9203H         LINE#         642
  C:9203H         LINE#         643
  C:9210H         LINE#         644
  C:9216H         LINE#         645
  C:9219H         LINE#         646
  C:921FH         LINE#         647
  C:9222H         LINE#         649
  -------         ENDPROC       INPUTPSWCON
  -------         PROC          _PSWINPUTKEY
  X:1075H         SYMBOL        key
  C:668CH         LINE#         652
BL51 BANKED LINKER/LOCATER V6.22.2.0                                                  08/04/2022  14:17:00  PAGE 99


  C:6691H         LINE#         653
  C:6691H         LINE#         654
  C:6695H         LINE#         655
  C:6695H         LINE#         656
  C:669CH         LINE#         657
  C:669CH         LINE#         673
  C:669CH         LINE#         674
  C:66A5H         LINE#         675
  C:66A5H         LINE#         676
  C:66A8H         LINE#         677
  C:66C5H         LINE#         678
  C:66C7H         LINE#         691
  C:66C7H         LINE#         692
  C:66C7H         LINE#         693
  C:66C7H         LINE#         694
  C:66C7H         LINE#         695
  C:66CEH         LINE#         696
  C:66CEH         LINE#         697
  C:66D1H         LINE#         699
  C:66D1H         LINE#         701
  C:66E7H         LINE#         702
  C:66E7H         LINE#         703
  C:66F1H         LINE#         704
  C:66F1H         LINE#         717
  C:66F1H         LINE#         718
  C:66FAH         LINE#         719
  C:66FAH         LINE#         720
  C:6717H         LINE#         721
  C:6740H         LINE#         722
  C:6746H         LINE#         723
  C:6746H         LINE#         724
  C:675FH         LINE#         725
  C:675FH         LINE#         726
  C:6763H         LINE#         727
  C:6763H         LINE#         731
  C:676BH         LINE#         732
  C:676BH         LINE#         734
  C:676BH         LINE#         736
  C:677AH         LINE#         737
  C:677AH         LINE#         738
  C:6786H         LINE#         739
  C:678FH         LINE#         740
  C:6799H         LINE#         741
  C:67A0H         LINE#         742
  C:67A4H         LINE#         743
  C:67AAH         LINE#         745
  C:67AAH         LINE#         747
  C:67AAH         LINE#         748
  C:67B4H         LINE#         749
  C:67B9H         LINE#         750
  C:67BEH         LINE#         751
  C:67C1H         LINE#         752
  C:67C6H         LINE#         753
  C:67CFH         LINE#         754
  C:67CFH         LINE#         755
  C:67D0H         LINE#         766
  C:67D0H         LINE#         767
BL51 BANKED LINKER/LOCATER V6.22.2.0                                                  08/04/2022  14:17:00  PAGE 100


  C:67D0H         LINE#         768
  C:67D0H         LINE#         769
  C:67D0H         LINE#         770
  C:67D3H         LINE#         771
  -------         ENDPROC       _PSWINPUTKEY
  -------         PROC          EDITSYSPSWCON
  C:9128H         LINE#         774
  C:9128H         LINE#         775
  C:9128H         LINE#         776
  C:9135H         LINE#         777
  C:913AH         LINE#         778
  C:913CH         LINE#         779
  C:9142H         LINE#         780
  -------         ENDPROC       EDITSYSPSWCON
  -------         PROC          SAVESYSPSW
  C:940DH         LINE#         782
  C:940DH         LINE#         783
  C:940DH         LINE#         784
  -------         ENDPROC       SAVESYSPSW
  -------         PROC          _SYSPSWEDITKEY
  X:1075H         SYMBOL        key
  -------         DO            
  D:0006H         SYMBOL        tmp
  B:0021H.7       SYMBOL        Saved
  -------         ENDDO         
  C:3CCCH         LINE#         787
  C:3CD1H         LINE#         788
  C:3CD1H         LINE#         791
  C:3CD8H         LINE#         792
  C:3CD8H         LINE#         793
  C:3CE3H         LINE#         794
  C:3CE3H         LINE#         795
  C:3CE6H         LINE#         796
  C:3CE6H         LINE#         797
  C:3CF2H         LINE#         798
  C:3CF7H         LINE#         799
  C:3CFAH         LINE#         801
  C:3CFAH         LINE#         802
  C:3D30H         LINE#         804
  C:3D30H         LINE#         805
  C:3D44H         LINE#         806
  C:3D47H         LINE#         807
  C:3D4AH         LINE#         808
  C:3D57H         LINE#         809
  C:3D59H         LINE#         810
  C:3D63H         LINE#         811
  C:3D6DH         LINE#         812
  C:3D6EH         LINE#         814
  C:3D6EH         LINE#         815
  C:3D78H         LINE#         816
  C:3D82H         LINE#         817
  C:3D85H         LINE#         818
  C:3D85H         LINE#         820
  C:3D85H         LINE#         821
  C:3D85H         LINE#         822
  C:3D95H         LINE#         823
  C:3D95H         LINE#         825
BL51 BANKED LINKER/LOCATER V6.22.2.0                                                  08/04/2022  14:17:00  PAGE 101


  C:3D95H         LINE#         826
  C:3D9BH         LINE#         827
  C:3DA4H         LINE#         828
  C:3DA7H         LINE#         829
  C:3DB5H         LINE#         830
  C:3DB5H         LINE#         831
  C:3DB5H         LINE#         832
  C:3DB8H         LINE#         833
  C:3DB8H         LINE#         834
  C:3DBAH         LINE#         835
  C:3DBAH         LINE#         836
  C:3DC4H         LINE#         837
  C:3DC9H         LINE#         838
  C:3DCCH         LINE#         839
  C:3DCCH         LINE#         840
  C:3DCFH         LINE#         841
  C:3DD2H         LINE#         843
  C:3DD2H         LINE#         844
  C:3DD2H         LINE#         845
  C:3DDDH         LINE#         846
  C:3DDDH         LINE#         847
  C:3DF1H         LINE#         848
  C:3DF1H         LINE#         849
  C:3DF1H         LINE#         850
  C:3DFAH         LINE#         851
  C:3DFAH         LINE#         852
  C:3DFDH         LINE#         853
  C:3E17H         LINE#         854
  C:3E19H         LINE#         856
  C:3E19H         LINE#         857
  C:3E1BH         LINE#         859
  C:3E1BH         LINE#         860
  C:3E1BH         LINE#         861
  C:3E1BH         LINE#         862
  C:3E24H         LINE#         863
  C:3E24H         LINE#         864
  C:3E27H         LINE#         865
  C:3E44H         LINE#         866
  C:3E46H         LINE#         868
  C:3E46H         LINE#         869
  C:3E4CH         LINE#         870
  C:3E4FH         LINE#         871
  C:3E59H         LINE#         872
  C:3E62H         LINE#         873
  C:3E62H         LINE#         874
  C:3E68H         LINE#         875
  C:3E6FH         LINE#         876
  C:3E71H         LINE#         877
  C:3E71H         LINE#         878
  C:3E71H         LINE#         879
  C:3E71H         LINE#         880
  C:3E76H         LINE#         881
  C:3E78H         LINE#         882
  C:3E7AH         LINE#         883
  C:3E7AH         LINE#         884
  C:3E7AH         LINE#         885
  C:3E81H         LINE#         886
BL51 BANKED LINKER/LOCATER V6.22.2.0                                                  08/04/2022  14:17:00  PAGE 102


  C:3E81H         LINE#         887
  C:3E84H         LINE#         889
  C:3E84H         LINE#         891
  C:3E9AH         LINE#         892
  C:3E9AH         LINE#         893
  C:3EA7H         LINE#         894
  C:3EA7H         LINE#         895
  C:3EA7H         LINE#         896
  C:3EB0H         LINE#         897
  C:3EB0H         LINE#         898
  C:3ECDH         LINE#         899
  C:3EF6H         LINE#         900
  C:3EFCH         LINE#         901
  C:3EFCH         LINE#         902
  C:3F15H         LINE#         903
  C:3F15H         LINE#         904
  C:3F15H         LINE#         905
  C:3F15H         LINE#         906
  C:3F17H         LINE#         907
  C:3F17H         LINE#         908
  C:3F20H         LINE#         909
  C:3F20H         LINE#         910
  C:3F3DH         LINE#         911
  C:3F66H         LINE#         912
  C:3F6CH         LINE#         913
  C:3F6CH         LINE#         914
  C:3F85H         LINE#         915
  C:3F85H         LINE#         916
  C:3F89H         LINE#         917
  C:3F89H         LINE#         918
  C:3F89H         LINE#         919
  C:3F89H         LINE#         920
  C:3F89H         LINE#         921
  C:3F8CH         LINE#         922
  -------         ENDPROC       _SYSPSWEDITKEY
  -------         ENDMOD        UNLOCKPASSWORD

  -------         MODULE        SYSSTRING
  C:0000H         SYMBOL        _ICE_DUMMY_
  C:29D9H         PUBLIC        StrTabErr
  C:2A6EH         PUBLIC        StrTabListCount
  D:0080H         PUBLIC        P0
  C:29D3H         PUBLIC        StrTabSaveOK
  D:0090H         PUBLIC        P1
  D:00A0H         PUBLIC        P2
  C:2AB1H         PUBLIC        StrTabDelAllCard
  D:00B0H         PUBLIC        P3
  D:00C0H         PUBLIC        P4
  D:00C8H         PUBLIC        P5
  C:29FAH         PUBLIC        StrTabDelOK
  C:2CA3H         PUBLIC        StrTabNum
  D:00E8H         PUBLIC        P6
  D:00F8H         PUBLIC        P7
  C:9729H         PUBLIC        ShowConfirmSave
  C:2CAAH         PUBLIC        StrTabSms
  C:2997H         PUBLIC        StrTabDelAllName
  C:2BB3H         PUBLIC        StrTabMain1
BL51 BANKED LINKER/LOCATER V6.22.2.0                                                  08/04/2022  14:17:00  PAGE 103


  C:2BC3H         PUBLIC        StrTabMain2
  C:9739H         PUBLIC        ShowConfirmDel
  D:00A8H         PUBLIC        IE
  C:2BD1H         PUBLIC        StrTabMain3
  C:2BDFH         PUBLIC        StrTabMain4
  C:2BE5H         PUBLIC        StrTabMain5
  C:2BEEH         PUBLIC        StrTabMain6
  C:2B4AH         PUBLIC        StrTabOn
  C:2BF8H         PUBLIC        StrTabMain7
  C:2C08H         PUBLIC        StrTabMain8
  C:94C5H         PUBLIC        ShowUnlock
  C:2C12H         PUBLIC        StrTabMain9
  C:9631H         PUBLIC        ShowDeleteOK
  D:00B8H         PUBLIC        IP
  C:2C40H         PUBLIC        StrTabRoomErr
  C:2B36H         PUBLIC        StrTabCamrea
  C:2B77H         PUBLIC        StrTabSimCardBusy
  C:2C7CH         PUBLIC        StrTabUnlockKey2
  D:00D8H         PUBLIC        CCON
  C:2B51H         PUBLIC        StrTabGsmErr
  C:9759H         PUBLIC        ShowReset
  C:722FH         PUBLIC        _ShowMain
  C:2B69H         PUBLIC        StrTabNotSimCard
  C:294AH         PUBLIC        FhChar
  C:2A85H         PUBLIC        StrTabCardSet1
  C:2A92H         PUBLIC        StrTabCardSet2
  C:2BA7H         PUBLIC        StrTabGsmCsqGood
  C:2AA0H         PUBLIC        StrTabCardSet3
  D:0098H         PUBLIC        SCON
  D:0088H         PUBLIC        TCON
  C:2968H         PUBLIC        StrTabNameSet1
  C:2978H         PUBLIC        StrTabNameSet2
  C:2986H         PUBLIC        StrTabNameSet3
  C:2C20H         PUBLIC        StrTabMain10
  C:2C30H         PUBLIC        StrTabMain11
  C:2B99H         PUBLIC        StrTabGsmCsqMed
  X:134BH         PUBLIC        DisBuf
  C:2A52H         PUBLIC        StrTabPsw1
  D:00F0H         PUBLIC        B
  C:2A07H         PUBLIC        StrTabDelAllPsw
  C:2A64H         PUBLIC        StrTabPsw2
  C:2A5CH         PUBLIC        StrTabPsw3
  C:2953H         PUBLIC        StrTabSysSet
  C:2ADAH         PUBLIC        StrTabUnlock
  C:8948H         PUBLIC        ShowTalkTime
  D:00E0H         PUBLIC        ACC
  C:9646H         PUBLIC        ShowCardErr
  C:961CH         PUBLIC        ShowErr
  C:9607H         PUBLIC        ShowSaveOK
  C:2AC8H         PUBLIC        StrTabCard
  C:2B84H         PUBLIC        StrTabGsmCsqErr
  C:2A75H         PUBLIC        StrTabSysPsw
  C:2AECH         PUBLIC        StrTabCall
  C:2B3EH         PUBLIC        StrTabRelay
  C:29B9H         PUBLIC        StrTabName
  C:2C5AH         PUBLIC        StrTabReset
  C:2B8EH         PUBLIC        StrTabGsmCsqLow
BL51 BANKED LINKER/LOCATER V6.22.2.0                                                  08/04/2022  14:17:00  PAGE 104


  C:2C51H         PUBLIC        StrTabTalk
  C:2B0DH         PUBLIC        StrTabCallTime
  C:29E0H         PUBLIC        StrTabDel
  C:2C94H         PUBLIC        StrTabTalkValum
  C:2B18H         PUBLIC        StrTabTone
  C:9749H         PUBLIC        ShowRoomErr
  C:2C64H         PUBLIC        StrTabUnlockKey
  C:2A22H         PUBLIC        StrTabPswSet1
  C:2B4DH         PUBLIC        StrTabOff
  C:2A33H         PUBLIC        StrTabPswSet2
  C:2A44H         PUBLIC        StrTabPswSet3
  C:29AEH         PUBLIC        StrTabRoom
  C:2B5EH         PUBLIC        StrTabSimCardReady
  C:2AF6H         PUBLIC        StrTabTalkTime
  C:2963H         PUBLIC        StrTabSysSet1
  C:7CAFH         PUBLIC        ShowGsmCsq
  C:29C3H         PUBLIC        StrTabMakeSure
  C:965BH         PUBLIC        ShowGsmErr
  C:2B01H         PUBLIC        StrTabRingTime
  C:29BFH         PUBLIC        StrTabTel
  D:00D0H         PUBLIC        PSW
  C:2ACEH         PUBLIC        StrTabCardErr
  -------         PROC          SHOWCONFIRMSAVE
  C:9729H         LINE#         184
  C:9729H         LINE#         185
  C:9729H         LINE#         186
  C:972CH         LINE#         187
  -------         ENDPROC       SHOWCONFIRMSAVE
  -------         PROC          SHOWCONFIRMDEL
  C:9739H         LINE#         189
  C:9739H         LINE#         190
  C:9739H         LINE#         191
  C:973CH         LINE#         192
  -------         ENDPROC       SHOWCONFIRMDEL
  -------         PROC          SHOWSAVEOK
  C:9607H         LINE#         194
  C:9607H         LINE#         195
  C:9607H         LINE#         196
  C:960AH         LINE#         197
  C:9617H         LINE#         198
  -------         ENDPROC       SHOWSAVEOK
  -------         PROC          SHOWERR
  C:961CH         LINE#         200
  C:961CH         LINE#         201
  C:961CH         LINE#         202
  C:961FH         LINE#         203
  C:962CH         LINE#         204
  -------         ENDPROC       SHOWERR
  -------         PROC          SHOWDELETEOK
  C:9631H         LINE#         206
  C:9631H         LINE#         207
  C:9631H         LINE#         208
  C:9634H         LINE#         209
  C:9641H         LINE#         210
  -------         ENDPROC       SHOWDELETEOK
  -------         PROC          SHOWCARDERR
  C:9646H         LINE#         213
BL51 BANKED LINKER/LOCATER V6.22.2.0                                                  08/04/2022  14:17:00  PAGE 105


  C:9646H         LINE#         214
  C:9646H         LINE#         215
  C:9649H         LINE#         216
  C:9656H         LINE#         217
  -------         ENDPROC       SHOWCARDERR
  -------         PROC          SHOWUNLOCK
  B:0020H.1       SYMBOL        Sound
  C:94C5H         LINE#         219
  C:94C5H         LINE#         220
  C:94C5H         LINE#         221
  C:94C8H         LINE#         222
  C:94D5H         LINE#         223
  C:94D8H         LINE#         224
  C:94D8H         LINE#         225
  C:94DDH         LINE#         226
  C:94DDH         LINE#         227
  -------         ENDPROC       SHOWUNLOCK
  -------         PROC          SHOWGSMERR
  C:965BH         LINE#         229
  C:965BH         LINE#         230
  C:965BH         LINE#         231
  C:965EH         LINE#         232
  C:966BH         LINE#         233
  -------         ENDPROC       SHOWGSMERR
  -------         PROC          SHOWROOMERR
  C:9749H         LINE#         236
  C:9749H         LINE#         237
  C:9749H         LINE#         238
  C:974CH         LINE#         239
  -------         ENDPROC       SHOWROOMERR
  -------         PROC          SHOWGSMCSQ
  C:7CAFH         LINE#         243
  C:7CAFH         LINE#         244
  C:7CAFH         LINE#         245
  C:7CB7H         LINE#         246
  C:7CB7H         LINE#         248
  C:7CB7H         LINE#         249
  C:7CC3H         LINE#         250
  C:7CCAH         LINE#         251
  C:7CCAH         LINE#         252
  C:7CD2H         LINE#         254
  C:7CD2H         LINE#         255
  C:7CD9H         LINE#         256
  C:7CD9H         LINE#         257
  C:7CE1H         LINE#         259
  C:7CE1H         LINE#         260
  C:7CE8H         LINE#         261
  C:7CE8H         LINE#         262
  C:7CF0H         LINE#         264
  C:7CF0H         LINE#         265
  C:7CFEH         LINE#         266
  C:7CFEH         LINE#         267
  C:7D06H         LINE#         271
  C:7D06H         LINE#         274
  C:7D0FH         LINE#         275
  C:7D0FH         LINE#         276
  C:7D15H         LINE#         277
BL51 BANKED LINKER/LOCATER V6.22.2.0                                                  08/04/2022  14:17:00  PAGE 106


  C:7D17H         LINE#         278
  C:7D22H         LINE#         279
  C:7D22H         LINE#         280
  C:7D26H         LINE#         281
  C:7D28H         LINE#         283
  C:7D28H         LINE#         284
  C:7D33H         LINE#         285
  C:7D33H         LINE#         297
  -------         ENDPROC       SHOWGSMCSQ
  -------         PROC          _SHOWMAIN
  X:1080H         SYMBOL        first
  C:722FH         LINE#         299
  C:7234H         LINE#         300
  C:7234H         LINE#         306
  C:7237H         LINE#         361
  C:723DH         LINE#         362
  C:723DH         LINE#         363
  C:7248H         LINE#         366
  C:7255H         LINE#         368
  C:7262H         LINE#         370
  C:726FH         LINE#         371
  C:7273H         LINE#         374
  C:7275H         LINE#         376
  C:727DH         LINE#         377
  C:727DH         LINE#         378
  C:7288H         LINE#         379
  C:7291H         LINE#         382
  C:729EH         LINE#         386
  C:72ABH         LINE#         389
  C:72B8H         LINE#         390
  C:72C1H         LINE#         391
  C:72CAH         LINE#         393
  C:72CAH         LINE#         395
  C:72D2H         LINE#         396
  C:72D2H         LINE#         397
  C:72DDH         LINE#         398
  C:72E6H         LINE#         400
  C:72F3H         LINE#         401
  C:72FCH         LINE#         403
  C:7309H         LINE#         405
  C:730CH         LINE#         406
  C:730CH         LINE#         409
  -------         ENDPROC       _SHOWMAIN
  -------         PROC          SHOWTALKTIME
  C:8948H         LINE#         411
  C:8948H         LINE#         412
  C:8948H         LINE#         413
  C:894BH         LINE#         419
  C:897DH         LINE#         420
  -------         ENDPROC       SHOWTALKTIME
  -------         PROC          SHOWRESET
  C:9759H         LINE#         423
  C:9759H         LINE#         424
  C:9759H         LINE#         425
  C:975CH         LINE#         426
  -------         ENDPROC       SHOWRESET
  -------         ENDMOD        SYSSTRING
BL51 BANKED LINKER/LOCATER V6.22.2.0                                                  08/04/2022  14:17:00  PAGE 107



  -------         MODULE        CARD
  C:0000H         SYMBOL        _ICE_DUMMY_
  C:533CH         PUBLIC        _CardDeleteKey
  D:0080H         PUBLIC        P0
  D:0090H         PUBLIC        P1
  D:00A0H         PUBLIC        P2
  D:00B0H         PUBLIC        P3
  D:00C0H         PUBLIC        P4
  D:00C8H         PUBLIC        P5
  D:00E8H         PUBLIC        P6
  D:00F8H         PUBLIC        P7
  D:00A8H         PUBLIC        IE
  C:95F1H         PUBLIC        DeleteAllCardCon
  C:96D1H         PUBLIC        InitCard
  X:1376H         PUBLIC        CardEditItem
  C:730DH         PUBLIC        _AddCardItem
  D:00B8H         PUBLIC        IP
  X:137CH         SYMBOL        CardEditMidx
  C:926DH         PUBLIC        SaveCardCount
  C:3F8DH         PUBLIC        _ShowCard
  D:00D8H         PUBLIC        CCON
  C:9172H         PUBLIC        EditCardCon
  X:137DH         SYMBOL        CardEditIdx
  C:54F4H         PUBLIC        _CardEditKey
  D:0098H         PUBLIC        SCON
  D:0088H         PUBLIC        TCON
  C:8A45H         PUBLIC        _CardEditCardIn
  D:00F0H         PUBLIC        B
  D:00E0H         PUBLIC        ACC
  C:8F0BH         PUBLIC        _DelCardByCard
  C:83B1H         PUBLIC        CardSetCon
  C:9338H         PUBLIC        _CardSetKey
  C:9556H         PUBLIC        _CardDelAllKey
  C:76FAH         PUBLIC        _CheckCard
  C:8C93H         PUBLIC        _ReadCardByIdx
  C:9781H         PUBLIC        ClearCard
  C:8C62H         PUBLIC        _WriteCardByIdx
  C:914DH         PUBLIC        _DelCardByRoom
  C:8B98H         PUBLIC        DeleteCardCon
  C:8342H         PUBLIC        _DelCardByIdx
  D:00D0H         PUBLIC        PSW
  -------         PROC          SAVECARDCOUNT
  C:926DH         LINE#         11
  C:926DH         LINE#         12
  C:926DH         LINE#         13
  -------         ENDPROC       SAVECARDCOUNT
  -------         PROC          CLEARCARD
  C:9781H         LINE#         16
  C:9781H         LINE#         17
  C:9781H         LINE#         18
  C:9788H         LINE#         19
  -------         ENDPROC       CLEARCARD
  -------         PROC          INITCARD
  C:96D1H         LINE#         22
  C:96D1H         LINE#         23
  C:96D1H         LINE#         24
BL51 BANKED LINKER/LOCATER V6.22.2.0                                                  08/04/2022  14:17:00  PAGE 108


  C:96E0H         LINE#         25
  C:96E0H         LINE#         26
  C:96E3H         LINE#         27
  C:96E3H         LINE#         28
  -------         ENDPROC       INITCARD
  -------         PROC          _WRITECARDBYIDX
  D:0006H         SYMBOL        idx
  X:1083H         SYMBOL        pItem
  -------         DO            
  D:0006H         SYMBOL        addr
  -------         ENDDO         
  C:8C62H         LINE#         30
  C:8C6DH         LINE#         31
  C:8C6DH         LINE#         32
  C:8C6DH         LINE#         33
  C:8C74H         LINE#         34
  -------         ENDPROC       _WRITECARDBYIDX
  -------         PROC          _READCARDBYIDX
  D:0006H         SYMBOL        idx
  X:1086H         SYMBOL        pItem
  -------         DO            
  D:0006H         SYMBOL        addr
  -------         ENDDO         
  C:8C93H         LINE#         37
  C:8C9EH         LINE#         38
  C:8C9EH         LINE#         39
  C:8C9EH         LINE#         40
  C:8CA5H         LINE#         41
  -------         ENDPROC       _READCARDBYIDX
  -------         PROC          _CHECKCARD
  X:107BH         SYMBOL        card
  -------         DO            
  X:107EH         SYMBOL        tmpItem
  X:1084H         SYMBOL        idx
  D:0007H         SYMBOL        i
  -------         ENDDO         
  C:76FAH         LINE#         56
  C:7705H         LINE#         57
  C:7705H         LINE#         59
  C:770CH         LINE#         61
  C:7716H         LINE#         62
  C:7716H         LINE#         63
  C:7718H         LINE#         64
  C:7718H         LINE#         65
  C:772EH         LINE#         66
  C:772EH         LINE#         67
  C:7737H         LINE#         68
  C:7739H         LINE#         69
  C:7739H         LINE#         70
  C:775BH         LINE#         71
  C:775BH         LINE#         72
  C:775BH         LINE#         73
  C:775BH         LINE#         74
  C:7760H         LINE#         75
  C:7764H         LINE#         76
  C:7764H         LINE#         77
  C:777CH         LINE#         78
BL51 BANKED LINKER/LOCATER V6.22.2.0                                                  08/04/2022  14:17:00  PAGE 109


  C:7785H         LINE#         79
  C:7785H         LINE#         80
  C:7793H         LINE#         81
  C:7795H         LINE#         82
  C:7799H         LINE#         83
  -------         ENDPROC       _CHECKCARD
  -------         PROC          _ADDCARDITEM
  X:1078H         SYMBOL        pItem
  -------         DO            
  X:107BH         SYMBOL        tmpItem
  X:1081H         SYMBOL        idx
  D:0007H         SYMBOL        i
  -------         ENDDO         
  C:730DH         LINE#         85
  C:7318H         LINE#         86
  C:7318H         LINE#         88
  C:731FH         LINE#         90
  C:7335H         LINE#         91
  C:7335H         LINE#         92
  C:733EH         LINE#         94
  C:735AH         LINE#         95
  C:735AH         LINE#         96
  C:735BH         LINE#         97
  C:735BH         LINE#         98
  C:7385H         LINE#         99
  C:7385H         LINE#         100
  C:7385H         LINE#         101
  C:7385H         LINE#         102
  C:738AH         LINE#         103
  C:738EH         LINE#         104
  C:738EH         LINE#         105
  C:7397H         LINE#         106
  C:7397H         LINE#         107
  C:7397H         LINE#         108
  C:73A5H         LINE#         109
  C:73A8H         LINE#         110
  C:73B8H         LINE#         111
  C:73B8H         LINE#         112
  C:73C6H         LINE#         113
  C:73D4H         LINE#         114
  C:73D7H         LINE#         115
  C:73E6H         LINE#         116
  C:73E6H         LINE#         117
  C:73EAH         LINE#         118
  -------         ENDPROC       _ADDCARDITEM
  -------         PROC          _DELCARDBYIDX
  X:107BH         SYMBOL        idx
  -------         DO            
  X:107DH         SYMBOL        tmpItem
  -------         ENDDO         
  C:8342H         LINE#         120
  C:834AH         LINE#         121
  C:834AH         LINE#         123
  C:8358H         LINE#         124
  C:8358H         LINE#         125
  C:836CH         LINE#         126
  C:836CH         LINE#         127
BL51 BANKED LINKER/LOCATER V6.22.2.0                                                  08/04/2022  14:17:00  PAGE 110


  C:837AH         LINE#         128
  C:837DH         LINE#         129
  C:837DH         LINE#         131
  C:837DH         LINE#         132
  C:838BH         LINE#         133
  C:838EH         LINE#         134
  C:839FH         LINE#         135
  C:83B0H         LINE#         136
  C:83B0H         LINE#         137
  C:83B0H         LINE#         138
  -------         ENDPROC       _DELCARDBYIDX
  -------         PROC          _DELCARDBYROOM
  X:1078H         SYMBOL        room
  -------         DO            
  D:0006H         SYMBOL        idx
  -------         ENDDO         
  C:914DH         LINE#         140
  C:9155H         LINE#         141
  C:9155H         LINE#         142
  C:9157H         LINE#         143
  C:915FH         LINE#         144
  C:915FH         LINE#         145
  C:9162H         LINE#         146
  C:916FH         LINE#         147
  C:9171H         LINE#         148
  -------         ENDPROC       _DELCARDBYROOM
  -------         PROC          _DELCARDBYCARD
  X:1078H         SYMBOL        card
  -------         DO            
  D:0006H         SYMBOL        idx
  -------         ENDDO         
  C:8F0BH         LINE#         150
  C:8F16H         LINE#         151
  C:8F16H         LINE#         152
  C:8F18H         LINE#         153
  C:8F20H         LINE#         154
  C:8F20H         LINE#         155
  C:8F23H         LINE#         156
  C:8F31H         LINE#         157
  C:8F33H         LINE#         158
  -------         ENDPROC       _DELCARDBYCARD
  -------         PROC          _SHOWCARD
  X:107AH         SYMBOL        pItem
  B:0020H.0       SYMBOL        edit
  -------         DO            
  X:107DH         SYMBOL        num
  X:1081H         SYMBOL        Disbuf
  -------         ENDDO         
  C:3F8DH         LINE#         165
  C:3F98H         LINE#         166
  C:3F98H         LINE#         170
  C:3F9BH         LINE#         210
  C:3FB9H         LINE#         211
  C:3FB9H         LINE#         212
  C:3FD3H         LINE#         213
  C:3FD5H         LINE#         215
  C:3FD5H         LINE#         216
BL51 BANKED LINKER/LOCATER V6.22.2.0                                                  08/04/2022  14:17:00  PAGE 111


  C:3FF3H         LINE#         217
  C:3FF3H         LINE#         218
  C:4000H         LINE#         221
  C:4006H         LINE#         222
  C:4006H         LINE#         226
  C:4016H         LINE#         228
  C:4016H         LINE#         229
  C:401CH         LINE#         230
  C:401CH         LINE#         232
  C:4029H         LINE#         233
  C:4045H         LINE#         234
  C:4045H         LINE#         239
  C:4061H         LINE#         240
  C:407AH         LINE#         241
  C:40B9H         LINE#         242
  C:40D2H         LINE#         243
  C:4111H         LINE#         244
  C:412AH         LINE#         245
  C:4169H         LINE#         246
  C:4199H         LINE#         247
  C:41C2H         LINE#         252
  C:41FEH         LINE#         253
  C:420BH         LINE#         255
  C:420BH         LINE#         257
  C:420BH         LINE#         258
  -------         ENDPROC       _SHOWCARD
  -------         PROC          EDITCARDCON
  C:9172H         LINE#         260
  C:9172H         LINE#         261
  C:9172H         LINE#         262
  C:917FH         LINE#         263
  C:9184H         LINE#         264
  C:9186H         LINE#         265
  C:918CH         LINE#         266
  -------         ENDPROC       EDITCARDCON
  -------         PROC          _CARDEDITKEY
  X:1075H         SYMBOL        key
  -------         DO            
  X:1076H         SYMBOL        tmp
  B:0023H.0       SYMBOL        Saved
  -------         ENDDO         
  C:54F4H         LINE#         269
  C:54F9H         LINE#         270
  C:54F9H         LINE#         273
  C:5500H         LINE#         274
  C:5500H         LINE#         275
  C:5508H         LINE#         276
  C:5508H         LINE#         277
  C:550BH         LINE#         278
  C:550BH         LINE#         279
  C:5517H         LINE#         280
  C:551CH         LINE#         281
  C:551EH         LINE#         283
  C:551EH         LINE#         284
  C:553CH         LINE#         286
  C:553CH         LINE#         287
  C:554DH         LINE#         288
BL51 BANKED LINKER/LOCATER V6.22.2.0                                                  08/04/2022  14:17:00  PAGE 112


  C:554DH         LINE#         289
  C:5550H         LINE#         290
  C:5552H         LINE#         292
  C:5552H         LINE#         293
  C:5555H         LINE#         294
  C:5555H         LINE#         295
  C:5562H         LINE#         296
  C:5564H         LINE#         297
  C:5565H         LINE#         299
  C:5565H         LINE#         300
  C:5568H         LINE#         301
  C:5568H         LINE#         303
  C:5568H         LINE#         304
  C:5568H         LINE#         305
  C:556EH         LINE#         306
  C:5573H         LINE#         307
  C:5576H         LINE#         308
  C:5580H         LINE#         309
  C:5580H         LINE#         310
  C:5580H         LINE#         311
  C:5585H         LINE#         312
  C:5592H         LINE#         313
  C:55A5H         LINE#         314
  C:55A5H         LINE#         315
  C:55ABH         LINE#         316
  C:55BAH         LINE#         317
  C:55BCH         LINE#         318
  C:55BCH         LINE#         319
  C:55BCH         LINE#         324
  C:55BFH         LINE#         325
  C:55C2H         LINE#         327
  C:55C2H         LINE#         328
  C:55C2H         LINE#         329
  C:55CAH         LINE#         330
  C:55CAH         LINE#         331
  C:55D4H         LINE#         332
  C:55D4H         LINE#         333
  C:55D4H         LINE#         334
  C:55DDH         LINE#         335
  C:55DDH         LINE#         336
  C:55E0H         LINE#         337
  C:55F7H         LINE#         338
  C:55F9H         LINE#         343
  C:55F9H         LINE#         344
  C:55F9H         LINE#         363
  C:55F9H         LINE#         364
  C:55FEH         LINE#         365
  C:5600H         LINE#         366
  C:560DH         LINE#         367
  C:561DH         LINE#         368
  C:561DH         LINE#         369
  C:5623H         LINE#         370
  C:5632H         LINE#         371
  C:5634H         LINE#         372
  C:5634H         LINE#         373
  C:5634H         LINE#         374
  C:5634H         LINE#         375
BL51 BANKED LINKER/LOCATER V6.22.2.0                                                  08/04/2022  14:17:00  PAGE 113


  C:563BH         LINE#         376
  C:563BH         LINE#         377
  C:563EH         LINE#         379
  C:563EH         LINE#         381
  C:564EH         LINE#         382
  C:564EH         LINE#         383
  C:5654H         LINE#         384
  C:5654H         LINE#         385
  C:5654H         LINE#         386
  C:565DH         LINE#         387
  C:565DH         LINE#         388
  C:5674H         LINE#         389
  C:5686H         LINE#         390
  C:568CH         LINE#         391
  C:5696H         LINE#         392
  C:5696H         LINE#         393
  C:569AH         LINE#         394
  C:569AH         LINE#         395
  C:569AH         LINE#         396
  C:569AH         LINE#         403
  C:569AH         LINE#         404
  C:569AH         LINE#         405
  C:56A5H         LINE#         406
  -------         ENDPROC       _CARDEDITKEY
  -------         PROC          _CARDEDITCARDIN
  X:1077H         SYMBOL        card
  C:8A45H         LINE#         408
  C:8A50H         LINE#         409
  C:8A50H         LINE#         418
  C:8A75H         LINE#         419
  -------         ENDPROC       _CARDEDITCARDIN
  -------         PROC          DELETECARDCON
  C:8B98H         LINE#         422
  C:8B98H         LINE#         423
  C:8B98H         LINE#         424
  C:8BA5H         LINE#         425
  C:8BAAH         LINE#         426
  C:8BACH         LINE#         427
  C:8BB2H         LINE#         428
  -------         ENDPROC       DELETECARDCON
  -------         PROC          _CARDDELETEKEY
  X:1075H         SYMBOL        key
  -------         DO            
  X:1076H         SYMBOL        tmp
  B:0023H.1       SYMBOL        Saved
  -------         ENDDO         
  C:533CH         LINE#         431
  C:5341H         LINE#         432
  C:5341H         LINE#         435
  C:5348H         LINE#         436
  C:5348H         LINE#         437
  C:5350H         LINE#         438
  C:5350H         LINE#         439
  C:5353H         LINE#         440
  C:5353H         LINE#         441
  C:535FH         LINE#         442
  C:5364H         LINE#         443
BL51 BANKED LINKER/LOCATER V6.22.2.0                                                  08/04/2022  14:17:00  PAGE 114


  C:5366H         LINE#         445
  C:5366H         LINE#         446
  C:5375H         LINE#         447
  C:5375H         LINE#         448
  C:537EH         LINE#         449
  C:537EH         LINE#         450
  C:537EH         LINE#         451
  C:537EH         LINE#         452
  C:5380H         LINE#         453
  C:5393H         LINE#         454
  C:5393H         LINE#         455
  C:5396H         LINE#         456
  C:53A3H         LINE#         457
  C:53A5H         LINE#         458
  C:53A8H         LINE#         459
  C:53A8H         LINE#         461
  C:53A8H         LINE#         462
  C:53A8H         LINE#         463
  C:53AEH         LINE#         464
  C:53B3H         LINE#         465
  C:53B6H         LINE#         466
  C:53C0H         LINE#         467
  C:53C0H         LINE#         468
  C:53C0H         LINE#         469
  C:53C5H         LINE#         470
  C:53D2H         LINE#         471
  C:53E5H         LINE#         472
  C:53E5H         LINE#         473
  C:53EBH         LINE#         474
  C:53FAH         LINE#         475
  C:53FCH         LINE#         476
  C:53FCH         LINE#         477
  C:53FCH         LINE#         478
  C:53FFH         LINE#         479
  C:5402H         LINE#         481
  C:5402H         LINE#         482
  C:5402H         LINE#         483
  C:540AH         LINE#         484
  C:540AH         LINE#         485
  C:5414H         LINE#         486
  C:5414H         LINE#         487
  C:5414H         LINE#         488
  C:541DH         LINE#         489
  C:541DH         LINE#         490
  C:5420H         LINE#         491
  C:5437H         LINE#         492
  C:5439H         LINE#         497
  C:5439H         LINE#         498
  C:5439H         LINE#         499
  C:5439H         LINE#         500
  C:543EH         LINE#         501
  C:5440H         LINE#         502
  C:544DH         LINE#         503
  C:545DH         LINE#         504
  C:545DH         LINE#         505
  C:5463H         LINE#         506
  C:5472H         LINE#         507
BL51 BANKED LINKER/LOCATER V6.22.2.0                                                  08/04/2022  14:17:00  PAGE 115


  C:5474H         LINE#         508
  C:5474H         LINE#         509
  C:5474H         LINE#         510
  C:5474H         LINE#         511
  C:547BH         LINE#         512
  C:547BH         LINE#         513
  C:547EH         LINE#         515
  C:547EH         LINE#         517
  C:548EH         LINE#         518
  C:548EH         LINE#         519
  C:5494H         LINE#         520
  C:5494H         LINE#         521
  C:5494H         LINE#         522
  C:549DH         LINE#         523
  C:549DH         LINE#         524
  C:54B4H         LINE#         525
  C:54C6H         LINE#         526
  C:54CCH         LINE#         527
  C:54CCH         LINE#         528
  C:54D6H         LINE#         529
  C:54D6H         LINE#         530
  C:54DAH         LINE#         531
  C:54DAH         LINE#         532
  C:54DAH         LINE#         533
  C:54DAH         LINE#         534
  C:54DAH         LINE#         535
  C:54F3H         LINE#         536
  -------         ENDPROC       _CARDDELETEKEY
  -------         PROC          DELETEALLCARDCON
  C:95F1H         LINE#         538
  C:95F1H         LINE#         539
  C:95F1H         LINE#         540
  C:95F7H         LINE#         541
  C:95FAH         LINE#         542
  -------         ENDPROC       DELETEALLCARDCON
  -------         PROC          _CARDDELALLKEY
  D:0007H         SYMBOL        key
  C:9556H         LINE#         544
  C:9556H         LINE#         545
  C:9556H         LINE#         546
  C:9563H         LINE#         547
  C:9563H         LINE#         548
  C:9563H         LINE#         549
  C:9566H         LINE#         550
  C:9569H         LINE#         551
  C:9569H         LINE#         552
  C:9569H         LINE#         553
  C:9569H         LINE#         554
  C:956CH         LINE#         555
  C:956CH         LINE#         556
  C:956CH         LINE#         557
  -------         ENDPROC       _CARDDELALLKEY
  -------         PROC          CARDSETCON
  -------         DO            
  X:1078H         SYMBOL        Disbuf
  -------         ENDDO         
  C:83B1H         LINE#         559
BL51 BANKED LINKER/LOCATER V6.22.2.0                                                  08/04/2022  14:17:00  PAGE 116


  C:83B1H         LINE#         560
  C:83B1H         LINE#         563
  C:83B7H         LINE#         564
  C:83BAH         LINE#         565
  C:83C6H         LINE#         566
  C:83D3H         LINE#         567
  C:83E0H         LINE#         568
  C:83EDH         LINE#         569
  C:8413H         LINE#         573
  -------         ENDPROC       CARDSETCON
  -------         PROC          _CARDSETKEY
  D:0007H         SYMBOL        key
  C:9338H         LINE#         577
  C:9338H         LINE#         578
  C:9338H         LINE#         579
  C:934CH         LINE#         580
  C:934CH         LINE#         581
  C:934CH         LINE#         582
  C:934FH         LINE#         583
  C:934FH         LINE#         584
  C:934FH         LINE#         585
  C:9352H         LINE#         586
  C:9352H         LINE#         587
  C:9352H         LINE#         588
  C:9355H         LINE#         589
  C:9355H         LINE#         590
  C:9355H         LINE#         591
  C:9355H         LINE#         592
  C:9358H         LINE#         593
  C:9358H         LINE#         594
  C:9358H         LINE#         595
  -------         ENDPROC       _CARDSETKEY
  -------         ENDMOD        CARD

  -------         MODULE        CARDREAD
  C:0000H         SYMBOL        _ICE_DUMMY_
  D:0080H         PUBLIC        P0
  D:0090H         PUBLIC        P1
  D:00A0H         PUBLIC        P2
  D:00B0H         PUBLIC        P3
  D:00C0H         PUBLIC        P4
  D:00C8H         PUBLIC        P5
  B:0022H.0       PUBLIC        errflg
  D:00E8H         PUBLIC        P6
  D:00F8H         PUBLIC        P7
  D:00A8H         PUBLIC        IE
  C:9460H         PUBLIC        CardReadInit
  B:0022H.1       PUBLIC        CardReadOK
  D:00B8H         PUBLIC        IP
  X:12F9H         PUBLIC        CodeOld
  X:12FDH         PUBLIC        RfidCardBuf
  D:00D8H         PUBLIC        CCON
  X:1311H         PUBLIC        CodeCheckTs
  X:1312H         PUBLIC        CardRaw
  X:133AH         PUBLIC        CardCh
  X:133CH         PUBLIC        CardBitCount
  C:6B55H         PUBLIC        CardIrq
BL51 BANKED LINKER/LOCATER V6.22.2.0                                                  08/04/2022  14:17:00  PAGE 117


  D:0098H         PUBLIC        SCON
  X:133DH         PUBLIC        CodeIn
  X:1341H         PUBLIC        CardChCount
  B:00B0H.2       PUBLIC        P32
  D:0088H         PUBLIC        TCON
  X:1342H         PUBLIC        CardGetBit
  D:00F0H         PUBLIC        B
  X:1343H         PUBLIC        CardRt
  X:1344H         PUBLIC        CardInTime
  D:00E0H         PUBLIC        ACC
  C:8C30H         PUBLIC        CardMsTask
  B:0022H.2       PUBLIC        CardGetOk
  C:1362H         PUBLIC        CheckRfidCard
  X:1346H         PUBLIC        CardCode
  D:00D0H         PUBLIC        PSW
  -------         PROC          CARDREADINIT
  C:9460H         LINE#         21
  C:9460H         LINE#         22
  C:9460H         LINE#         23
  C:9465H         LINE#         24
  C:9469H         LINE#         25
  C:946FH         LINE#         26
  C:9471H         LINE#         27
  C:9475H         LINE#         28
  C:9477H         LINE#         29
  C:9479H         LINE#         30
  -------         ENDPROC       CARDREADINIT
  -------         PROC          CARDMSTASK
  C:8C30H         LINE#         32
  C:8C30H         LINE#         33
  C:8C30H         LINE#         34
  C:8C3AH         LINE#         35
  C:8C3AH         LINE#         36
  C:8C48H         LINE#         37
  C:8C48H         LINE#         38
  C:8C52H         LINE#         39
  C:8C57H         LINE#         40
  C:8C61H         LINE#         41
  C:8C61H         LINE#         42
  C:8C61H         LINE#         43
  -------         ENDPROC       CARDMSTASK
  -------         PROC          CHECKRFIDCARD
  -------         DO            
  X:1074H         SYMBOL        i
  X:1075H         SYMBOL        n
  X:1076H         SYMBOL        k
  X:1077H         SYMBOL        j
  X:1078H         SYMBOL        num
  D:0007H         SYMBOL        tmp
  D:0006H         SYMBOL        chk
  -------         ENDDO         
  C:1362H         LINE#         348
  C:1362H         LINE#         349
  C:1362H         LINE#         351
  C:1367H         LINE#         356
  C:1371H         LINE#         362
  C:1376H         LINE#         363
BL51 BANKED LINKER/LOCATER V6.22.2.0                                                  08/04/2022  14:17:00  PAGE 118


  C:138BH         LINE#         364
  C:138BH         LINE#         365
  C:138EH         LINE#         366
  C:139BH         LINE#         367
  C:139DH         LINE#         368
  C:13A9H         LINE#         369
  C:13A9H         LINE#         371
  C:13A9H         LINE#         372
  C:13ACH         LINE#         373
  C:13BEH         LINE#         374
  C:13BEH         LINE#         375
  C:140BH         LINE#         376
  C:143FH         LINE#         377
  C:1448H         LINE#         379
  C:145AH         LINE#         380
  C:145AH         LINE#         381
  C:145CH         LINE#         383
  C:1470H         LINE#         384
  C:1470H         LINE#         385
  C:1476H         LINE#         386
  C:1476H         LINE#         387
  C:149AH         LINE#         388
  C:14D4H         LINE#         389
  C:14DDH         LINE#         390
  C:14E8H         LINE#         391
  C:14EEH         LINE#         392
  C:14EEH         LINE#         394
  C:1500H         LINE#         395
  C:1512H         LINE#         396
  C:1525H         LINE#         397
  C:152EH         LINE#         399
  C:153FH         LINE#         400
  C:1551H         LINE#         401
  C:156AH         LINE#         402
  C:1575H         LINE#         404
  C:1584H         LINE#         405
  C:1589H         LINE#         406
  C:15A0H         LINE#         407
  C:15ACH         LINE#         408
  C:15BAH         LINE#         411
  C:15CCH         LINE#         412
  C:15CCH         LINE#         413
  C:15DCH         LINE#         414
  C:15E2H         LINE#         415
  C:15E2H         LINE#         416
  C:15E6H         LINE#         417
  C:15E6H         LINE#         418
  C:15E7H         LINE#         419
  C:15E7H         LINE#         420
  C:15EBH         LINE#         421
  C:15F5H         LINE#         423
  C:15F9H         LINE#         426
  C:1600H         LINE#         427
  C:1600H         LINE#         428
  C:161FH         LINE#         429
  C:1621H         LINE#         431
  C:1621H         LINE#         432
BL51 BANKED LINKER/LOCATER V6.22.2.0                                                  08/04/2022  14:17:00  PAGE 119


  C:164EH         LINE#         433
  C:164EH         LINE#         435
  C:1668H         LINE#         436
  C:1668H         LINE#         437
  C:166AH         LINE#         438
  C:166CH         LINE#         439
  C:166CH         LINE#         440
  C:1675H         LINE#         441
  C:167BH         LINE#         442
  C:167BH         LINE#         443
  C:168AH         LINE#         444
  C:16A3H         LINE#         445
  C:16C5H         LINE#         446
  C:16DEH         LINE#         447
  C:1700H         LINE#         448
  C:1719H         LINE#         449
  C:173BH         LINE#         451
  C:1793H         LINE#         452
  C:1793H         LINE#         453
  C:17A0H         LINE#         454
  C:17A0H         LINE#         455
  C:17A2H         LINE#         456
  C:17A4H         LINE#         457
  C:17B8H         LINE#         458
  C:17DAH         LINE#         459
  C:17E3H         LINE#         460
  C:17F6H         LINE#         461
  C:17F6H         LINE#         462
  C:180EH         LINE#         463
  C:1816H         LINE#         464
  C:181FH         LINE#         466
  C:181FH         LINE#         467
  C:181FH         LINE#         469
  C:181FH         LINE#         470
  C:1833H         LINE#         471
  C:1838H         LINE#         472
  C:1839H         LINE#         474
  C:1839H         LINE#         475
  C:1842H         LINE#         476
  -------         ENDPROC       CHECKRFIDCARD
  -------         PROC          CARDIRQ
  C:6B55H         LINE#         478
  C:6B55H         LINE#         479
  C:6B55H         LINE#         481
  C:6B5BH         LINE#         482
  C:6B5BH         LINE#         484
  C:6B5BH         LINE#         486
  C:6B6DH         LINE#         487
  C:6B6DH         LINE#         488
  C:6B73H         LINE#         489
  C:6B82H         LINE#         491
  C:6B82H         LINE#         492
  C:6B82H         LINE#         493
  C:6B85H         LINE#         495
  C:6B85H         LINE#         497
  C:6B95H         LINE#         498
  C:6B95H         LINE#         499
BL51 BANKED LINKER/LOCATER V6.22.2.0                                                  08/04/2022  14:17:00  PAGE 120


  C:6BA2H         LINE#         500
  C:6BA5H         LINE#         501
  C:6BA5H         LINE#         502
  C:6BAAH         LINE#         503
  C:6BAAH         LINE#         504
  C:6BB7H         LINE#         505
  C:6BB7H         LINE#         506
  C:6BB8H         LINE#         507
  C:6BD8H         LINE#         508
  C:6BE4H         LINE#         509
  C:6BE4H         LINE#         510
  C:6BE6H         LINE#         511
  C:6BE6H         LINE#         512
  C:6BE6H         LINE#         513
  C:6BE6H         LINE#         514
  C:6BE7H         LINE#         515
  C:6BF6H         LINE#         516
  C:6BF6H         LINE#         517
  C:6BFEH         LINE#         518
  C:6BFEH         LINE#         519
  C:6BFFH         LINE#         520
  C:6C01H         LINE#         522
  C:6C01H         LINE#         524
  C:6C08H         LINE#         525
  C:6C0CH         LINE#         526
  C:6C0CH         LINE#         527
  C:6C19H         LINE#         528
  C:6C1CH         LINE#         529
  C:6C1CH         LINE#         530
  C:6C21H         LINE#         531
  C:6C21H         LINE#         532
  C:6C2AH         LINE#         533
  C:6C2AH         LINE#         534
  C:6C2CH         LINE#         535
  C:6C4CH         LINE#         536
  C:6C55H         LINE#         537
  C:6C55H         LINE#         538
  C:6C57H         LINE#         539
  C:6C57H         LINE#         540
  C:6C57H         LINE#         541
  C:6C57H         LINE#         542
  C:6C58H         LINE#         544
  C:6C58H         LINE#         545
  C:6C5DH         LINE#         546
  C:6C61H         LINE#         547
  C:6C61H         LINE#         548
  -------         ENDPROC       CARDIRQ
  -------         ENDMOD        CARDREAD

  -------         MODULE        AUDIO
  C:0000H         SYMBOL        _ICE_DUMMY_
  D:0080H         PUBLIC        P0
  D:0090H         PUBLIC        P1
  D:00A0H         PUBLIC        P2
  D:00B0H         PUBLIC        P3
  D:00C0H         PUBLIC        P4
  X:0000H         PUBLIC        PlyN
BL51 BANKED LINKER/LOCATER V6.22.2.0                                                  08/04/2022  14:17:00  PAGE 121


  D:00C8H         PUBLIC        P5
  D:00E8H         PUBLIC        P6
  D:00F8H         PUBLIC        P7
  C:7F37H         PUBLIC        _Beep_StartPlay
  D:00FEH         PUBLIC        PWMCR
  D:00BAH         PUBLIC        P_SW2
  D:00A8H         PUBLIC        IE
  X:0001H         SYMBOL        Midx
  D:00B8H         PUBLIC        IP
  D:00D8H         PUBLIC        CCON
  C:809FH         PUBLIC        PWMtask
  C:8B2CH         PUBLIC        WavCode
  B:0022H.3       PUBLIC        WavNeedRead
  X:0002H         PUBLIC        WavFileAddr
  B:0080H.0       PUBLIC        P00
  X:0006H         PUBLIC        WavFile
  D:0098H         PUBLIC        SCON
  D:0088H         PUBLIC        TCON
  B:00E8H.2       PUBLIC        P62
  X:0086H         PUBLIC        PwmTimer
  B:00F8H.4       PUBLIC        P74
  C:898AH         PUBLIC        KeyBeepTask
  D:00F0H         PUBLIC        B
  C:59D8H         PUBLIC        WavReadTask
  C:8F34H         PUBLIC        SPI_config
  D:00E0H         PUBLIC        ACC
  X:0087H         PUBLIC        WavBuf
  B:0022H.4       PUBLIC        AudioPlaying
  C:8F85H         PUBLIC        PWM_config
  X:0887H         PUBLIC        WavFileLen
  X:088BH         PUBLIC        WavReadIdx
  C:8D81H         PUBLIC        MP3_Stop
  C:7965H         PUBLIC        _MP3_StartPlay
  X:088FH         PUBLIC        BeepPlyIdx
  X:0890H         SYMBOL        PlyIdx
  D:00D1H         PUBLIC        T4T3M
  X:0892H         PUBLIC        WavBufLen
  B:0022H.5       PUBLIC        KeyBeepO
  D:00D0H         PUBLIC        PSW
  -------         PROC          SPI_CONFIG
  -------         DO            
  X:1074H         SYMBOL        SPI_InitStructure
  -------         ENDDO         
  C:8F34H         LINE#         125
  C:8F34H         LINE#         126
  C:8F34H         LINE#         128
  C:8F3AH         LINE#         129
  C:8F3DH         LINE#         130
  C:8F3FH         LINE#         131
  C:8F42H         LINE#         132
  C:8F45H         LINE#         133
  C:8F48H         LINE#         134
  C:8F4AH         LINE#         135
  C:8F4DH         LINE#         136
  C:8F51H         LINE#         137
  C:8F5AH         LINE#         139
  C:8F5CH         LINE#         140
BL51 BANKED LINKER/LOCATER V6.22.2.0                                                  08/04/2022  14:17:00  PAGE 122


  -------         ENDPROC       SPI_CONFIG
  -------         PROC          PWM_CONFIG
  C:8F85H         LINE#         151
  C:8F85H         LINE#         152
  C:8F85H         LINE#         153
  C:8F88H         LINE#         154
  C:8F8DH         LINE#         155
  C:8F95H         LINE#         156
  C:8F9CH         LINE#         157
  C:8FA2H         LINE#         158
  C:8FA6H         LINE#         159
  C:8FA9H         LINE#         160
  C:8FACH         LINE#         161
  -------         ENDPROC       PWM_CONFIG
  -------         PROC          WAVREADTASK
  -------         DO            
  X:1123H         SYMBOL        midx
  -------         ENDDO         
  C:59D8H         LINE#         226
  C:59D8H         LINE#         227
  C:59D8H         LINE#         230
  C:59DEH         LINE#         231
  C:59DEH         LINE#         232
  C:59E0H         LINE#         233
  C:59EDH         LINE#         234
  C:5A26H         LINE#         235
  C:5A26H         LINE#         236
  C:5A29H         LINE#         238
  C:5A29H         LINE#         239
  C:5A5CH         LINE#         240
  C:5A5CH         LINE#         241
  C:5A71H         LINE#         242
  C:5A91H         LINE#         243
  C:5A93H         LINE#         245
  C:5A93H         LINE#         246
  C:5AC2H         LINE#         247
  C:5ACCH         LINE#         248
  C:5AF3H         LINE#         249
  C:5AF3H         LINE#         250
  C:5AF5H         LINE#         251
  C:5AF5H         LINE#         253
  C:5AF5H         LINE#         254
  C:5B5AH         LINE#         260
  C:5B5AH         LINE#         261
  -------         ENDPROC       WAVREADTASK
  -------         PROC          PWMTASK
  C:809FH         LINE#         263
  C:809FH         LINE#         264
  C:809FH         LINE#         266
  C:80C1H         LINE#         267
  C:80C1H         LINE#         268
  C:80C4H         LINE#         274
  C:80FEH         LINE#         275
  C:8101H         LINE#         276
  C:8102H         LINE#         278
  C:8102H         LINE#         279
  C:8109H         LINE#         280
BL51 BANKED LINKER/LOCATER V6.22.2.0                                                  08/04/2022  14:17:00  PAGE 123


  C:8113H         LINE#         281
  C:8115H         LINE#         282
  C:8115H         LINE#         283
  -------         ENDPROC       PWMTASK
  -------         PROC          _MP3_STARTPLAY
  X:10C8H         SYMBOL        idx
  C:7965H         LINE#         285
  C:796AH         LINE#         286
  C:796AH         LINE#         287
  C:7973H         LINE#         288
  C:7973H         LINE#         290
  C:7973H         LINE#         292
  C:7976H         LINE#         293
  C:7978H         LINE#         294
  C:797FH         LINE#         295
  C:79A2H         LINE#         296
  C:79C1H         LINE#         298
  C:79C8H         LINE#         299
  C:79D2H         LINE#         300
  C:79D9H         LINE#         301
  C:79DDH         LINE#         303
  C:79E2H         LINE#         304
  C:79E4H         LINE#         305
  C:79E7H         LINE#         307
  C:79ECH         LINE#         308
  C:79EEH         LINE#         309
  C:79F1H         LINE#         311
  C:79F4H         LINE#         312
  C:79F7H         LINE#         313
  C:79F9H         LINE#         314
  -------         ENDPROC       _MP3_STARTPLAY
  -------         PROC          MP3_STOP
  C:8D81H         LINE#         315
  C:8D81H         LINE#         316
  C:8D81H         LINE#         317
  C:8DA8H         LINE#         318
  C:8DA8H         LINE#         319
  C:8DAAH         LINE#         320
  C:8DAAH         LINE#         321
  C:8DACH         LINE#         323
  C:8DAFH         LINE#         324
  -------         ENDPROC       MP3_STOP
  -------         PROC          _BEEP_STARTPLAY
  D:0007H         SYMBOL        idx
  C:7F37H         LINE#         341
  C:7F37H         LINE#         342
  C:7F37H         LINE#         343
  C:7F7AH         LINE#         344
  C:7F7AH         LINE#         345
  C:7F7AH         LINE#         346
  C:7F7AH         LINE#         347
  C:7F7AH         LINE#         348
  C:7F80H         LINE#         349
  C:7F82H         LINE#         350
  C:7F82H         LINE#         351
  C:7F87H         LINE#         352
  C:7F89H         LINE#         353
BL51 BANKED LINKER/LOCATER V6.22.2.0                                                  08/04/2022  14:17:00  PAGE 124


  C:7F89H         LINE#         354
  C:7F8FH         LINE#         355
  C:7F91H         LINE#         356
  C:7F91H         LINE#         357
  C:7F91H         LINE#         358
  C:7F91H         LINE#         359
  C:7F91H         LINE#         360
  C:7F97H         LINE#         361
  C:7F99H         LINE#         362
  C:7F99H         LINE#         363
  C:7F99H         LINE#         364
  C:7F9FH         LINE#         365
  C:7F9FH         LINE#         366
  C:7F9FH         LINE#         368
  C:7FA4H         LINE#         369
  C:7FAAH         LINE#         370
  C:7FADH         LINE#         371
  C:7FAFH         LINE#         372
  -------         ENDPROC       _BEEP_STARTPLAY
  -------         PROC          KEYBEEPTASK
  C:898AH         LINE#         374
  C:898AH         LINE#         375
  C:898AH         LINE#         376
  C:8992H         LINE#         377
  C:8992H         LINE#         378
  C:899BH         LINE#         379
  C:899BH         LINE#         380
  C:899DH         LINE#         381
  C:89B6H         LINE#         382
  C:89B6H         LINE#         383
  C:89BCH         LINE#         384
  C:89BEH         LINE#         385
  C:89C1H         LINE#         387
  C:89C1H         LINE#         388
  C:89C3H         LINE#         389
  C:89C9H         LINE#         390
  C:89C9H         LINE#         391
  C:89C9H         LINE#         392
  -------         ENDPROC       KEYBEEPTASK
  -------         ENDMOD        AUDIO

  -------         MODULE        UART
  C:0000H         SYMBOL        _ICE_DUMMY_
  C:1CCDH         PUBLIC        _UART_Configuration
  D:0080H         PUBLIC        P0
  D:0090H         PUBLIC        P1
  D:00A0H         PUBLIC        P2
  D:00B0H         PUBLIC        P3
  D:00C0H         PUBLIC        P4
  D:00C8H         PUBLIC        P5
  D:00E8H         PUBLIC        P6
  D:00F8H         PUBLIC        P7
  D:00A2H         PUBLIC        P_SW1
  D:00BAH         PUBLIC        P_SW2
  D:00A8H         PUBLIC        IE
  X:0C9CH         PUBLIC        COM1
  X:0CA4H         PUBLIC        COM3
BL51 BANKED LINKER/LOCATER V6.22.2.0                                                  08/04/2022  14:17:00  PAGE 125


  D:00EEH         PUBLIC        IP3H
  B:00A8H.4       PUBLIC        ES
  D:00B8H         PUBLIC        IP
  X:0CACH         PUBLIC        RX1_Buffer
  B:0098H.0       PUBLIC        RI
  C:79FAH         PUBLIC        UART1_int
  X:0EACH         PUBLIC        RX3_Buffer
  X:0F2CH         PUBLIC        TX1_Buffer
  B:0098H.1       PUBLIC        TI
  C:779AH         PUBLIC        UART3_int
  X:0FF4H         PUBLIC        TX3_Buffer
  B:00B8H.4       PUBLIC        PS
  D:00D8H         PUBLIC        CCON
  D:0099H         PUBLIC        SBUF
  D:0087H         PUBLIC        PCON
  C:88BCH         PUBLIC        UartTask
  D:0098H         PUBLIC        SCON
  D:0089H         PUBLIC        TMOD
  D:0088H         PUBLIC        TCON
  C:94DEH         PUBLIC        Uart1Clear
  C:94F7H         PUBLIC        Uart3Clear
  C:8BCBH         PUBLIC        _PrintString3
  D:00AFH         PUBLIC        IE2
  D:00F0H         PUBLIC        B
  D:008EH         PUBLIC        AUXR
  C:8FFCH         PUBLIC        _TX1_write2buff
  C:8FADH         PUBLIC        _TX3_write2buff
  D:00E0H         PUBLIC        ACC
  B:00A8H.3       PUBLIC        ET1
  D:00DFH         PUBLIC        IP3
  D:008DH         PUBLIC        TH1
  D:00D6H         PUBLIC        TH2
  D:00D4H         PUBLIC        TH3
  D:008BH         PUBLIC        TL1
  D:00D7H         PUBLIC        TL2
  D:00D5H         PUBLIC        TL3
  B:0088H.6       PUBLIC        TR1
  D:00D1H         PUBLIC        T4T3M
  D:00B7H         PUBLIC        IPH
  D:00ADH         PUBLIC        S3BUF
  B:0098H.4       PUBLIC        REN
  D:00ACH         PUBLIC        S3CON
  D:008FH         PUBLIC        INT_CLKO
  D:00D0H         PUBLIC        PSW
  -------         PROC          _UART_CONFIGURATION
  X:1080H         SYMBOL        UARTx
  X:1081H         SYMBOL        COMx
  -------         DO            
  X:1084H         SYMBOL        i
  X:1086H         SYMBOL        j
  -------         ENDDO         
  C:1CCDH         LINE#         26
  C:1CDDH         LINE#         27
  C:1CDDH         LINE#         32
  C:1CE4H         LINE#         33
  C:1CE4H         LINE#         34
  C:1CE9H         LINE#         35
BL51 BANKED LINKER/LOCATER V6.22.2.0                                                  08/04/2022  14:17:00  PAGE 126


  C:1CECH         LINE#         36
  C:1CEEH         LINE#         37
  C:1CF0H         LINE#         38
  C:1CF4H         LINE#         39
  C:1CF6H         LINE#         40
  C:1CF8H         LINE#         41
  C:1D2AH         LINE#         42
  C:1D5BH         LINE#         44
  C:1D75H         LINE#         45
  C:1DA3H         LINE#         46
  C:1DAEH         LINE#         47
  C:1DB9H         LINE#         48
  C:1DC6H         LINE#         49
  C:1DC6H         LINE#         50
  C:1DDDH         LINE#         51
  C:1DFAH         LINE#         52
  C:1E1CH         LINE#         53
  C:1E32H         LINE#         54
  C:1E32H         LINE#         55
  C:1E34H         LINE#         56
  C:1E37H         LINE#         57
  C:1E3AH         LINE#         58
  C:1E3DH         LINE#         59
  C:1E40H         LINE#         60
  C:1E55H         LINE#         61
  C:1E5EH         LINE#         62
  C:1E60H         LINE#         63
  C:1E63H         LINE#         64
  C:1E66H         LINE#         65
  C:1E68H         LINE#         66
  C:1E6AH         LINE#         67
  C:1E6FH         LINE#         68
  C:1E6FH         LINE#         69
  C:1E72H         LINE#         70
  C:1E75H         LINE#         71
  C:1E78H         LINE#         72
  C:1E7BH         LINE#         73
  C:1E90H         LINE#         74
  C:1E99H         LINE#         75
  C:1E9CH         LINE#         76
  C:1E9FH         LINE#         77
  C:1EA1H         LINE#         78
  C:1EA4H         LINE#         79
  C:1EA4H         LINE#         80
  C:1EB5H         LINE#         81
  C:1EB5H         LINE#         82
  C:1EC3H         LINE#         83
  C:1EC6H         LINE#         84
  C:1EC8H         LINE#         85
  C:1ECCH         LINE#         86
  C:1ECCH         LINE#         87
  C:1EDAH         LINE#         88
  C:1EDDH         LINE#         89
  C:1EDDH         LINE#         90
  C:1EF5H         LINE#         91
  C:1EF7H         LINE#         92
  C:1F04H         LINE#         93
BL51 BANKED LINKER/LOCATER V6.22.2.0                                                  08/04/2022  14:17:00  PAGE 127


  C:1F06H         LINE#         94
  C:1F16H         LINE#         95
  C:1F19H         LINE#         96
  C:1F19H         LINE#         138
  C:1F24H         LINE#         139
  C:1F24H         LINE#         140
  C:1F2AH         LINE#         141
  C:1F2DH         LINE#         142
  C:1F2FH         LINE#         143
  C:1F31H         LINE#         144
  C:1F35H         LINE#         145
  C:1F37H         LINE#         146
  C:1F39H         LINE#         147
  C:1F6BH         LINE#         148
  C:1F9EH         LINE#         150
  C:1FB9H         LINE#         151
  C:1FB9H         LINE#         152
  C:1FC8H         LINE#         153
  C:1FFAH         LINE#         154
  C:2005H         LINE#         155
  C:2008H         LINE#         156
  C:201FH         LINE#         157
  C:203CH         LINE#         158
  C:205EH         LINE#         159
  C:2073H         LINE#         160
  C:2073H         LINE#         161
  C:2076H         LINE#         162
  C:208BH         LINE#         163
  C:2094H         LINE#         164
  C:2097H         LINE#         165
  C:2099H         LINE#         166
  C:209EH         LINE#         167
  C:209EH         LINE#         168
  C:20A1H         LINE#         169
  C:20A4H         LINE#         170
  C:20A7H         LINE#         171
  C:20AAH         LINE#         172
  C:20BFH         LINE#         173
  C:20C8H         LINE#         174
  C:20CBH         LINE#         175
  C:20CEH         LINE#         176
  C:20D0H         LINE#         177
  C:20D3H         LINE#         178
  C:20D3H         LINE#         179
  C:20D6H         LINE#         180
  C:20EFH         LINE#         181
  C:20F2H         LINE#         182
  C:2100H         LINE#         183
  C:2103H         LINE#         184
  C:2113H         LINE#         185
  C:2116H         LINE#         186
  C:2116H         LINE#         239
  C:2118H         LINE#         240
  -------         ENDPROC       _UART_CONFIGURATION
  -------         PROC          _TX1_WRITE2BUFF
  D:0007H         SYMBOL        dat
  C:8FFCH         LINE#         246
BL51 BANKED LINKER/LOCATER V6.22.2.0                                                  08/04/2022  14:17:00  PAGE 128


  C:8FFCH         LINE#         247
  C:8FFCH         LINE#         248
  C:900BH         LINE#         249
  C:9018H         LINE#         251
  C:901EH         LINE#         252
  C:901EH         LINE#         253
  C:9020H         LINE#         254
  C:9022H         LINE#         255
  C:9022H         LINE#         256
  -------         ENDPROC       _TX1_WRITE2BUFF
  -------         PROC          UART1_INT
  C:79FAH         LINE#         263
  C:7A0DH         LINE#         265
  C:7A10H         LINE#         266
  C:7A10H         LINE#         267
  C:7A12H         LINE#         268
  C:7A18H         LINE#         269
  C:7A18H         LINE#         270
  C:7A25H         LINE#         271
  C:7A3EH         LINE#         272
  C:7A44H         LINE#         273
  C:7A44H         LINE#         274
  C:7A44H         LINE#         276
  C:7A47H         LINE#         277
  C:7A47H         LINE#         278
  C:7A49H         LINE#         279
  C:7A56H         LINE#         280
  C:7A56H         LINE#         281
  C:7A63H         LINE#         282
  C:7A70H         LINE#         283
  C:7A72H         LINE#         284
  C:7A77H         LINE#         285
  C:7A77H         LINE#         286
  -------         ENDPROC       UART1_INT
  -------         PROC          UART1CLEAR
  C:94DEH         LINE#         288
  C:94DEH         LINE#         289
  C:94DEH         LINE#         290
  C:94EBH         LINE#         291
  C:94F0H         LINE#         292
  C:94F6H         LINE#         293
  -------         ENDPROC       UART1CLEAR
  -------         PROC          _TX3_WRITE2BUFF
  D:0007H         SYMBOL        dat
  C:8FADH         LINE#         343
  C:8FADH         LINE#         344
  C:8FADH         LINE#         345
  C:8FBCH         LINE#         346
  C:8FC9H         LINE#         348
  C:8FCFH         LINE#         349
  C:8FCFH         LINE#         350
  C:8FD1H         LINE#         351
  C:8FD4H         LINE#         352
  C:8FD4H         LINE#         353
  -------         ENDPROC       _TX3_WRITE2BUFF
  -------         PROC          _PRINTSTRING3
  X:10AFH         SYMBOL        puts
BL51 BANKED LINKER/LOCATER V6.22.2.0                                                  08/04/2022  14:17:00  PAGE 129


  C:8BCBH         LINE#         355
  C:8BD6H         LINE#         356
  C:8BD6H         LINE#         357
  C:8BE6H         LINE#         358
  C:8BE6H         LINE#         359
  C:8BFBH         LINE#         360
  C:8BFDH         LINE#         361
  -------         ENDPROC       _PRINTSTRING3
  -------         PROC          UART3_INT
  C:779AH         LINE#         363
  C:77ADH         LINE#         365
  C:77B2H         LINE#         366
  C:77B2H         LINE#         367
  C:77B5H         LINE#         368
  C:77BBH         LINE#         369
  C:77BBH         LINE#         370
  C:77CEH         LINE#         371
  C:77E7H         LINE#         372
  C:77EDH         LINE#         377
  C:77EDH         LINE#         378
  C:77EDH         LINE#         380
  C:77F2H         LINE#         381
  C:77F2H         LINE#         382
  C:77F5H         LINE#         383
  C:7802H         LINE#         384
  C:7802H         LINE#         385
  C:780FH         LINE#         386
  C:781CH         LINE#         387
  C:781EH         LINE#         388
  C:7823H         LINE#         389
  C:7823H         LINE#         390
  -------         ENDPROC       UART3_INT
  -------         PROC          UART3CLEAR
  C:94F7H         LINE#         392
  C:94F7H         LINE#         393
  C:94F7H         LINE#         394
  C:9504H         LINE#         395
  C:9509H         LINE#         396
  C:950FH         LINE#         397
  -------         ENDPROC       UART3CLEAR
  -------         PROC          UARTTASK
  C:88BCH         LINE#         463
  C:88BCH         LINE#         464
  C:88BCH         LINE#         466
  C:88C2H         LINE#         467
  C:88C2H         LINE#         468
  C:88C6H         LINE#         469
  C:88C6H         LINE#         470
  C:88D5H         LINE#         471
  C:88D5H         LINE#         472
  C:88DBH         LINE#         473
  C:88DDH         LINE#         475
  C:88DDH         LINE#         476
  C:88E0H         LINE#         477
  C:88E0H         LINE#         478
  C:88E0H         LINE#         479
  C:88E0H         LINE#         482
BL51 BANKED LINKER/LOCATER V6.22.2.0                                                  08/04/2022  14:17:00  PAGE 130


  C:88E6H         LINE#         483
  C:88E6H         LINE#         484
  C:88EAH         LINE#         485
  C:88EAH         LINE#         486
  C:88F9H         LINE#         487
  C:88F9H         LINE#         488
  C:88FFH         LINE#         489
  C:8900H         LINE#         491
  C:8900H         LINE#         492
  C:8903H         LINE#         493
  C:8903H         LINE#         494
  C:8903H         LINE#         495
  C:8903H         LINE#         513
  -------         ENDPROC       UARTTASK
  -------         ENDMOD        UART

  -------         MODULE        TIMER
  C:0000H         SYMBOL        _ICE_DUMMY_
  D:0080H         PUBLIC        P0
  D:0090H         PUBLIC        P1
  C:004EH         PUBLIC        timer0_int
  D:00A0H         PUBLIC        P2
  C:8E38H         PUBLIC        timer1_int
  D:00B0H         PUBLIC        P3
  D:00C0H         PUBLIC        P4
  D:00C8H         PUBLIC        P5
  C:8A80H         PUBLIC        timer4_int
  D:00E8H         PUBLIC        P6
  D:00F8H         PUBLIC        P7
  D:00A8H         PUBLIC        IE
  D:00B8H         PUBLIC        IP
  D:00D8H         PUBLIC        CCON
  D:0098H         PUBLIC        SCON
  D:0089H         PUBLIC        TMOD
  D:0088H         PUBLIC        TCON
  B:00E8H.2       PUBLIC        P62
  C:4F7EH         PUBLIC        _Timer_Inilize
  D:00AFH         PUBLIC        IE2
  D:00F0H         PUBLIC        B
  D:008EH         PUBLIC        AUXR
  B:0023H.3       PUBLIC        Timer0_Irq
  D:00E0H         PUBLIC        ACC
  B:00A8H.1       PUBLIC        ET0
  B:00A8H.3       PUBLIC        ET1
  D:008CH         PUBLIC        TH0
  D:008DH         PUBLIC        TH1
  D:00D2H         PUBLIC        TH4
  D:008AH         PUBLIC        TL0
  D:008BH         PUBLIC        TL1
  B:00B8H.1       PUBLIC        PT0
  D:00D3H         PUBLIC        TL4
  B:00B8H.3       PUBLIC        PT1
  B:0088H.4       PUBLIC        TR0
  B:0088H.6       PUBLIC        TR1
  D:00D1H         PUBLIC        T4T3M
  D:00B7H         PUBLIC        IPH
  D:008FH         PUBLIC        INT_CLKO
BL51 BANKED LINKER/LOCATER V6.22.2.0                                                  08/04/2022  14:17:00  PAGE 131


  X:1384H         PUBLIC        usTime
  D:00D0H         PUBLIC        PSW
  -------         PROC          TIMER0_INT
  C:004EH         LINE#         9
  C:006BH         LINE#         11
  C:006DH         LINE#         13
  C:0070H         LINE#         15
  -------         ENDPROC       TIMER0_INT
  -------         PROC          TIMER1_INT
  C:8E38H         LINE#         20
  C:8E40H         LINE#         22
  C:8E46H         LINE#         27
  C:8E51H         LINE#         28
  C:8E51H         LINE#         29
  C:8E53H         LINE#         30
  C:8E5BH         LINE#         31
  C:8E5BH         LINE#         33
  -------         ENDPROC       TIMER1_INT
  -------         PROC          TIMER4_INT
  C:8A80H         LINE#         51
  C:8A9DH         LINE#         54
  C:8AA0H         LINE#         56
  -------         ENDPROC       TIMER4_INT
  -------         PROC          _TIMER_INILIZE
  D:0005H         SYMBOL        TIM
  D:0001H         SYMBOL        TIMx
  C:4F7EH         LINE#         66
  C:4F80H         LINE#         67
  C:4F80H         LINE#         69
  C:4F86H         LINE#         70
  C:4F86H         LINE#         71
  C:4F88H         LINE#         72
  C:4F95H         LINE#         73
  C:4F97H         LINE#         74
  C:4FA6H         LINE#         75
  C:4FD4H         LINE#         77
  C:4FE0H         LINE#         78
  C:4FE7H         LINE#         79
  C:4FF4H         LINE#         80
  C:4FFAH         LINE#         81
  C:5003H         LINE#         82
  C:5006H         LINE#         83
  C:5014H         LINE#         84
  C:5017H         LINE#         86
  C:5029H         LINE#         87
  C:5034H         LINE#         88
  C:5037H         LINE#         89
  C:5037H         LINE#         92
  C:503FH         LINE#         93
  C:503FH         LINE#         94
  C:5041H         LINE#         95
  C:504EH         LINE#         96
  C:5050H         LINE#         97
  C:505FH         LINE#         98
  C:508DH         LINE#         99
  C:5099H         LINE#         100
  C:50A0H         LINE#         101
BL51 BANKED LINKER/LOCATER V6.22.2.0                                                  08/04/2022  14:17:00  PAGE 132


  C:50ADH         LINE#         102
  C:50B3H         LINE#         103
  C:50BCH         LINE#         104
  C:50BFH         LINE#         105
  C:50CDH         LINE#         106
  C:50D0H         LINE#         108
  C:50E2H         LINE#         109
  C:50EDH         LINE#         110
  C:50F0H         LINE#         111
  C:50F0H         LINE#         152
  C:50F5H         LINE#         153
  C:50F5H         LINE#         154
  C:50F8H         LINE#         155
  C:5106H         LINE#         156
  C:5109H         LINE#         157
  C:5118H         LINE#         158
  C:511FH         LINE#         159
  C:512AH         LINE#         160
  C:5138H         LINE#         161
  C:513BH         LINE#         162
  C:5149H         LINE#         163
  C:514CH         LINE#         165
  C:515CH         LINE#         166
  C:5168H         LINE#         167
  C:516BH         LINE#         168
  C:516BH         LINE#         170
  C:516DH         LINE#         171
  -------         ENDPROC       _TIMER_INILIZE
  -------         ENDMOD        TIMER

  -------         MODULE        GPIO
  C:0000H         SYMBOL        _ICE_DUMMY_
  D:0093H         PUBLIC        P0M1
  D:0092H         PUBLIC        P1M0
  D:0096H         PUBLIC        P2M0
  D:0091H         PUBLIC        P1M1
  D:0080H         PUBLIC        P0
  D:00B2H         PUBLIC        P3M0
  D:0095H         PUBLIC        P2M1
  D:0090H         PUBLIC        P1
  D:00B4H         PUBLIC        P4M0
  D:00B1H         PUBLIC        P3M1
  D:00A0H         PUBLIC        P2
  D:00CAH         PUBLIC        P5M0
  D:00B3H         PUBLIC        P4M1
  D:00B0H         PUBLIC        P3
  D:00CCH         PUBLIC        P6M0
  D:00C9H         PUBLIC        P5M1
  D:00C0H         PUBLIC        P4
  D:00E2H         PUBLIC        P7M0
  D:00CBH         PUBLIC        P6M1
  D:00C8H         PUBLIC        P5
  D:00E8H         PUBLIC        P6
  D:00E1H         PUBLIC        P7M1
  D:00F8H         PUBLIC        P7
  D:00A8H         PUBLIC        IE
  D:00B8H         PUBLIC        IP
BL51 BANKED LINKER/LOCATER V6.22.2.0                                                  08/04/2022  14:17:00  PAGE 133


  D:00D8H         PUBLIC        CCON
  D:0098H         PUBLIC        SCON
  D:0088H         PUBLIC        TCON
  D:00F0H         PUBLIC        B
  D:00E0H         PUBLIC        ACC
  C:46D0H         PUBLIC        _GPIO_Inilize
  D:00D0H         PUBLIC        PSW
  D:0094H         PUBLIC        P0M0
  -------         PROC          _GPIO_INILIZE
  D:0007H         SYMBOL        GPIO
  D:0001H         SYMBOL        GPIOx
  C:46D0H         LINE#         10
  C:46D0H         LINE#         11
  C:46D0H         LINE#         12
  C:46D9H         LINE#         13
  C:46E5H         LINE#         14
  C:46E8H         LINE#         15
  C:46E8H         LINE#         16
  C:46F6H         LINE#         17
  C:4707H         LINE#         18
  C:4718H         LINE#         19
  C:4729H         LINE#         20
  C:4729H         LINE#         21
  C:472EH         LINE#         22
  C:472EH         LINE#         23
  C:473FH         LINE#         24
  C:474EH         LINE#         25
  C:475EH         LINE#         26
  C:4771H         LINE#         27
  C:4771H         LINE#         28
  C:4776H         LINE#         29
  C:4776H         LINE#         30
  C:4787H         LINE#         31
  C:4796H         LINE#         32
  C:47A6H         LINE#         33
  C:47B9H         LINE#         34
  C:47B9H         LINE#         35
  C:47BEH         LINE#         36
  C:47BEH         LINE#         37
  C:47CFH         LINE#         38
  C:47DEH         LINE#         39
  C:47EEH         LINE#         40
  C:4801H         LINE#         41
  C:4801H         LINE#         42
  C:4806H         LINE#         43
  C:4806H         LINE#         44
  C:4817H         LINE#         45
  C:4826H         LINE#         46
  C:4836H         LINE#         47
  C:4849H         LINE#         48
  C:4849H         LINE#         49
  C:484EH         LINE#         50
  C:484EH         LINE#         51
  C:485FH         LINE#         52
  C:486EH         LINE#         53
  C:487EH         LINE#         54
  C:4891H         LINE#         55
BL51 BANKED LINKER/LOCATER V6.22.2.0                                                  08/04/2022  14:17:00  PAGE 134


  C:4891H         LINE#         56
  C:4896H         LINE#         57
  C:4896H         LINE#         58
  C:48A7H         LINE#         59
  C:48B6H         LINE#         60
  C:48C6H         LINE#         61
  C:48D9H         LINE#         62
  C:48D9H         LINE#         63
  C:48DEH         LINE#         64
  C:48DEH         LINE#         65
  C:48EFH         LINE#         66
  C:48FEH         LINE#         67
  C:490EH         LINE#         68
  C:4921H         LINE#         69
  C:4921H         LINE#         70
  C:4923H         LINE#         71
  -------         ENDPROC       _GPIO_INILIZE
  -------         ENDMOD        GPIO

  -------         MODULE        EXTI
  C:0000H         SYMBOL        _ICE_DUMMY_
  D:0080H         PUBLIC        P0
  D:0090H         PUBLIC        P1
  D:00A0H         PUBLIC        P2
  D:00B0H         PUBLIC        P3
  D:00C0H         PUBLIC        P4
  D:00C8H         PUBLIC        P5
  D:00E8H         PUBLIC        P6
  D:00F8H         PUBLIC        P7
  D:00A8H         PUBLIC        IE
  D:00B8H         PUBLIC        IP
  D:00D8H         PUBLIC        CCON
  C:89CAH         PUBLIC        Ext_INT0
  D:0098H         PUBLIC        SCON
  D:0088H         PUBLIC        TCON
  B:0088H.1       PUBLIC        IE0
  D:00F0H         PUBLIC        B
  D:00E0H         PUBLIC        ACC
  B:00A8H.0       PUBLIC        EX0
  B:0088H.0       PUBLIC        IT0
  B:00B8H.0       PUBLIC        PX0
  D:00B7H         PUBLIC        IPH
  C:8629H         PUBLIC        _Ext_Inilize
  D:00D0H         PUBLIC        PSW
  -------         PROC          EXT_INT0
  C:89CAH         LINE#         8
  C:89E7H         LINE#         11
  C:89EAH         LINE#         12
  C:89EFH         LINE#         13
  -------         ENDPROC       EXT_INT0
  -------         PROC          _EXT_INILIZE
  D:0007H         SYMBOL        EXT
  D:0001H         SYMBOL        INTx
  C:8629H         LINE#         51
  C:8629H         LINE#         52
  C:8629H         LINE#         55
  C:862CH         LINE#         56
BL51 BANKED LINKER/LOCATER V6.22.2.0                                                  08/04/2022  14:17:00  PAGE 135


  C:862CH         LINE#         57
  C:862EH         LINE#         58
  C:863BH         LINE#         59
  C:863DH         LINE#         60
  C:864CH         LINE#         61
  C:867AH         LINE#         62
  C:8684H         LINE#         63
  C:8686H         LINE#         64
  C:8689H         LINE#         65
  C:8689H         LINE#         104
  C:868BH         LINE#         105
  -------         ENDPROC       _EXT_INILIZE
  -------         ENDMOD        EXTI

  -------         MODULE        SPI
  C:0000H         SYMBOL        _ICE_DUMMY_
  D:0080H         PUBLIC        P0
  D:0090H         PUBLIC        P1
  C:8873H         PUBLIC        SPI_Transivion
  D:00A0H         PUBLIC        P2
  D:00B0H         PUBLIC        P3
  D:00C0H         PUBLIC        P4
  D:00C8H         PUBLIC        P5
  D:00E8H         PUBLIC        P6
  D:00F8H         PUBLIC        P7
  D:00CEH         PUBLIC        SPCTL
  D:00A2H         PUBLIC        P_SW1
  D:00A8H         PUBLIC        IE
  B:0023H.4       PUBLIC        B_SPI_Busy
  D:00B8H         PUBLIC        IP
  C:7834H         PUBLIC        _SPI_Flash_Read
  D:00D8H         PUBLIC        CCON
  D:0098H         PUBLIC        SCON
  D:0088H         PUBLIC        TCON
  B:00F8H.4       PUBLIC        P74
  X:11CBH         PUBLIC        SPI_RxCnt
  D:00AFH         PUBLIC        IE2
  D:00F0H         PUBLIC        B
  D:00E0H         PUBLIC        ACC
  X:11CCH         PUBLIC        SPI_RxTimerOut
  D:00CDH         PUBLIC        SPSTAT
  C:78CDH         PUBLIC        _SPI_Init
  C:9456H         PUBLIC        _SPI_ReadWriteByte
  X:11CDH         PUBLIC        SPI_RxBuffer
  D:00D0H         PUBLIC        PSW
  D:00CFH         PUBLIC        SPDAT
  -------         PROC          _SPI_INIT
  D:0001H         SYMBOL        SPIx
  C:78CDH         LINE#         29
  C:78CDH         LINE#         30
  C:78CDH         LINE#         31
  C:78DBH         LINE#         32
  C:78DEH         LINE#         33
  C:78E9H         LINE#         34
  C:78ECH         LINE#         35
  C:78FAH         LINE#         36
  C:78FDH         LINE#         37
BL51 BANKED LINKER/LOCATER V6.22.2.0                                                  08/04/2022  14:17:00  PAGE 136


  C:790AH         LINE#         38
  C:790DH         LINE#         39
  C:791BH         LINE#         40
  C:791EH         LINE#         41
  C:792BH         LINE#         42
  C:792EH         LINE#         43
  C:793CH         LINE#         44
  C:793FH         LINE#         45
  C:794FH         LINE#         46
  C:795DH         LINE#         48
  C:7962H         LINE#         49
  C:7964H         LINE#         50
  -------         ENDPROC       _SPI_INIT
  -------         PROC          SPI_TRANSIVION
  C:8873H         LINE#         96
  C:8880H         LINE#         98
  C:8885H         LINE#         99
  C:8885H         LINE#         100
  C:8887H         LINE#         101
  C:8889H         LINE#         103
  C:8889H         LINE#         104
  C:8894H         LINE#         105
  C:88A8H         LINE#         106
  C:88AEH         LINE#         107
  C:88AEH         LINE#         108
  C:88B1H         LINE#         109
  -------         ENDPROC       SPI_TRANSIVION
  -------         PROC          L?0028
  -------         ENDPROC       L?0028
  -------         PROC          _SPI_READWRITEBYTE
  D:0007H         SYMBOL        dat
  C:9456H         LINE#         111
  C:9456H         LINE#         112
  C:9456H         LINE#         113
  C:9458H         LINE#         114
  C:945AH         LINE#         115
  C:945DH         LINE#         116
  C:945FH         LINE#         117
  C:945FH         LINE#         118
  -------         ENDPROC       _SPI_READWRITEBYTE
  -------         PROC          _SPI_FLASH_READ
  X:1124H         SYMBOL        pBuffer
  X:1127H         SYMBOL        ReadAddr
  X:112BH         SYMBOL        NumByteToRead
  -------         DO            
  X:112DH         SYMBOL        i
  X:112FH         SYMBOL        tmp
  -------         ENDDO         
  C:7834H         LINE#         139
  C:7843H         LINE#         140
  C:7843H         LINE#         141
  C:7843H         LINE#         142
  C:7845H         LINE#         143
  C:784CH         LINE#         144
  C:7851H         LINE#         145
  C:7856H         LINE#         146
  C:785BH         LINE#         147
BL51 BANKED LINKER/LOCATER V6.22.2.0                                                  08/04/2022  14:17:00  PAGE 137


  C:7866H         LINE#         148
  C:7882H         LINE#         149
  C:7882H         LINE#         150
  C:7893H         LINE#         151
  C:78BAH         LINE#         152
  C:78CAH         LINE#         153
  C:78CCH         LINE#         154
  -------         ENDPROC       _SPI_FLASH_READ
  -------         ENDMOD        SPI

  -------         MODULE        ?C?COPY
  C:09B6H         PUBLIC        ?C?COPY
  -------         ENDMOD        ?C?COPY

  -------         MODULE        ?C?CLDPTR
  C:09DCH         PUBLIC        ?C?CLDPTR
  -------         ENDMOD        ?C?CLDPTR

  -------         MODULE        ?C?CLDOPTR
  C:09F5H         PUBLIC        ?C?CLDOPTR
  -------         ENDMOD        ?C?CLDOPTR

  -------         MODULE        ?C?CSTPTR
  C:0A22H         PUBLIC        ?C?CSTPTR
  -------         ENDMOD        ?C?CSTPTR

  -------         MODULE        ?C?CSTOPTR
  C:0A34H         PUBLIC        ?C?CSTOPTR
  -------         ENDMOD        ?C?CSTOPTR

  -------         MODULE        ?C?IMUL
  C:0A56H         PUBLIC        ?C?IMUL
  -------         ENDMOD        ?C?IMUL

  -------         MODULE        ?C?UIDIV
  C:0A68H         PUBLIC        ?C?UIDIV
  -------         ENDMOD        ?C?UIDIV

  -------         MODULE        ?C?IILDX
  C:0ABDH         PUBLIC        ?C?IILDX
  -------         ENDMOD        ?C?IILDX

  -------         MODULE        ?C?ILDIX
  C:0AD3H         PUBLIC        ?C?ILDIX
  -------         ENDMOD        ?C?ILDIX

  -------         MODULE        ?C?ILDPTR
  C:0AE9H         PUBLIC        ?C?ILDPTR
  -------         ENDMOD        ?C?ILDPTR

  -------         MODULE        ?C?ILDOPTR
  C:0B14H         PUBLIC        ?C?ILDOPTR
  -------         ENDMOD        ?C?ILDOPTR

  -------         MODULE        ?C?LMUL
  C:0B4CH         PUBLIC        ?C?LMUL
  -------         ENDMOD        ?C?LMUL
BL51 BANKED LINKER/LOCATER V6.22.2.0                                                  08/04/2022  14:17:00  PAGE 138



  -------         MODULE        ?C?ULDIV
  C:0BD7H         PUBLIC        ?C?ULDIV
  -------         ENDMOD        ?C?ULDIV

  -------         MODULE        ?C?ULCMP
  C:0C69H         PUBLIC        ?C?ULCMP
  -------         ENDMOD        ?C?ULCMP

  -------         MODULE        ?C?ULSHR
  C:0C7AH         PUBLIC        ?C?ULSHR
  -------         ENDMOD        ?C?ULSHR

  -------         MODULE        ?C?LSHL
  C:0C8DH         PUBLIC        ?C?LSHL
  -------         ENDMOD        ?C?LSHL

  -------         MODULE        ?C?LLDOPTR
  C:0CA0H         PUBLIC        ?C?LLDOPTR
  -------         ENDMOD        ?C?LLDOPTR

  -------         MODULE        ?C?LLDOPTR0
  C:0CD0H         PUBLIC        ?C?LLDOPTR0
  -------         ENDMOD        ?C?LLDOPTR0

  -------         MODULE        ?C?LSTXDATA
  C:0D00H         PUBLIC        ?C?LSTXDATA
  -------         ENDMOD        ?C?LSTXDATA

  -------         MODULE        ?C?LSTKXDATA
  C:0D0CH         PUBLIC        ?C?LSTKXDATA
  -------         ENDMOD        ?C?LSTKXDATA

  -------         MODULE        ?C?OFFXADD
  C:0D3DH         PUBLIC        ?C?OFFXADD
  -------         ENDMOD        ?C?OFFXADD

  -------         MODULE        ?C?CCASE
  C:0D49H         PUBLIC        ?C?CCASE
  -------         ENDMOD        ?C?CCASE

  -------         MODULE        ?C?ICALL
  C:0D6FH         PUBLIC        ?C?ICALL
  C:0D73H         PUBLIC        ?C?ICALL2
  -------         ENDMOD        ?C?ICALL

  -------         MODULE        PRINTF
  X:111CH         PUBLIC        ?_PRINTF517?BYTE
  X:111CH         PUBLIC        ?_PRINTF?BYTE
  X:111CH         PUBLIC        ?_SPRINTF517?BYTE
  X:111CH         PUBLIC        ?_SPRINTF?BYTE
  C:2D19H         PUBLIC        _PRINTF
  C:2D19H         PUBLIC        _PRINTF517
  C:2D13H         PUBLIC        _SPRINTF
  C:2D13H         PUBLIC        _SPRINTF517
  -------         ENDMOD        PRINTF

BL51 BANKED LINKER/LOCATER V6.22.2.0                                                  08/04/2022  14:17:00  PAGE 139


  -------         MODULE        SCANF
  X:10CDH         PUBLIC        ?_SCANF517?BYTE
  X:10CDH         PUBLIC        ?_SCANF?BYTE
  X:10CDH         PUBLIC        ?_SSCANF517?BYTE
  X:10CDH         PUBLIC        ?_SSCANF?BYTE
  C:3A37H         PUBLIC        _SCANF
  C:3A37H         PUBLIC        _SCANF517
  C:3A33H         PUBLIC        _SSCANF
  C:3A33H         PUBLIC        _SSCANF517
  -------         ENDMOD        SCANF

  -------         MODULE        ?C?ISTPTR
  C:0D75H         PUBLIC        ?C?ISTPTR
  -------         ENDMOD        ?C?ISTPTR

  -------         MODULE        ?C?LNEG
  C:0D94H         PUBLIC        ?C?LNEG
  -------         ENDMOD        ?C?LNEG

  -------         MODULE        ?C?LSTPTR
  C:0DA2H         PUBLIC        ?C?LSTPTR
  -------         ENDMOD        ?C?LSTPTR

  -------         MODULE        ?C?LLDIDATA
  C:0DBCH         PUBLIC        ?C?LLDIDATA
  -------         ENDMOD        ?C?LLDIDATA

  -------         MODULE        ?C?LLDXDATA
  C:0DC8H         PUBLIC        ?C?LLDXDATA
  -------         ENDMOD        ?C?LLDXDATA

  -------         MODULE        ?C?LLDPDATA
  C:0DD4H         PUBLIC        ?C?LLDPDATA
  -------         ENDMOD        ?C?LLDPDATA

  -------         MODULE        ?C?LLDCODE
  C:0DE0H         PUBLIC        ?C?LLDCODE
  -------         ENDMOD        ?C?LLDCODE

  -------         MODULE        ?C?LLDIDATA0
  C:0DF0H         PUBLIC        ?C?LLDIDATA0
  -------         ENDMOD        ?C?LLDIDATA0

  -------         MODULE        ?C?LLDXDATA0
  C:0DFDH         PUBLIC        ?C?LLDXDATA0
  -------         ENDMOD        ?C?LLDXDATA0

  -------         MODULE        ?C?LLDPDATA0
  C:0E09H         PUBLIC        ?C?LLDPDATA0
  -------         ENDMOD        ?C?LLDPDATA0

  -------         MODULE        ?C?LLDCODE0
  C:0E16H         PUBLIC        ?C?LLDCODE0
  -------         ENDMOD        ?C?LLDCODE0

  -------         MODULE        ?C?PLDXDATA
  C:0E26H         PUBLIC        ?C?PLDXDATA
BL51 BANKED LINKER/LOCATER V6.22.2.0                                                  08/04/2022  14:17:00  PAGE 140


  -------         ENDMOD        ?C?PLDXDATA

  -------         MODULE        ?C?PLDIXDATA
  C:0E2FH         PUBLIC        ?C?PLDIXDATA
  -------         ENDMOD        ?C?PLDIXDATA

  -------         MODULE        ?C?PILDXDATA
  C:0E46H         PUBLIC        ?C?PILDXDATA
  -------         ENDMOD        ?C?PILDXDATA

  -------         MODULE        ?C?PSTXDATA
  C:0E5DH         PUBLIC        ?C?PSTXDATA
  -------         ENDMOD        ?C?PSTXDATA

  -------         MODULE        GETCHAR
  B:0023H.5       PUBLIC        ?C?CHARLOADED
  X:1385H         PUBLIC        ?_UNGETCHAR?BYTE
  C:9670H         PUBLIC        GETCHAR
  -------         ENDMOD        GETCHAR

  -------         MODULE        UNGETC
  C:979EH         PUBLIC        _UNGETCHAR
  -------         ENDMOD        UNGETC

  -------         MODULE        ISSPACE
  C:9684H         PUBLIC        _isspace
  -------         ENDMOD        ISSPACE

  -------         MODULE        ?C?LSTIDATA
  C:0E66H         PUBLIC        ?C?LSTIDATA
  -------         ENDMOD        ?C?LSTIDATA

  -------         MODULE        ?C?LSTPDATA
  C:0E72H         PUBLIC        ?C?LSTPDATA
  -------         ENDMOD        ?C?LSTPDATA

  -------         MODULE        _GETKEY
  C:978BH         PUBLIC        _GETKEY
  -------         ENDMOD        _GETKEY

*** WARNING L16: UNCALLED SEGMENT, IGNORED FOR OVERLAY PROCESS
    SEGMENT: ?PR?_DISPLAYCSQ?LCD12864

Program Size: data=17.6 xdata=4998 code=38809
LINK/LOCATE RUN COMPLETE.  1 WARNING(S),  0 ERROR(S)
